
RTVT.elf:     file format elf32-avr

Sections:
Idx Name          Size      VMA       LMA       File off  Algn
  0 .text         00008526  00000000  00000000  00000094  2**1
                  CONTENTS, ALLOC, LOAD, READONLY, CODE
  1 .data         0000017a  00802000  00008526  000085ba  2**0
                  CONTENTS, ALLOC, LOAD, DATA
  2 .bss          0000001e  0080217a  0080217a  00008734  2**0
                  ALLOC
  3 .comment      0000005c  00000000  00000000  00008734  2**0
                  CONTENTS, READONLY
  4 .debug_aranges 000007e8  00000000  00000000  00008790  2**0
                  CONTENTS, READONLY, DEBUGGING
  5 .debug_info   00015594  00000000  00000000  00008f78  2**0
                  CONTENTS, READONLY, DEBUGGING
  6 .debug_abbrev 0000316b  00000000  00000000  0001e50c  2**0
                  CONTENTS, READONLY, DEBUGGING
  7 .debug_line   00006d4e  00000000  00000000  00021677  2**0
                  CONTENTS, READONLY, DEBUGGING
  8 .debug_frame  000024a8  00000000  00000000  000283c8  2**2
                  CONTENTS, READONLY, DEBUGGING
  9 .debug_str    00006426  00000000  00000000  0002a870  2**0
                  CONTENTS, READONLY, DEBUGGING
 10 .debug_loc    0000cab6  00000000  00000000  00030c96  2**0
                  CONTENTS, READONLY, DEBUGGING
 11 .debug_ranges 00000868  00000000  00000000  0003d74c  2**0
                  CONTENTS, READONLY, DEBUGGING
 12 .debug_macro  00000fbd  00000000  00000000  0003dfb4  2**0
                  CONTENTS, READONLY, DEBUGGING

Disassembly of section .text:

00000000 <__vectors>:
       0:	b2 c3       	rjmp	.+1892   	; 0x766 <__ctors_end>
       2:	00 00       	nop
       4:	e1 c3       	rjmp	.+1986   	; 0x7c8 <__bad_interrupt>
       6:	00 00       	nop
       8:	df c3       	rjmp	.+1982   	; 0x7c8 <__bad_interrupt>
       a:	00 00       	nop
       c:	dd c3       	rjmp	.+1978   	; 0x7c8 <__bad_interrupt>
       e:	00 00       	nop
      10:	db c3       	rjmp	.+1974   	; 0x7c8 <__bad_interrupt>
      12:	00 00       	nop
      14:	d9 c3       	rjmp	.+1970   	; 0x7c8 <__bad_interrupt>
      16:	00 00       	nop
      18:	d7 c3       	rjmp	.+1966   	; 0x7c8 <__bad_interrupt>
      1a:	00 00       	nop
      1c:	d5 c3       	rjmp	.+1962   	; 0x7c8 <__bad_interrupt>
      1e:	00 00       	nop
      20:	d3 c3       	rjmp	.+1958   	; 0x7c8 <__bad_interrupt>
      22:	00 00       	nop
      24:	d1 c3       	rjmp	.+1954   	; 0x7c8 <__bad_interrupt>
      26:	00 00       	nop
      28:	cf c3       	rjmp	.+1950   	; 0x7c8 <__bad_interrupt>
      2a:	00 00       	nop
      2c:	cd c3       	rjmp	.+1946   	; 0x7c8 <__bad_interrupt>
      2e:	00 00       	nop
      30:	cb c3       	rjmp	.+1942   	; 0x7c8 <__bad_interrupt>
      32:	00 00       	nop
      34:	c9 c3       	rjmp	.+1938   	; 0x7c8 <__bad_interrupt>
      36:	00 00       	nop
      38:	c7 c3       	rjmp	.+1934   	; 0x7c8 <__bad_interrupt>
      3a:	00 00       	nop
      3c:	c5 c3       	rjmp	.+1930   	; 0x7c8 <__bad_interrupt>
      3e:	00 00       	nop
      40:	0c 94 67 32 	jmp	0x64ce	; 0x64ce <__vector_16>
      44:	c1 c3       	rjmp	.+1922   	; 0x7c8 <__bad_interrupt>
      46:	00 00       	nop
      48:	bf c3       	rjmp	.+1918   	; 0x7c8 <__bad_interrupt>
      4a:	00 00       	nop
      4c:	bd c3       	rjmp	.+1914   	; 0x7c8 <__bad_interrupt>
      4e:	00 00       	nop
      50:	bb c3       	rjmp	.+1910   	; 0x7c8 <__bad_interrupt>
      52:	00 00       	nop
      54:	b9 c3       	rjmp	.+1906   	; 0x7c8 <__bad_interrupt>
      56:	00 00       	nop
      58:	0c 94 b2 32 	jmp	0x6564	; 0x6564 <__vector_22>
      5c:	b5 c3       	rjmp	.+1898   	; 0x7c8 <__bad_interrupt>
      5e:	00 00       	nop
      60:	b3 c3       	rjmp	.+1894   	; 0x7c8 <__bad_interrupt>
      62:	00 00       	nop
      64:	b1 c3       	rjmp	.+1890   	; 0x7c8 <__bad_interrupt>
      66:	00 00       	nop
      68:	af c3       	rjmp	.+1886   	; 0x7c8 <__bad_interrupt>
      6a:	00 00       	nop
      6c:	ad c3       	rjmp	.+1882   	; 0x7c8 <__bad_interrupt>
      6e:	00 00       	nop
      70:	ab c3       	rjmp	.+1878   	; 0x7c8 <__bad_interrupt>
      72:	00 00       	nop
      74:	a9 c3       	rjmp	.+1874   	; 0x7c8 <__bad_interrupt>
      76:	00 00       	nop
      78:	a7 c3       	rjmp	.+1870   	; 0x7c8 <__bad_interrupt>
      7a:	00 00       	nop
      7c:	a5 c3       	rjmp	.+1866   	; 0x7c8 <__bad_interrupt>
      7e:	00 00       	nop
      80:	a3 c3       	rjmp	.+1862   	; 0x7c8 <__bad_interrupt>
      82:	00 00       	nop
      84:	a1 c3       	rjmp	.+1858   	; 0x7c8 <__bad_interrupt>
      86:	00 00       	nop
      88:	9f c3       	rjmp	.+1854   	; 0x7c8 <__bad_interrupt>
      8a:	00 00       	nop
      8c:	9d c3       	rjmp	.+1850   	; 0x7c8 <__bad_interrupt>
      8e:	00 00       	nop
      90:	9b c3       	rjmp	.+1846   	; 0x7c8 <__bad_interrupt>
      92:	00 00       	nop
      94:	99 c3       	rjmp	.+1842   	; 0x7c8 <__bad_interrupt>
      96:	00 00       	nop
      98:	97 c3       	rjmp	.+1838   	; 0x7c8 <__bad_interrupt>
      9a:	00 00       	nop
      9c:	95 c3       	rjmp	.+1834   	; 0x7c8 <__bad_interrupt>
      9e:	00 00       	nop
      a0:	93 c3       	rjmp	.+1830   	; 0x7c8 <__bad_interrupt>
      a2:	00 00       	nop
      a4:	91 c3       	rjmp	.+1826   	; 0x7c8 <__bad_interrupt>
      a6:	00 00       	nop
      a8:	8f c3       	rjmp	.+1822   	; 0x7c8 <__bad_interrupt>
      aa:	00 00       	nop
      ac:	8d c3       	rjmp	.+1818   	; 0x7c8 <__bad_interrupt>
      ae:	00 00       	nop
      b0:	8b c3       	rjmp	.+1814   	; 0x7c8 <__bad_interrupt>
      b2:	00 00       	nop
      b4:	89 c3       	rjmp	.+1810   	; 0x7c8 <__bad_interrupt>
      b6:	00 00       	nop
      b8:	87 c3       	rjmp	.+1806   	; 0x7c8 <__bad_interrupt>
      ba:	00 00       	nop
      bc:	85 c3       	rjmp	.+1802   	; 0x7c8 <__bad_interrupt>
      be:	00 00       	nop
      c0:	83 c3       	rjmp	.+1798   	; 0x7c8 <__bad_interrupt>
      c2:	00 00       	nop
      c4:	81 c3       	rjmp	.+1794   	; 0x7c8 <__bad_interrupt>
      c6:	00 00       	nop
      c8:	7f c3       	rjmp	.+1790   	; 0x7c8 <__bad_interrupt>
      ca:	00 00       	nop
      cc:	7d c3       	rjmp	.+1786   	; 0x7c8 <__bad_interrupt>
      ce:	00 00       	nop
      d0:	7b c3       	rjmp	.+1782   	; 0x7c8 <__bad_interrupt>
      d2:	00 00       	nop
      d4:	79 c3       	rjmp	.+1778   	; 0x7c8 <__bad_interrupt>
      d6:	00 00       	nop
      d8:	77 c3       	rjmp	.+1774   	; 0x7c8 <__bad_interrupt>
      da:	00 00       	nop
      dc:	75 c3       	rjmp	.+1770   	; 0x7c8 <__bad_interrupt>
      de:	00 00       	nop
      e0:	73 c3       	rjmp	.+1766   	; 0x7c8 <__bad_interrupt>
      e2:	00 00       	nop
      e4:	0c 94 5d 32 	jmp	0x64ba	; 0x64ba <__vector_57>
      e8:	6f c3       	rjmp	.+1758   	; 0x7c8 <__bad_interrupt>
      ea:	00 00       	nop
      ec:	6d c3       	rjmp	.+1754   	; 0x7c8 <__bad_interrupt>
      ee:	00 00       	nop
      f0:	6b c3       	rjmp	.+1750   	; 0x7c8 <__bad_interrupt>
      f2:	00 00       	nop
      f4:	69 c3       	rjmp	.+1746   	; 0x7c8 <__bad_interrupt>
      f6:	00 00       	nop
      f8:	67 c3       	rjmp	.+1742   	; 0x7c8 <__bad_interrupt>
      fa:	00 00       	nop
      fc:	65 c3       	rjmp	.+1738   	; 0x7c8 <__bad_interrupt>
      fe:	00 00       	nop
     100:	63 c3       	rjmp	.+1734   	; 0x7c8 <__bad_interrupt>
     102:	00 00       	nop
     104:	61 c3       	rjmp	.+1730   	; 0x7c8 <__bad_interrupt>
     106:	00 00       	nop
     108:	5f c3       	rjmp	.+1726   	; 0x7c8 <__bad_interrupt>
     10a:	00 00       	nop
     10c:	5d c3       	rjmp	.+1722   	; 0x7c8 <__bad_interrupt>
     10e:	00 00       	nop
     110:	5b c3       	rjmp	.+1718   	; 0x7c8 <__bad_interrupt>
     112:	00 00       	nop
     114:	59 c3       	rjmp	.+1714   	; 0x7c8 <__bad_interrupt>
     116:	00 00       	nop
     118:	57 c3       	rjmp	.+1710   	; 0x7c8 <__bad_interrupt>
     11a:	00 00       	nop
     11c:	55 c3       	rjmp	.+1706   	; 0x7c8 <__bad_interrupt>
     11e:	00 00       	nop
     120:	53 c3       	rjmp	.+1702   	; 0x7c8 <__bad_interrupt>
     122:	00 00       	nop
     124:	51 c3       	rjmp	.+1698   	; 0x7c8 <__bad_interrupt>
     126:	00 00       	nop
     128:	4f c3       	rjmp	.+1694   	; 0x7c8 <__bad_interrupt>
     12a:	00 00       	nop
     12c:	4d c3       	rjmp	.+1690   	; 0x7c8 <__bad_interrupt>
     12e:	00 00       	nop
     130:	4b c3       	rjmp	.+1686   	; 0x7c8 <__bad_interrupt>
     132:	00 00       	nop
     134:	49 c3       	rjmp	.+1682   	; 0x7c8 <__bad_interrupt>
     136:	00 00       	nop
     138:	47 c3       	rjmp	.+1678   	; 0x7c8 <__bad_interrupt>
     13a:	00 00       	nop
     13c:	45 c3       	rjmp	.+1674   	; 0x7c8 <__bad_interrupt>
     13e:	00 00       	nop
     140:	43 c3       	rjmp	.+1670   	; 0x7c8 <__bad_interrupt>
     142:	00 00       	nop
     144:	41 c3       	rjmp	.+1666   	; 0x7c8 <__bad_interrupt>
     146:	00 00       	nop
     148:	3f c3       	rjmp	.+1662   	; 0x7c8 <__bad_interrupt>
     14a:	00 00       	nop
     14c:	3d c3       	rjmp	.+1658   	; 0x7c8 <__bad_interrupt>
     14e:	00 00       	nop
     150:	3b c3       	rjmp	.+1654   	; 0x7c8 <__bad_interrupt>
     152:	00 00       	nop
     154:	39 c3       	rjmp	.+1650   	; 0x7c8 <__bad_interrupt>
     156:	00 00       	nop
     158:	37 c3       	rjmp	.+1646   	; 0x7c8 <__bad_interrupt>
     15a:	00 00       	nop
     15c:	35 c3       	rjmp	.+1642   	; 0x7c8 <__bad_interrupt>
     15e:	00 00       	nop
     160:	0c 94 8e 31 	jmp	0x631c	; 0x631c <__vector_88>
     164:	0c 94 fa 31 	jmp	0x63f4	; 0x63f4 <__vector_89>
     168:	0c 94 e6 31 	jmp	0x63cc	; 0x63cc <__vector_90>
     16c:	0c 94 ba 31 	jmp	0x6374	; 0x6374 <__vector_91>
     170:	0c 94 26 32 	jmp	0x644c	; 0x644c <__vector_92>
     174:	0c 94 f0 31 	jmp	0x63e0	; 0x63e0 <__vector_93>
     178:	27 c3       	rjmp	.+1614   	; 0x7c8 <__bad_interrupt>
     17a:	00 00       	nop
     17c:	25 c3       	rjmp	.+1610   	; 0x7c8 <__bad_interrupt>
     17e:	00 00       	nop
     180:	23 c3       	rjmp	.+1606   	; 0x7c8 <__bad_interrupt>
     182:	00 00       	nop
     184:	21 c3       	rjmp	.+1602   	; 0x7c8 <__bad_interrupt>
     186:	00 00       	nop
     188:	1f c3       	rjmp	.+1598   	; 0x7c8 <__bad_interrupt>
     18a:	00 00       	nop
     18c:	1d c3       	rjmp	.+1594   	; 0x7c8 <__bad_interrupt>
     18e:	00 00       	nop
     190:	1b c3       	rjmp	.+1590   	; 0x7c8 <__bad_interrupt>
     192:	00 00       	nop
     194:	19 c3       	rjmp	.+1586   	; 0x7c8 <__bad_interrupt>
     196:	00 00       	nop
     198:	17 c3       	rjmp	.+1582   	; 0x7c8 <__bad_interrupt>
     19a:	00 00       	nop
     19c:	15 c3       	rjmp	.+1578   	; 0x7c8 <__bad_interrupt>
     19e:	00 00       	nop
     1a0:	13 c3       	rjmp	.+1574   	; 0x7c8 <__bad_interrupt>
     1a2:	00 00       	nop
     1a4:	11 c3       	rjmp	.+1570   	; 0x7c8 <__bad_interrupt>
     1a6:	00 00       	nop
     1a8:	0f c3       	rjmp	.+1566   	; 0x7c8 <__bad_interrupt>
     1aa:	00 00       	nop
     1ac:	0d c3       	rjmp	.+1562   	; 0x7c8 <__bad_interrupt>
     1ae:	00 00       	nop
     1b0:	0b c3       	rjmp	.+1558   	; 0x7c8 <__bad_interrupt>
     1b2:	00 00       	nop
     1b4:	09 c3       	rjmp	.+1554   	; 0x7c8 <__bad_interrupt>
     1b6:	00 00       	nop
     1b8:	07 c3       	rjmp	.+1550   	; 0x7c8 <__bad_interrupt>
     1ba:	00 00       	nop
     1bc:	05 c3       	rjmp	.+1546   	; 0x7c8 <__bad_interrupt>
     1be:	00 00       	nop
     1c0:	03 c3       	rjmp	.+1542   	; 0x7c8 <__bad_interrupt>
     1c2:	00 00       	nop
     1c4:	01 c3       	rjmp	.+1538   	; 0x7c8 <__bad_interrupt>
     1c6:	00 00       	nop
     1c8:	ff c2       	rjmp	.+1534   	; 0x7c8 <__bad_interrupt>
     1ca:	00 00       	nop
     1cc:	fd c2       	rjmp	.+1530   	; 0x7c8 <__bad_interrupt>
     1ce:	00 00       	nop
     1d0:	fb c2       	rjmp	.+1526   	; 0x7c8 <__bad_interrupt>
     1d2:	00 00       	nop
     1d4:	f9 c2       	rjmp	.+1522   	; 0x7c8 <__bad_interrupt>
     1d6:	00 00       	nop
     1d8:	f7 c2       	rjmp	.+1518   	; 0x7c8 <__bad_interrupt>
     1da:	00 00       	nop
     1dc:	f5 c2       	rjmp	.+1514   	; 0x7c8 <__bad_interrupt>
     1de:	00 00       	nop
     1e0:	f3 c2       	rjmp	.+1510   	; 0x7c8 <__bad_interrupt>
     1e2:	00 00       	nop
     1e4:	f1 c2       	rjmp	.+1506   	; 0x7c8 <__bad_interrupt>
     1e6:	00 00       	nop
     1e8:	ef c2       	rjmp	.+1502   	; 0x7c8 <__bad_interrupt>
     1ea:	00 00       	nop
     1ec:	ed c2       	rjmp	.+1498   	; 0x7c8 <__bad_interrupt>
     1ee:	00 00       	nop
     1f0:	eb c2       	rjmp	.+1494   	; 0x7c8 <__bad_interrupt>
     1f2:	00 00       	nop
     1f4:	e9 c2       	rjmp	.+1490   	; 0x7c8 <__bad_interrupt>
     1f6:	00 00       	nop
     1f8:	e7 c2       	rjmp	.+1486   	; 0x7c8 <__bad_interrupt>
     1fa:	00 00       	nop
     1fc:	5e 09       	sbc	r21, r14
     1fe:	3d 09       	sbc	r19, r13
     200:	7f 09       	sbc	r23, r15
     202:	9f 09       	sbc	r25, r15
     204:	c0 09       	sbc	r28, r0
     206:	e1 09       	sbc	r30, r1
     208:	02 0a       	sbc	r0, r18
     20a:	23 0a       	sbc	r2, r19
     20c:	44 0a       	sbc	r4, r20
     20e:	65 0a       	sbc	r6, r21
     210:	86 0a       	sbc	r8, r22
     212:	a6 0a       	sbc	r10, r22
     214:	c7 0a       	sbc	r12, r23
     216:	25 08       	sbc	r2, r5
     218:	41 08       	sbc	r4, r1
     21a:	61 08       	sbc	r6, r1
     21c:	69 08       	sbc	r6, r9
     21e:	75 08       	sbc	r7, r5
     220:	89 08       	sbc	r8, r9
     222:	31 08       	sbc	r3, r1
     224:	98 08       	sbc	r9, r8
     226:	ad 08       	sbc	r10, r13
     228:	c1 08       	sbc	r12, r1
     22a:	d9 08       	sbc	r13, r9
     22c:	f1 08       	sbc	r15, r1
     22e:	09 09       	sbc	r16, r9
     230:	21 09       	sbc	r18, r1
     232:	e8 0a       	sbc	r14, r24
     234:	08 0b       	sbc	r16, r24
     236:	29 0b       	sbc	r18, r25
     238:	4a 0b       	sbc	r20, r26
     23a:	6b 0b       	sbc	r22, r27
     23c:	b1 27       	eor	r27, r17
     23e:	b9 27       	eor	r27, r25
     240:	bd 27       	eor	r27, r29
     242:	c1 27       	eor	r28, r17
     244:	c5 27       	eor	r28, r21
     246:	b5 27       	eor	r27, r21
     248:	c9 27       	eor	r28, r25
     24a:	b2 39       	cpi	r27, 0x92	; 146
     24c:	bf 39       	cpi	r27, 0x9F	; 159
     24e:	3e 3a       	cpi	r19, 0xAE	; 174
     250:	45 3a       	cpi	r20, 0xA5	; 165
     252:	4f 3b       	cpi	r20, 0xBF	; 191
     254:	4f 3b       	cpi	r20, 0xBF	; 191
     256:	4f 3b       	cpi	r20, 0xBF	; 191
     258:	4f 3b       	cpi	r20, 0xBF	; 191
     25a:	4f 3b       	cpi	r20, 0xBF	; 191
     25c:	4f 3b       	cpi	r20, 0xBF	; 191
     25e:	ed 3a       	cpi	r30, 0xAD	; 173
     260:	f3 3a       	cpi	r31, 0xA3	; 163
     262:	09 3b       	cpi	r16, 0xB9	; 185
     264:	1f 3b       	cpi	r17, 0xBF	; 191
     266:	3b 3b       	cpi	r19, 0xBB	; 187

00000268 <__trampolines_end>:
     268:	00 00       	nop
     26a:	00 00       	nop
     26c:	00 3e       	cpi	r16, 0xE0	; 224
     26e:	5b 4f       	sbci	r21, 0xFB	; 251
     270:	5b 3e       	cpi	r21, 0xEB	; 235
     272:	3e 6b       	ori	r19, 0xBE	; 190
     274:	4f 6b       	ori	r20, 0xBF	; 191
     276:	3e 1c       	adc	r3, r14
     278:	3e 7c       	andi	r19, 0xCE	; 206
     27a:	3e 1c       	adc	r3, r14
     27c:	18 3c       	cpi	r17, 0xC8	; 200
     27e:	7e 3c       	cpi	r23, 0xCE	; 206
     280:	18 1c       	adc	r1, r8
     282:	57 7d       	andi	r21, 0xD7	; 215
     284:	57 1c       	adc	r5, r7
     286:	1c 5e       	subi	r17, 0xEC	; 236
     288:	7f 5e       	subi	r23, 0xEF	; 239
     28a:	1c 00       	.word	0x001c	; ????
     28c:	18 3c       	cpi	r17, 0xC8	; 200
     28e:	18 00       	.word	0x0018	; ????
     290:	ff e7       	ldi	r31, 0x7F	; 127
     292:	c3 e7       	ldi	r28, 0x73	; 115
     294:	ff 00       	.word	0x00ff	; ????
     296:	18 24       	eor	r1, r8
     298:	18 00       	.word	0x0018	; ????
     29a:	ff e7       	ldi	r31, 0x7F	; 127
     29c:	db e7       	ldi	r29, 0x7B	; 123
     29e:	ff 30       	cpi	r31, 0x0F	; 15
     2a0:	48 3a       	cpi	r20, 0xA8	; 168
     2a2:	06 0e       	add	r0, r22
     2a4:	26 29       	or	r18, r6
     2a6:	79 29       	or	r23, r9
     2a8:	26 40       	sbci	r18, 0x06	; 6
     2aa:	7f 05       	cpc	r23, r15
     2ac:	05 07       	cpc	r16, r21
     2ae:	40 7f       	andi	r20, 0xF0	; 240
     2b0:	05 25       	eor	r16, r5
     2b2:	3f 5a       	subi	r19, 0xAF	; 175
     2b4:	3c e7       	ldi	r19, 0x7C	; 124
     2b6:	3c 5a       	subi	r19, 0xAC	; 172
     2b8:	7f 3e       	cpi	r23, 0xEF	; 239
     2ba:	1c 1c       	adc	r1, r12
     2bc:	08 08       	sbc	r0, r8
     2be:	1c 1c       	adc	r1, r12
     2c0:	3e 7f       	andi	r19, 0xFE	; 254
     2c2:	14 22       	and	r1, r20
     2c4:	7f 22       	and	r7, r31
     2c6:	14 5f       	subi	r17, 0xF4	; 244
     2c8:	5f 00       	.word	0x005f	; ????
     2ca:	5f 5f       	subi	r21, 0xFF	; 255
     2cc:	06 09       	sbc	r16, r6
     2ce:	7f 01       	movw	r14, r30
     2d0:	7f 00       	.word	0x007f	; ????
     2d2:	66 89       	ldd	r22, Z+22	; 0x16
     2d4:	95 6a       	ori	r25, 0xA5	; 165
     2d6:	60 60       	ori	r22, 0x00	; 0
     2d8:	60 60       	ori	r22, 0x00	; 0
     2da:	60 94       	com	r6
     2dc:	a2 ff       	sbrs	r26, 2
     2de:	a2 94       	swap	r10
     2e0:	08 04       	cpc	r0, r8
     2e2:	7e 04       	cpc	r7, r14
     2e4:	08 10       	cpse	r0, r8
     2e6:	20 7e       	andi	r18, 0xE0	; 224
     2e8:	20 10       	cpse	r2, r0
     2ea:	08 08       	sbc	r0, r8
     2ec:	2a 1c       	adc	r2, r10
     2ee:	08 08       	sbc	r0, r8
     2f0:	1c 2a       	or	r1, r28
     2f2:	08 08       	sbc	r0, r8
     2f4:	1e 10       	cpse	r1, r14
     2f6:	10 10       	cpse	r1, r0
     2f8:	10 0c       	add	r1, r0
     2fa:	1e 0c       	add	r1, r14
     2fc:	1e 0c       	add	r1, r14
     2fe:	30 38       	cpi	r19, 0x80	; 128
     300:	3e 38       	cpi	r19, 0x8E	; 142
     302:	30 06       	cpc	r3, r16
     304:	0e 3e       	cpi	r16, 0xEE	; 238
     306:	0e 06       	cpc	r0, r30
     308:	00 00       	nop
     30a:	00 00       	nop
     30c:	00 00       	nop
     30e:	00 5f       	subi	r16, 0xF0	; 240
     310:	00 00       	nop
     312:	00 07       	cpc	r16, r16
     314:	00 07       	cpc	r16, r16
     316:	00 14       	cp	r0, r0
     318:	7f 14       	cp	r7, r15
     31a:	7f 14       	cp	r7, r15
     31c:	24 2a       	or	r2, r20
     31e:	7f 2a       	or	r7, r31
     320:	12 23       	and	r17, r18
     322:	13 08       	sbc	r1, r3
     324:	64 62       	ori	r22, 0x24	; 36
     326:	36 49       	sbci	r19, 0x96	; 150
     328:	56 20       	and	r5, r6
     32a:	50 00       	.word	0x0050	; ????
     32c:	08 07       	cpc	r16, r24
     32e:	03 00       	.word	0x0003	; ????
     330:	00 1c       	adc	r0, r0
     332:	22 41       	sbci	r18, 0x12	; 18
     334:	00 00       	nop
     336:	41 22       	and	r4, r17
     338:	1c 00       	.word	0x001c	; ????
     33a:	2a 1c       	adc	r2, r10
     33c:	7f 1c       	adc	r7, r15
     33e:	2a 08       	sbc	r2, r10
     340:	08 3e       	cpi	r16, 0xE8	; 232
     342:	08 08       	sbc	r0, r8
     344:	00 80       	ld	r0, Z
     346:	70 30       	cpi	r23, 0x00	; 0
     348:	00 08       	sbc	r0, r0
     34a:	08 08       	sbc	r0, r8
     34c:	08 08       	sbc	r0, r8
     34e:	00 00       	nop
     350:	60 60       	ori	r22, 0x00	; 0
     352:	00 20       	and	r0, r0
     354:	10 08       	sbc	r1, r0
     356:	04 02       	muls	r16, r20
     358:	3e 51       	subi	r19, 0x1E	; 30
     35a:	49 45       	sbci	r20, 0x59	; 89
     35c:	3e 00       	.word	0x003e	; ????
     35e:	42 7f       	andi	r20, 0xF2	; 242
     360:	40 00       	.word	0x0040	; ????
     362:	72 49       	sbci	r23, 0x92	; 146
     364:	49 49       	sbci	r20, 0x99	; 153
     366:	46 21       	and	r20, r6
     368:	41 49       	sbci	r20, 0x91	; 145
     36a:	4d 33       	cpi	r20, 0x3D	; 61
     36c:	18 14       	cp	r1, r8
     36e:	12 7f       	andi	r17, 0xF2	; 242
     370:	10 27       	eor	r17, r16
     372:	45 45       	sbci	r20, 0x55	; 85
     374:	45 39       	cpi	r20, 0x95	; 149
     376:	3c 4a       	sbci	r19, 0xAC	; 172
     378:	49 49       	sbci	r20, 0x99	; 153
     37a:	31 41       	sbci	r19, 0x11	; 17
     37c:	21 11       	cpse	r18, r1
     37e:	09 07       	cpc	r16, r25
     380:	36 49       	sbci	r19, 0x96	; 150
     382:	49 49       	sbci	r20, 0x99	; 153
     384:	36 46       	sbci	r19, 0x66	; 102
     386:	49 49       	sbci	r20, 0x99	; 153
     388:	29 1e       	adc	r2, r25
     38a:	00 00       	nop
     38c:	14 00       	.word	0x0014	; ????
     38e:	00 00       	nop
     390:	40 34       	cpi	r20, 0x40	; 64
     392:	00 00       	nop
     394:	00 08       	sbc	r0, r0
     396:	14 22       	and	r1, r20
     398:	41 14       	cp	r4, r1
     39a:	14 14       	cp	r1, r4
     39c:	14 14       	cp	r1, r4
     39e:	00 41       	sbci	r16, 0x10	; 16
     3a0:	22 14       	cp	r2, r2
     3a2:	08 02       	muls	r16, r24
     3a4:	01 59       	subi	r16, 0x91	; 145
     3a6:	09 06       	cpc	r0, r25
     3a8:	3e 41       	sbci	r19, 0x1E	; 30
     3aa:	5d 59       	subi	r21, 0x9D	; 157
     3ac:	4e 7c       	andi	r20, 0xCE	; 206
     3ae:	12 11       	cpse	r17, r2
     3b0:	12 7c       	andi	r17, 0xC2	; 194
     3b2:	7f 49       	sbci	r23, 0x9F	; 159
     3b4:	49 49       	sbci	r20, 0x99	; 153
     3b6:	36 3e       	cpi	r19, 0xE6	; 230
     3b8:	41 41       	sbci	r20, 0x11	; 17
     3ba:	41 22       	and	r4, r17
     3bc:	7f 41       	sbci	r23, 0x1F	; 31
     3be:	41 41       	sbci	r20, 0x11	; 17
     3c0:	3e 7f       	andi	r19, 0xFE	; 254
     3c2:	49 49       	sbci	r20, 0x99	; 153
     3c4:	49 41       	sbci	r20, 0x19	; 25
     3c6:	7f 09       	sbc	r23, r15
     3c8:	09 09       	sbc	r16, r9
     3ca:	01 3e       	cpi	r16, 0xE1	; 225
     3cc:	41 41       	sbci	r20, 0x11	; 17
     3ce:	51 73       	andi	r21, 0x31	; 49
     3d0:	7f 08       	sbc	r7, r15
     3d2:	08 08       	sbc	r0, r8
     3d4:	7f 00       	.word	0x007f	; ????
     3d6:	41 7f       	andi	r20, 0xF1	; 241
     3d8:	41 00       	.word	0x0041	; ????
     3da:	20 40       	sbci	r18, 0x00	; 0
     3dc:	41 3f       	cpi	r20, 0xF1	; 241
     3de:	01 7f       	andi	r16, 0xF1	; 241
     3e0:	08 14       	cp	r0, r8
     3e2:	22 41       	sbci	r18, 0x12	; 18
     3e4:	7f 40       	sbci	r23, 0x0F	; 15
     3e6:	40 40       	sbci	r20, 0x00	; 0
     3e8:	40 7f       	andi	r20, 0xF0	; 240
     3ea:	02 1c       	adc	r0, r2
     3ec:	02 7f       	andi	r16, 0xF2	; 242
     3ee:	7f 04       	cpc	r7, r15
     3f0:	08 10       	cpse	r0, r8
     3f2:	7f 3e       	cpi	r23, 0xEF	; 239
     3f4:	41 41       	sbci	r20, 0x11	; 17
     3f6:	41 3e       	cpi	r20, 0xE1	; 225
     3f8:	7f 09       	sbc	r23, r15
     3fa:	09 09       	sbc	r16, r9
     3fc:	06 3e       	cpi	r16, 0xE6	; 230
     3fe:	41 51       	subi	r20, 0x11	; 17
     400:	21 5e       	subi	r18, 0xE1	; 225
     402:	7f 09       	sbc	r23, r15
     404:	19 29       	or	r17, r9
     406:	46 26       	eor	r4, r22
     408:	49 49       	sbci	r20, 0x99	; 153
     40a:	49 32       	cpi	r20, 0x29	; 41
     40c:	03 01       	movw	r0, r6
     40e:	7f 01       	movw	r14, r30
     410:	03 3f       	cpi	r16, 0xF3	; 243
     412:	40 40       	sbci	r20, 0x00	; 0
     414:	40 3f       	cpi	r20, 0xF0	; 240
     416:	1f 20       	and	r1, r15
     418:	40 20       	and	r4, r0
     41a:	1f 3f       	cpi	r17, 0xFF	; 255
     41c:	40 38       	cpi	r20, 0x80	; 128
     41e:	40 3f       	cpi	r20, 0xF0	; 240
     420:	63 14       	cp	r6, r3
     422:	08 14       	cp	r0, r8
     424:	63 03       	mulsu	r22, r19
     426:	04 78       	andi	r16, 0x84	; 132
     428:	04 03       	mulsu	r16, r20
     42a:	61 59       	subi	r22, 0x91	; 145
     42c:	49 4d       	sbci	r20, 0xD9	; 217
     42e:	43 00       	.word	0x0043	; ????
     430:	7f 41       	sbci	r23, 0x1F	; 31
     432:	41 41       	sbci	r20, 0x11	; 17
     434:	02 04       	cpc	r0, r2
     436:	08 10       	cpse	r0, r8
     438:	20 00       	.word	0x0020	; ????
     43a:	41 41       	sbci	r20, 0x11	; 17
     43c:	41 7f       	andi	r20, 0xF1	; 241
     43e:	04 02       	muls	r16, r20
     440:	01 02       	muls	r16, r17
     442:	04 40       	sbci	r16, 0x04	; 4
     444:	40 40       	sbci	r20, 0x00	; 0
     446:	40 40       	sbci	r20, 0x00	; 0
     448:	00 03       	mulsu	r16, r16
     44a:	07 08       	sbc	r0, r7
     44c:	00 20       	and	r0, r0
     44e:	54 54       	subi	r21, 0x44	; 68
     450:	78 40       	sbci	r23, 0x08	; 8
     452:	7f 28       	or	r7, r15
     454:	44 44       	sbci	r20, 0x44	; 68
     456:	38 38       	cpi	r19, 0x88	; 136
     458:	44 44       	sbci	r20, 0x44	; 68
     45a:	44 28       	or	r4, r4
     45c:	38 44       	sbci	r19, 0x48	; 72
     45e:	44 28       	or	r4, r4
     460:	7f 38       	cpi	r23, 0x8F	; 143
     462:	54 54       	subi	r21, 0x44	; 68
     464:	54 18       	sub	r5, r4
     466:	00 08       	sbc	r0, r0
     468:	7e 09       	sbc	r23, r14
     46a:	02 18       	sub	r0, r2
     46c:	a4 a4       	ldd	r10, Z+44	; 0x2c
     46e:	9c 78       	andi	r25, 0x8C	; 140
     470:	7f 08       	sbc	r7, r15
     472:	04 04       	cpc	r0, r4
     474:	78 00       	.word	0x0078	; ????
     476:	44 7d       	andi	r20, 0xD4	; 212
     478:	40 00       	.word	0x0040	; ????
     47a:	20 40       	sbci	r18, 0x00	; 0
     47c:	40 3d       	cpi	r20, 0xD0	; 208
     47e:	00 7f       	andi	r16, 0xF0	; 240
     480:	10 28       	or	r1, r0
     482:	44 00       	.word	0x0044	; ????
     484:	00 41       	sbci	r16, 0x10	; 16
     486:	7f 40       	sbci	r23, 0x0F	; 15
     488:	00 7c       	andi	r16, 0xC0	; 192
     48a:	04 78       	andi	r16, 0x84	; 132
     48c:	04 78       	andi	r16, 0x84	; 132
     48e:	7c 08       	sbc	r7, r12
     490:	04 04       	cpc	r0, r4
     492:	78 38       	cpi	r23, 0x88	; 136
     494:	44 44       	sbci	r20, 0x44	; 68
     496:	44 38       	cpi	r20, 0x84	; 132
     498:	fc 18       	sub	r15, r12
     49a:	24 24       	eor	r2, r4
     49c:	18 18       	sub	r1, r8
     49e:	24 24       	eor	r2, r4
     4a0:	18 fc       	.word	0xfc18	; ????
     4a2:	7c 08       	sbc	r7, r12
     4a4:	04 04       	cpc	r0, r4
     4a6:	08 48       	sbci	r16, 0x88	; 136
     4a8:	54 54       	subi	r21, 0x44	; 68
     4aa:	54 24       	eor	r5, r4
     4ac:	04 04       	cpc	r0, r4
     4ae:	3f 44       	sbci	r19, 0x4F	; 79
     4b0:	24 3c       	cpi	r18, 0xC4	; 196
     4b2:	40 40       	sbci	r20, 0x00	; 0
     4b4:	20 7c       	andi	r18, 0xC0	; 192
     4b6:	1c 20       	and	r1, r12
     4b8:	40 20       	and	r4, r0
     4ba:	1c 3c       	cpi	r17, 0xCC	; 204
     4bc:	40 30       	cpi	r20, 0x00	; 0
     4be:	40 3c       	cpi	r20, 0xC0	; 192
     4c0:	44 28       	or	r4, r4
     4c2:	10 28       	or	r1, r0
     4c4:	44 4c       	sbci	r20, 0xC4	; 196
     4c6:	90 90 90 7c 	lds	r9, 0x7C90
     4ca:	44 64       	ori	r20, 0x44	; 68
     4cc:	54 4c       	sbci	r21, 0xC4	; 196
     4ce:	44 00       	.word	0x0044	; ????
     4d0:	08 36       	cpi	r16, 0x68	; 104
     4d2:	41 00       	.word	0x0041	; ????
     4d4:	00 00       	nop
     4d6:	77 00       	.word	0x0077	; ????
     4d8:	00 00       	nop
     4da:	41 36       	cpi	r20, 0x61	; 97
     4dc:	08 00       	.word	0x0008	; ????
     4de:	02 01       	movw	r0, r4
     4e0:	02 04       	cpc	r0, r2
     4e2:	02 3c       	cpi	r16, 0xC2	; 194
     4e4:	26 23       	and	r18, r22
     4e6:	26 3c       	cpi	r18, 0xC6	; 198
     4e8:	1e a1       	ldd	r17, Y+38	; 0x26
     4ea:	a1 61       	ori	r26, 0x11	; 17
     4ec:	12 3a       	cpi	r17, 0xA2	; 162
     4ee:	40 40       	sbci	r20, 0x00	; 0
     4f0:	20 7a       	andi	r18, 0xA0	; 160
     4f2:	38 54       	subi	r19, 0x48	; 72
     4f4:	54 55       	subi	r21, 0x54	; 84
     4f6:	59 21       	and	r21, r9
     4f8:	55 55       	subi	r21, 0x55	; 85
     4fa:	79 41       	sbci	r23, 0x19	; 25
     4fc:	22 54       	subi	r18, 0x42	; 66
     4fe:	54 78       	andi	r21, 0x84	; 132
     500:	42 21       	and	r20, r2
     502:	55 54       	subi	r21, 0x45	; 69
     504:	78 40       	sbci	r23, 0x08	; 8
     506:	20 54       	subi	r18, 0x40	; 64
     508:	55 79       	andi	r21, 0x95	; 149
     50a:	40 0c       	add	r4, r0
     50c:	1e 52       	subi	r17, 0x2E	; 46
     50e:	72 12       	cpse	r7, r18
     510:	39 55       	subi	r19, 0x59	; 89
     512:	55 55       	subi	r21, 0x55	; 85
     514:	59 39       	cpi	r21, 0x99	; 153
     516:	54 54       	subi	r21, 0x44	; 68
     518:	54 59       	subi	r21, 0x94	; 148
     51a:	39 55       	subi	r19, 0x59	; 89
     51c:	54 54       	subi	r21, 0x44	; 68
     51e:	58 00       	.word	0x0058	; ????
     520:	00 45       	sbci	r16, 0x50	; 80
     522:	7c 41       	sbci	r23, 0x1C	; 28
     524:	00 02       	muls	r16, r16
     526:	45 7d       	andi	r20, 0xD5	; 213
     528:	42 00       	.word	0x0042	; ????
     52a:	01 45       	sbci	r16, 0x51	; 81
     52c:	7c 40       	sbci	r23, 0x0C	; 12
     52e:	7d 12       	cpse	r7, r29
     530:	11 12       	cpse	r1, r17
     532:	7d f0       	brhs	.+30     	; 0x552 <__trampolines_end+0x2ea>
     534:	28 25       	eor	r18, r8
     536:	28 f0       	brcs	.+10     	; 0x542 <__trampolines_end+0x2da>
     538:	7c 54       	subi	r23, 0x4C	; 76
     53a:	55 45       	sbci	r21, 0x55	; 85
     53c:	00 20       	and	r0, r0
     53e:	54 54       	subi	r21, 0x44	; 68
     540:	7c 54       	subi	r23, 0x4C	; 76
     542:	7c 0a       	sbc	r7, r28
     544:	09 7f       	andi	r16, 0xF9	; 249
     546:	49 32       	cpi	r20, 0x29	; 41
     548:	49 49       	sbci	r20, 0x99	; 153
     54a:	49 32       	cpi	r20, 0x29	; 41
     54c:	3a 44       	sbci	r19, 0x4A	; 74
     54e:	44 44       	sbci	r20, 0x44	; 68
     550:	3a 32       	cpi	r19, 0x2A	; 42
     552:	4a 48       	sbci	r20, 0x8A	; 138
     554:	48 30       	cpi	r20, 0x08	; 8
     556:	3a 41       	sbci	r19, 0x1A	; 26
     558:	41 21       	and	r20, r1
     55a:	7a 3a       	cpi	r23, 0xAA	; 170
     55c:	42 40       	sbci	r20, 0x02	; 2
     55e:	20 78       	andi	r18, 0x80	; 128
     560:	00 9d       	mul	r16, r0
     562:	a0 a0       	ldd	r10, Z+32	; 0x20
     564:	7d 3d       	cpi	r23, 0xDD	; 221
     566:	42 42       	sbci	r20, 0x22	; 34
     568:	42 3d       	cpi	r20, 0xD2	; 210
     56a:	3d 40       	sbci	r19, 0x0D	; 13
     56c:	40 40       	sbci	r20, 0x00	; 0
     56e:	3d 3c       	cpi	r19, 0xCD	; 205
     570:	24 ff       	sbrs	r18, 4
     572:	24 24       	eor	r2, r4
     574:	48 7e       	andi	r20, 0xE8	; 232
     576:	49 43       	sbci	r20, 0x39	; 57
     578:	66 2b       	or	r22, r22
     57a:	2f fc       	.word	0xfc2f	; ????
     57c:	2f 2b       	or	r18, r31
     57e:	ff 09       	sbc	r31, r15
     580:	29 f6       	brne	.-118    	; 0x50c <__trampolines_end+0x2a4>
     582:	20 c0       	rjmp	.+64     	; 0x5c4 <__trampolines_end+0x35c>
     584:	88 7e       	andi	r24, 0xE8	; 232
     586:	09 03       	fmul	r16, r17
     588:	20 54       	subi	r18, 0x40	; 64
     58a:	54 79       	andi	r21, 0x94	; 148
     58c:	41 00       	.word	0x0041	; ????
     58e:	00 44       	sbci	r16, 0x40	; 64
     590:	7d 41       	sbci	r23, 0x1D	; 29
     592:	30 48       	sbci	r19, 0x80	; 128
     594:	48 4a       	sbci	r20, 0xA8	; 168
     596:	32 38       	cpi	r19, 0x82	; 130
     598:	40 40       	sbci	r20, 0x00	; 0
     59a:	22 7a       	andi	r18, 0xA2	; 162
     59c:	00 7a       	andi	r16, 0xA0	; 160
     59e:	0a 0a       	sbc	r0, r26
     5a0:	72 7d       	andi	r23, 0xD2	; 210
     5a2:	0d 19       	sub	r16, r13
     5a4:	31 7d       	andi	r19, 0xD1	; 209
     5a6:	26 29       	or	r18, r6
     5a8:	29 2f       	mov	r18, r25
     5aa:	28 26       	eor	r2, r24
     5ac:	29 29       	or	r18, r9
     5ae:	29 26       	eor	r2, r25
     5b0:	30 48       	sbci	r19, 0x80	; 128
     5b2:	4d 40       	sbci	r20, 0x0D	; 13
     5b4:	20 38       	cpi	r18, 0x80	; 128
     5b6:	08 08       	sbc	r0, r8
     5b8:	08 08       	sbc	r0, r8
     5ba:	08 08       	sbc	r0, r8
     5bc:	08 08       	sbc	r0, r8
     5be:	38 2f       	mov	r19, r24
     5c0:	10 c8       	rjmp	.-4064   	; 0xfffff5e2 <__eeprom_end+0xff7ef5e2>
     5c2:	ac ba       	out	0x1c, r10	; 28
     5c4:	2f 10       	cpse	r2, r15
     5c6:	28 34       	cpi	r18, 0x48	; 72
     5c8:	fa 00       	.word	0x00fa	; ????
     5ca:	00 7b       	andi	r16, 0xB0	; 176
     5cc:	00 00       	nop
     5ce:	08 14       	cp	r0, r8
     5d0:	2a 14       	cp	r2, r10
     5d2:	22 22       	and	r2, r18
     5d4:	14 2a       	or	r1, r20
     5d6:	14 08       	sbc	r1, r4
     5d8:	aa 00       	.word	0x00aa	; ????
     5da:	55 00       	.word	0x0055	; ????
     5dc:	aa aa       	std	Y+50, r10	; 0x32
     5de:	55 aa       	std	Z+53, r5	; 0x35
     5e0:	55 aa       	std	Z+53, r5	; 0x35
     5e2:	00 00       	nop
     5e4:	00 ff       	sbrs	r16, 0
     5e6:	00 10       	cpse	r0, r0
     5e8:	10 10       	cpse	r1, r0
     5ea:	ff 00       	.word	0x00ff	; ????
     5ec:	14 14       	cp	r1, r4
     5ee:	14 ff       	sbrs	r17, 4
     5f0:	00 10       	cpse	r0, r0
     5f2:	10 ff       	sbrs	r17, 0
     5f4:	00 ff       	sbrs	r16, 0
     5f6:	10 10       	cpse	r1, r0
     5f8:	f0 10       	cpse	r15, r0
     5fa:	f0 14       	cp	r15, r0
     5fc:	14 14       	cp	r1, r4
     5fe:	fc 00       	.word	0x00fc	; ????
     600:	14 14       	cp	r1, r4
     602:	f7 00       	.word	0x00f7	; ????
     604:	ff 00       	.word	0x00ff	; ????
     606:	00 ff       	sbrs	r16, 0
     608:	00 ff       	sbrs	r16, 0
     60a:	14 14       	cp	r1, r4
     60c:	f4 04       	cpc	r15, r4
     60e:	fc 14       	cp	r15, r12
     610:	14 17       	cp	r17, r20
     612:	10 1f       	adc	r17, r16
     614:	10 10       	cpse	r1, r0
     616:	1f 10       	cpse	r1, r15
     618:	1f 14       	cp	r1, r15
     61a:	14 14       	cp	r1, r4
     61c:	1f 00       	.word	0x001f	; ????
     61e:	10 10       	cpse	r1, r0
     620:	10 f0       	brcs	.+4      	; 0x626 <__trampolines_end+0x3be>
     622:	00 00       	nop
     624:	00 00       	nop
     626:	1f 10       	cpse	r1, r15
     628:	10 10       	cpse	r1, r0
     62a:	10 1f       	adc	r17, r16
     62c:	10 10       	cpse	r1, r0
     62e:	10 10       	cpse	r1, r0
     630:	f0 10       	cpse	r15, r0
     632:	00 00       	nop
     634:	00 ff       	sbrs	r16, 0
     636:	10 10       	cpse	r1, r0
     638:	10 10       	cpse	r1, r0
     63a:	10 10       	cpse	r1, r0
     63c:	10 10       	cpse	r1, r0
     63e:	10 ff       	sbrs	r17, 0
     640:	10 00       	.word	0x0010	; ????
     642:	00 00       	nop
     644:	ff 14       	cp	r15, r15
     646:	00 00       	nop
     648:	ff 00       	.word	0x00ff	; ????
     64a:	ff 00       	.word	0x00ff	; ????
     64c:	00 1f       	adc	r16, r16
     64e:	10 17       	cp	r17, r16
     650:	00 00       	nop
     652:	fc 04       	cpc	r15, r12
     654:	f4 14       	cp	r15, r4
     656:	14 17       	cp	r17, r20
     658:	10 17       	cp	r17, r16
     65a:	14 14       	cp	r1, r4
     65c:	f4 04       	cpc	r15, r4
     65e:	f4 00       	.word	0x00f4	; ????
     660:	00 ff       	sbrs	r16, 0
     662:	00 f7       	brcc	.-64     	; 0x624 <__trampolines_end+0x3bc>
     664:	14 14       	cp	r1, r4
     666:	14 14       	cp	r1, r4
     668:	14 14       	cp	r1, r4
     66a:	14 f7       	brge	.-60     	; 0x630 <__trampolines_end+0x3c8>
     66c:	00 f7       	brcc	.-64     	; 0x62e <__trampolines_end+0x3c6>
     66e:	14 14       	cp	r1, r4
     670:	14 17       	cp	r17, r20
     672:	14 10       	cpse	r1, r4
     674:	10 1f       	adc	r17, r16
     676:	10 1f       	adc	r17, r16
     678:	14 14       	cp	r1, r4
     67a:	14 f4       	brge	.+4      	; 0x680 <__trampolines_end+0x418>
     67c:	14 10       	cpse	r1, r4
     67e:	10 f0       	brcs	.+4      	; 0x684 <__trampolines_end+0x41c>
     680:	10 f0       	brcs	.+4      	; 0x686 <__trampolines_end+0x41e>
     682:	00 00       	nop
     684:	1f 10       	cpse	r1, r15
     686:	1f 00       	.word	0x001f	; ????
     688:	00 00       	nop
     68a:	1f 14       	cp	r1, r15
     68c:	00 00       	nop
     68e:	00 fc       	sbrc	r0, 0
     690:	14 00       	.word	0x0014	; ????
     692:	00 f0       	brcs	.+0      	; 0x694 <__trampolines_end+0x42c>
     694:	10 f0       	brcs	.+4      	; 0x69a <__trampolines_end+0x432>
     696:	10 10       	cpse	r1, r0
     698:	ff 10       	cpse	r15, r15
     69a:	ff 14       	cp	r15, r15
     69c:	14 14       	cp	r1, r4
     69e:	ff 14       	cp	r15, r15
     6a0:	10 10       	cpse	r1, r0
     6a2:	10 1f       	adc	r17, r16
     6a4:	00 00       	nop
     6a6:	00 00       	nop
     6a8:	f0 10       	cpse	r15, r0
     6aa:	ff ff       	.word	0xffff	; ????
     6ac:	ff ff       	.word	0xffff	; ????
     6ae:	ff f0       	brie	.+62     	; 0x6ee <__trampolines_end+0x486>
     6b0:	f0 f0       	brcs	.+60     	; 0x6ee <__trampolines_end+0x486>
     6b2:	f0 f0       	brcs	.+60     	; 0x6f0 <__trampolines_end+0x488>
     6b4:	ff ff       	.word	0xffff	; ????
     6b6:	ff 00       	.word	0x00ff	; ????
     6b8:	00 00       	nop
     6ba:	00 00       	nop
     6bc:	ff ff       	.word	0xffff	; ????
     6be:	0f 0f       	add	r16, r31
     6c0:	0f 0f       	add	r16, r31
     6c2:	0f 38       	cpi	r16, 0x8F	; 143
     6c4:	44 44       	sbci	r20, 0x44	; 68
     6c6:	38 44       	sbci	r19, 0x48	; 72
     6c8:	fc 4a       	sbci	r31, 0xAC	; 172
     6ca:	4a 4a       	sbci	r20, 0xAA	; 170
     6cc:	34 7e       	andi	r19, 0xE4	; 228
     6ce:	02 02       	muls	r16, r18
     6d0:	06 06       	cpc	r0, r22
     6d2:	02 7e       	andi	r16, 0xE2	; 226
     6d4:	02 7e       	andi	r16, 0xE2	; 226
     6d6:	02 63       	ori	r16, 0x32	; 50
     6d8:	55 49       	sbci	r21, 0x95	; 149
     6da:	41 63       	ori	r20, 0x31	; 49
     6dc:	38 44       	sbci	r19, 0x48	; 72
     6de:	44 3c       	cpi	r20, 0xC4	; 196
     6e0:	04 40       	sbci	r16, 0x04	; 4
     6e2:	7e 20       	and	r7, r14
     6e4:	1e 20       	and	r1, r14
     6e6:	06 02       	muls	r16, r22
     6e8:	7e 02       	muls	r23, r30
     6ea:	02 99       	sbic	0x00, 2	; 0
     6ec:	a5 e7       	ldi	r26, 0x75	; 117
     6ee:	a5 99       	sbic	0x14, 5	; 20
     6f0:	1c 2a       	or	r1, r28
     6f2:	49 2a       	or	r4, r25
     6f4:	1c 4c       	sbci	r17, 0xCC	; 204
     6f6:	72 01       	movw	r14, r4
     6f8:	72 4c       	sbci	r23, 0xC2	; 194
     6fa:	30 4a       	sbci	r19, 0xA0	; 160
     6fc:	4d 4d       	sbci	r20, 0xDD	; 221
     6fe:	30 30       	cpi	r19, 0x00	; 0
     700:	48 78       	andi	r20, 0x88	; 136
     702:	48 30       	cpi	r20, 0x08	; 8
     704:	bc 62       	ori	r27, 0x2C	; 44
     706:	5a 46       	sbci	r21, 0x6A	; 106
     708:	3d 3e       	cpi	r19, 0xED	; 237
     70a:	49 49       	sbci	r20, 0x99	; 153
     70c:	49 00       	.word	0x0049	; ????
     70e:	7e 01       	movw	r14, r28
     710:	01 01       	movw	r0, r2
     712:	7e 2a       	or	r7, r30
     714:	2a 2a       	or	r2, r26
     716:	2a 2a       	or	r2, r26
     718:	44 44       	sbci	r20, 0x44	; 68
     71a:	5f 44       	sbci	r21, 0x4F	; 79
     71c:	44 40       	sbci	r20, 0x04	; 4
     71e:	51 4a       	sbci	r21, 0xA1	; 161
     720:	44 40       	sbci	r20, 0x04	; 4
     722:	40 44       	sbci	r20, 0x40	; 64
     724:	4a 51       	subi	r20, 0x1A	; 26
     726:	40 00       	.word	0x0040	; ????
     728:	00 ff       	sbrs	r16, 0
     72a:	01 03       	mulsu	r16, r17
     72c:	e0 80       	ld	r14, Z
     72e:	ff 00       	.word	0x00ff	; ????
     730:	00 08       	sbc	r0, r0
     732:	08 6b       	ori	r16, 0xB8	; 184
     734:	6b 08       	sbc	r6, r11
     736:	36 12       	cpse	r3, r22
     738:	36 24       	eor	r3, r6
     73a:	36 06       	cpc	r3, r22
     73c:	0f 09       	sbc	r16, r15
     73e:	0f 06       	cpc	r0, r31
     740:	00 00       	nop
     742:	18 18       	sub	r1, r8
     744:	00 00       	nop
     746:	00 10       	cpse	r0, r0
     748:	10 00       	.word	0x0010	; ????
     74a:	30 40       	sbci	r19, 0x00	; 0
     74c:	ff 01       	movw	r30, r30
     74e:	01 00       	.word	0x0001	; ????
     750:	1f 01       	movw	r2, r30
     752:	01 1e       	adc	r0, r17
     754:	00 19       	sub	r16, r0
     756:	1d 17       	cp	r17, r29
     758:	12 00       	.word	0x0012	; ????
     75a:	3c 3c       	cpi	r19, 0xCC	; 204
     75c:	3c 3c       	cpi	r19, 0xCC	; 204
     75e:	00 00       	nop
     760:	00 00       	nop
	...

00000764 <__ctors_start>:
     764:	95 3b       	cpi	r25, 0xB5	; 181

00000766 <__ctors_end>:
     766:	11 24       	eor	r1, r1
     768:	1f be       	out	0x3f, r1	; 63
     76a:	cf ef       	ldi	r28, 0xFF	; 255
     76c:	cd bf       	out	0x3d, r28	; 61
     76e:	df e3       	ldi	r29, 0x3F	; 63
     770:	de bf       	out	0x3e, r29	; 62
     772:	00 e0       	ldi	r16, 0x00	; 0
     774:	0c bf       	out	0x3c, r16	; 60

00000776 <__do_copy_data>:
     776:	11 e2       	ldi	r17, 0x21	; 33
     778:	a0 e0       	ldi	r26, 0x00	; 0
     77a:	b0 e2       	ldi	r27, 0x20	; 32
     77c:	e6 e2       	ldi	r30, 0x26	; 38
     77e:	f5 e8       	ldi	r31, 0x85	; 133
     780:	00 e0       	ldi	r16, 0x00	; 0
     782:	0b bf       	out	0x3b, r16	; 59
     784:	02 c0       	rjmp	.+4      	; 0x78a <__do_copy_data+0x14>
     786:	07 90       	elpm	r0, Z+
     788:	0d 92       	st	X+, r0
     78a:	aa 37       	cpi	r26, 0x7A	; 122
     78c:	b1 07       	cpc	r27, r17
     78e:	d9 f7       	brne	.-10     	; 0x786 <__do_copy_data+0x10>

00000790 <__do_clear_bss>:
     790:	21 e2       	ldi	r18, 0x21	; 33
     792:	aa e7       	ldi	r26, 0x7A	; 122
     794:	b1 e2       	ldi	r27, 0x21	; 33
     796:	01 c0       	rjmp	.+2      	; 0x79a <.do_clear_bss_start>

00000798 <.do_clear_bss_loop>:
     798:	1d 92       	st	X+, r1

0000079a <.do_clear_bss_start>:
     79a:	a8 39       	cpi	r26, 0x98	; 152
     79c:	b2 07       	cpc	r27, r18
     79e:	e1 f7       	brne	.-8      	; 0x798 <.do_clear_bss_loop>

000007a0 <__do_global_ctors>:
     7a0:	17 e0       	ldi	r17, 0x07	; 7
     7a2:	c6 e6       	ldi	r28, 0x66	; 102
     7a4:	d7 e0       	ldi	r29, 0x07	; 7
     7a6:	00 e0       	ldi	r16, 0x00	; 0
     7a8:	06 c0       	rjmp	.+12     	; 0x7b6 <__do_global_ctors+0x16>
     7aa:	22 97       	sbiw	r28, 0x02	; 2
     7ac:	01 09       	sbc	r16, r1
     7ae:	fe 01       	movw	r30, r28
     7b0:	0b bf       	out	0x3b, r16	; 59
     7b2:	0e 94 7d 3e 	call	0x7cfa	; 0x7cfa <__tablejump_elpm__>
     7b6:	c4 36       	cpi	r28, 0x64	; 100
     7b8:	d1 07       	cpc	r29, r17
     7ba:	80 e0       	ldi	r24, 0x00	; 0
     7bc:	08 07       	cpc	r16, r24
     7be:	a9 f7       	brne	.-22     	; 0x7aa <__do_global_ctors+0xa>
     7c0:	0e 94 9e 34 	call	0x693c	; 0x693c <main>
     7c4:	0c 94 91 42 	jmp	0x8522	; 0x8522 <_exit>

000007c8 <__bad_interrupt>:
     7c8:	0c 94 52 32 	jmp	0x64a4	; 0x64a4 <__vector_default>

000007cc <_ZN12Adafruit_GFX9drawPixelEiij>:
  wrap = w;
}

uint8_t Adafruit_GFX::getRotation(void) const {
  return rotation;
}
     7cc:	08 95       	ret

000007ce <_ZN12Adafruit_GFX8drawLineEiiiij>:
     7ce:	2f 92       	push	r2
     7d0:	3f 92       	push	r3
     7d2:	4f 92       	push	r4
     7d4:	5f 92       	push	r5
     7d6:	6f 92       	push	r6
     7d8:	7f 92       	push	r7
     7da:	8f 92       	push	r8
     7dc:	9f 92       	push	r9
     7de:	af 92       	push	r10
     7e0:	bf 92       	push	r11
     7e2:	cf 92       	push	r12
     7e4:	df 92       	push	r13
     7e6:	ef 92       	push	r14
     7e8:	ff 92       	push	r15
     7ea:	0f 93       	push	r16
     7ec:	1f 93       	push	r17
     7ee:	cf 93       	push	r28
     7f0:	df 93       	push	r29
     7f2:	00 d0       	rcall	.+0      	; 0x7f4 <_ZN12Adafruit_GFX8drawLineEiiiij+0x26>
     7f4:	1f 92       	push	r1
     7f6:	cd b7       	in	r28, 0x3d	; 61
     7f8:	de b7       	in	r29, 0x3e	; 62
     7fa:	5c 01       	movw	r10, r24
     7fc:	6b 83       	std	Y+3, r22	; 0x03
     7fe:	7c 83       	std	Y+4, r23	; 0x04
     800:	6a 01       	movw	r12, r20
     802:	49 01       	movw	r8, r18
     804:	18 01       	movw	r2, r16
     806:	b8 01       	movw	r22, r16
     808:	64 1b       	sub	r22, r20
     80a:	75 0b       	sbc	r23, r21
     80c:	88 27       	eor	r24, r24
     80e:	77 fd       	sbrc	r23, 7
     810:	80 95       	com	r24
     812:	98 2f       	mov	r25, r24
     814:	0e 94 b0 3d 	call	0x7b60	; 0x7b60 <__floatsisf>
     818:	2b 01       	movw	r4, r22
     81a:	3c 01       	movw	r6, r24
     81c:	e8 94       	clt
     81e:	77 f8       	bld	r7, 7
     820:	b4 01       	movw	r22, r8
     822:	2b 81       	ldd	r18, Y+3	; 0x03
     824:	3c 81       	ldd	r19, Y+4	; 0x04
     826:	62 1b       	sub	r22, r18
     828:	73 0b       	sbc	r23, r19
     82a:	88 27       	eor	r24, r24
     82c:	77 fd       	sbrc	r23, 7
     82e:	80 95       	com	r24
     830:	98 2f       	mov	r25, r24
     832:	0e 94 b0 3d 	call	0x7b60	; 0x7b60 <__floatsisf>
     836:	9b 01       	movw	r18, r22
     838:	ac 01       	movw	r20, r24
     83a:	5f 77       	andi	r21, 0x7F	; 127
     83c:	11 e0       	ldi	r17, 0x01	; 1
     83e:	00 e0       	ldi	r16, 0x00	; 0
     840:	c3 01       	movw	r24, r6
     842:	b2 01       	movw	r22, r4
     844:	0e 94 14 3e 	call	0x7c28	; 0x7c28 <__gesf2>
     848:	18 16       	cp	r1, r24
     84a:	0c f0       	brlt	.+2      	; 0x84e <_ZN12Adafruit_GFX8drawLineEiiiij+0x80>
     84c:	10 e0       	ldi	r17, 0x00	; 0
     84e:	61 2e       	mov	r6, r17
     850:	70 2e       	mov	r7, r16
     852:	61 14       	cp	r6, r1
     854:	71 04       	cpc	r7, r1
     856:	59 f0       	breq	.+22     	; 0x86e <_ZN12Adafruit_GFX8drawLineEiiiij+0xa0>
     858:	98 2d       	mov	r25, r8
     85a:	89 2d       	mov	r24, r9
     85c:	41 01       	movw	r8, r2
     85e:	29 2e       	mov	r2, r25
     860:	38 2e       	mov	r3, r24
     862:	9b 81       	ldd	r25, Y+3	; 0x03
     864:	8c 81       	ldd	r24, Y+4	; 0x04
     866:	cb 82       	std	Y+3, r12	; 0x03
     868:	dc 82       	std	Y+4, r13	; 0x04
     86a:	c9 2e       	mov	r12, r25
     86c:	d8 2e       	mov	r13, r24
     86e:	8b 81       	ldd	r24, Y+3	; 0x03
     870:	9c 81       	ldd	r25, Y+4	; 0x04
     872:	88 16       	cp	r8, r24
     874:	99 06       	cpc	r9, r25
     876:	5c f4       	brge	.+22     	; 0x88e <_ZN12Adafruit_GFX8drawLineEiiiij+0xc0>
     878:	9c 2d       	mov	r25, r12
     87a:	8d 2d       	mov	r24, r13
     87c:	61 01       	movw	r12, r2
     87e:	29 2e       	mov	r2, r25
     880:	38 2e       	mov	r3, r24
     882:	9b 81       	ldd	r25, Y+3	; 0x03
     884:	8c 81       	ldd	r24, Y+4	; 0x04
     886:	8b 82       	std	Y+3, r8	; 0x03
     888:	9c 82       	std	Y+4, r9	; 0x04
     88a:	89 2e       	mov	r8, r25
     88c:	98 2e       	mov	r9, r24
     88e:	d4 01       	movw	r26, r8
     890:	eb 81       	ldd	r30, Y+3	; 0x03
     892:	fc 81       	ldd	r31, Y+4	; 0x04
     894:	ae 1b       	sub	r26, r30
     896:	bf 0b       	sbc	r27, r31
     898:	a9 83       	std	Y+1, r26	; 0x01
     89a:	ba 83       	std	Y+2, r27	; 0x02
     89c:	b1 01       	movw	r22, r2
     89e:	6c 19       	sub	r22, r12
     8a0:	7d 09       	sbc	r23, r13
     8a2:	88 27       	eor	r24, r24
     8a4:	77 fd       	sbrc	r23, 7
     8a6:	80 95       	com	r24
     8a8:	98 2f       	mov	r25, r24
     8aa:	0e 94 b0 3d 	call	0x7b60	; 0x7b60 <__floatsisf>
     8ae:	9f 77       	andi	r25, 0x7F	; 127
     8b0:	0e 94 7d 3d 	call	0x7afa	; 0x7afa <__fixsfsi>
     8b4:	2b 01       	movw	r4, r22
     8b6:	09 81       	ldd	r16, Y+1	; 0x01
     8b8:	1a 81       	ldd	r17, Y+2	; 0x02
     8ba:	11 23       	and	r17, r17
     8bc:	14 f4       	brge	.+4      	; 0x8c2 <_ZN12Adafruit_GFX8drawLineEiiiij+0xf4>
     8be:	0f 5f       	subi	r16, 0xFF	; 255
     8c0:	1f 4f       	sbci	r17, 0xFF	; 255
     8c2:	15 95       	asr	r17
     8c4:	07 95       	ror	r16
     8c6:	c2 14       	cp	r12, r2
     8c8:	d3 04       	cpc	r13, r3
     8ca:	24 f4       	brge	.+8      	; 0x8d4 <_ZN12Adafruit_GFX8drawLineEiiiij+0x106>
     8cc:	22 24       	eor	r2, r2
     8ce:	23 94       	inc	r2
     8d0:	31 2c       	mov	r3, r1
     8d2:	03 c0       	rjmp	.+6      	; 0x8da <_ZN12Adafruit_GFX8drawLineEiiiij+0x10c>
     8d4:	22 24       	eor	r2, r2
     8d6:	2a 94       	dec	r2
     8d8:	32 2c       	mov	r3, r2
     8da:	2b 81       	ldd	r18, Y+3	; 0x03
     8dc:	3c 81       	ldd	r19, Y+4	; 0x04
     8de:	82 16       	cp	r8, r18
     8e0:	93 06       	cpc	r9, r19
     8e2:	74 f1       	brlt	.+92     	; 0x940 <_ZN12Adafruit_GFX8drawLineEiiiij+0x172>
     8e4:	61 14       	cp	r6, r1
     8e6:	71 04       	cpc	r7, r1
     8e8:	69 f0       	breq	.+26     	; 0x904 <_ZN12Adafruit_GFX8drawLineEiiiij+0x136>
     8ea:	d5 01       	movw	r26, r10
     8ec:	ed 91       	ld	r30, X+
     8ee:	fc 91       	ld	r31, X
     8f0:	01 90       	ld	r0, Z+
     8f2:	f0 81       	ld	r31, Z
     8f4:	e0 2d       	mov	r30, r0
     8f6:	97 01       	movw	r18, r14
     8f8:	4b 81       	ldd	r20, Y+3	; 0x03
     8fa:	5c 81       	ldd	r21, Y+4	; 0x04
     8fc:	b6 01       	movw	r22, r12
     8fe:	c5 01       	movw	r24, r10
     900:	19 95       	eicall
     902:	0c c0       	rjmp	.+24     	; 0x91c <_ZN12Adafruit_GFX8drawLineEiiiij+0x14e>
     904:	d5 01       	movw	r26, r10
     906:	ed 91       	ld	r30, X+
     908:	fc 91       	ld	r31, X
     90a:	01 90       	ld	r0, Z+
     90c:	f0 81       	ld	r31, Z
     90e:	e0 2d       	mov	r30, r0
     910:	97 01       	movw	r18, r14
     912:	a6 01       	movw	r20, r12
     914:	6b 81       	ldd	r22, Y+3	; 0x03
     916:	7c 81       	ldd	r23, Y+4	; 0x04
     918:	c5 01       	movw	r24, r10
     91a:	19 95       	eicall
     91c:	04 19       	sub	r16, r4
     91e:	15 09       	sbc	r17, r5
     920:	32 f4       	brpl	.+12     	; 0x92e <_ZN12Adafruit_GFX8drawLineEiiiij+0x160>
     922:	c2 0c       	add	r12, r2
     924:	d3 1c       	adc	r13, r3
     926:	e9 81       	ldd	r30, Y+1	; 0x01
     928:	fa 81       	ldd	r31, Y+2	; 0x02
     92a:	0e 0f       	add	r16, r30
     92c:	1f 1f       	adc	r17, r31
     92e:	2b 81       	ldd	r18, Y+3	; 0x03
     930:	3c 81       	ldd	r19, Y+4	; 0x04
     932:	2f 5f       	subi	r18, 0xFF	; 255
     934:	3f 4f       	sbci	r19, 0xFF	; 255
     936:	2b 83       	std	Y+3, r18	; 0x03
     938:	3c 83       	std	Y+4, r19	; 0x04
     93a:	82 16       	cp	r8, r18
     93c:	93 06       	cpc	r9, r19
     93e:	94 f6       	brge	.-92     	; 0x8e4 <_ZN12Adafruit_GFX8drawLineEiiiij+0x116>
     940:	24 96       	adiw	r28, 0x04	; 4
     942:	cd bf       	out	0x3d, r28	; 61
     944:	de bf       	out	0x3e, r29	; 62
     946:	df 91       	pop	r29
     948:	cf 91       	pop	r28
     94a:	1f 91       	pop	r17
     94c:	0f 91       	pop	r16
     94e:	ff 90       	pop	r15
     950:	ef 90       	pop	r14
     952:	df 90       	pop	r13
     954:	cf 90       	pop	r12
     956:	bf 90       	pop	r11
     958:	af 90       	pop	r10
     95a:	9f 90       	pop	r9
     95c:	8f 90       	pop	r8
     95e:	7f 90       	pop	r7
     960:	6f 90       	pop	r6
     962:	5f 90       	pop	r5
     964:	4f 90       	pop	r4
     966:	3f 90       	pop	r3
     968:	2f 90       	pop	r2
     96a:	08 95       	ret

0000096c <_ZN12Adafruit_GFX8drawRectEiiiij>:
     96c:	6f 92       	push	r6
     96e:	7f 92       	push	r7
     970:	8f 92       	push	r8
     972:	9f 92       	push	r9
     974:	af 92       	push	r10
     976:	bf 92       	push	r11
     978:	cf 92       	push	r12
     97a:	df 92       	push	r13
     97c:	ef 92       	push	r14
     97e:	ff 92       	push	r15
     980:	0f 93       	push	r16
     982:	1f 93       	push	r17
     984:	cf 93       	push	r28
     986:	df 93       	push	r29
     988:	ec 01       	movw	r28, r24
     98a:	5b 01       	movw	r10, r22
     98c:	6a 01       	movw	r12, r20
     98e:	39 01       	movw	r6, r18
     990:	48 01       	movw	r8, r16
     992:	e8 81       	ld	r30, Y
     994:	f9 81       	ldd	r31, Y+1	; 0x01
     996:	06 80       	ldd	r0, Z+6	; 0x06
     998:	f7 81       	ldd	r31, Z+7	; 0x07
     99a:	e0 2d       	mov	r30, r0
     99c:	87 01       	movw	r16, r14
     99e:	19 95       	eicall
     9a0:	e8 81       	ld	r30, Y
     9a2:	f9 81       	ldd	r31, Y+1	; 0x01
     9a4:	a6 01       	movw	r20, r12
     9a6:	48 0d       	add	r20, r8
     9a8:	59 1d       	adc	r21, r9
     9aa:	41 50       	subi	r20, 0x01	; 1
     9ac:	51 09       	sbc	r21, r1
     9ae:	06 80       	ldd	r0, Z+6	; 0x06
     9b0:	f7 81       	ldd	r31, Z+7	; 0x07
     9b2:	e0 2d       	mov	r30, r0
     9b4:	93 01       	movw	r18, r6
     9b6:	b5 01       	movw	r22, r10
     9b8:	ce 01       	movw	r24, r28
     9ba:	19 95       	eicall
     9bc:	e8 81       	ld	r30, Y
     9be:	f9 81       	ldd	r31, Y+1	; 0x01
     9c0:	04 80       	ldd	r0, Z+4	; 0x04
     9c2:	f5 81       	ldd	r31, Z+5	; 0x05
     9c4:	e0 2d       	mov	r30, r0
     9c6:	94 01       	movw	r18, r8
     9c8:	a6 01       	movw	r20, r12
     9ca:	b5 01       	movw	r22, r10
     9cc:	ce 01       	movw	r24, r28
     9ce:	19 95       	eicall
     9d0:	e8 81       	ld	r30, Y
     9d2:	f9 81       	ldd	r31, Y+1	; 0x01
     9d4:	a6 0c       	add	r10, r6
     9d6:	b7 1c       	adc	r11, r7
     9d8:	b5 01       	movw	r22, r10
     9da:	61 50       	subi	r22, 0x01	; 1
     9dc:	71 09       	sbc	r23, r1
     9de:	04 80       	ldd	r0, Z+4	; 0x04
     9e0:	f5 81       	ldd	r31, Z+5	; 0x05
     9e2:	e0 2d       	mov	r30, r0
     9e4:	94 01       	movw	r18, r8
     9e6:	a6 01       	movw	r20, r12
     9e8:	ce 01       	movw	r24, r28
     9ea:	19 95       	eicall
     9ec:	df 91       	pop	r29
     9ee:	cf 91       	pop	r28
     9f0:	1f 91       	pop	r17
     9f2:	0f 91       	pop	r16
     9f4:	ff 90       	pop	r15
     9f6:	ef 90       	pop	r14
     9f8:	df 90       	pop	r13
     9fa:	cf 90       	pop	r12
     9fc:	bf 90       	pop	r11
     9fe:	af 90       	pop	r10
     a00:	9f 90       	pop	r9
     a02:	8f 90       	pop	r8
     a04:	7f 90       	pop	r7
     a06:	6f 90       	pop	r6
     a08:	08 95       	ret

00000a0a <_ZN12Adafruit_GFX13drawFastVLineEiiij>:
     a0a:	ef 92       	push	r14
     a0c:	ff 92       	push	r15
     a0e:	0f 93       	push	r16
     a10:	1f 93       	push	r17
     a12:	dc 01       	movw	r26, r24
     a14:	ed 91       	ld	r30, X+
     a16:	fc 91       	ld	r31, X
     a18:	24 0f       	add	r18, r20
     a1a:	35 1f       	adc	r19, r21
     a1c:	21 50       	subi	r18, 0x01	; 1
     a1e:	31 09       	sbc	r19, r1
     a20:	02 80       	ldd	r0, Z+2	; 0x02
     a22:	f3 81       	ldd	r31, Z+3	; 0x03
     a24:	e0 2d       	mov	r30, r0
     a26:	78 01       	movw	r14, r16
     a28:	89 01       	movw	r16, r18
     a2a:	9b 01       	movw	r18, r22
     a2c:	19 95       	eicall
     a2e:	1f 91       	pop	r17
     a30:	0f 91       	pop	r16
     a32:	ff 90       	pop	r15
     a34:	ef 90       	pop	r14
     a36:	08 95       	ret

00000a38 <_ZN12Adafruit_GFX13drawFastHLineEiiij>:
     a38:	ef 92       	push	r14
     a3a:	ff 92       	push	r15
     a3c:	0f 93       	push	r16
     a3e:	1f 93       	push	r17
     a40:	dc 01       	movw	r26, r24
     a42:	ed 91       	ld	r30, X+
     a44:	fc 91       	ld	r31, X
     a46:	26 0f       	add	r18, r22
     a48:	37 1f       	adc	r19, r23
     a4a:	21 50       	subi	r18, 0x01	; 1
     a4c:	31 09       	sbc	r19, r1
     a4e:	02 80       	ldd	r0, Z+2	; 0x02
     a50:	f3 81       	ldd	r31, Z+3	; 0x03
     a52:	e0 2d       	mov	r30, r0
     a54:	78 01       	movw	r14, r16
     a56:	8a 01       	movw	r16, r20
     a58:	19 95       	eicall
     a5a:	1f 91       	pop	r17
     a5c:	0f 91       	pop	r16
     a5e:	ff 90       	pop	r15
     a60:	ef 90       	pop	r14
     a62:	08 95       	ret

00000a64 <_ZN12Adafruit_GFX8fillRectEiiiij>:
     a64:	6f 92       	push	r6
     a66:	7f 92       	push	r7
     a68:	8f 92       	push	r8
     a6a:	9f 92       	push	r9
     a6c:	af 92       	push	r10
     a6e:	bf 92       	push	r11
     a70:	cf 92       	push	r12
     a72:	df 92       	push	r13
     a74:	ef 92       	push	r14
     a76:	ff 92       	push	r15
     a78:	0f 93       	push	r16
     a7a:	1f 93       	push	r17
     a7c:	cf 93       	push	r28
     a7e:	df 93       	push	r29
     a80:	6c 01       	movw	r12, r24
     a82:	eb 01       	movw	r28, r22
     a84:	4a 01       	movw	r8, r20
     a86:	58 01       	movw	r10, r16
     a88:	3b 01       	movw	r6, r22
     a8a:	62 0e       	add	r6, r18
     a8c:	73 1e       	adc	r7, r19
     a8e:	66 15       	cp	r22, r6
     a90:	77 05       	cpc	r23, r7
     a92:	84 f4       	brge	.+32     	; 0xab4 <_ZN12Adafruit_GFX8fillRectEiiiij+0x50>
     a94:	d6 01       	movw	r26, r12
     a96:	ed 91       	ld	r30, X+
     a98:	fc 91       	ld	r31, X
     a9a:	04 80       	ldd	r0, Z+4	; 0x04
     a9c:	f5 81       	ldd	r31, Z+5	; 0x05
     a9e:	e0 2d       	mov	r30, r0
     aa0:	87 01       	movw	r16, r14
     aa2:	95 01       	movw	r18, r10
     aa4:	a4 01       	movw	r20, r8
     aa6:	be 01       	movw	r22, r28
     aa8:	c6 01       	movw	r24, r12
     aaa:	19 95       	eicall
     aac:	21 96       	adiw	r28, 0x01	; 1
     aae:	c6 15       	cp	r28, r6
     ab0:	d7 05       	cpc	r29, r7
     ab2:	84 f3       	brlt	.-32     	; 0xa94 <_ZN12Adafruit_GFX8fillRectEiiiij+0x30>
     ab4:	df 91       	pop	r29
     ab6:	cf 91       	pop	r28
     ab8:	1f 91       	pop	r17
     aba:	0f 91       	pop	r16
     abc:	ff 90       	pop	r15
     abe:	ef 90       	pop	r14
     ac0:	df 90       	pop	r13
     ac2:	cf 90       	pop	r12
     ac4:	bf 90       	pop	r11
     ac6:	af 90       	pop	r10
     ac8:	9f 90       	pop	r9
     aca:	8f 90       	pop	r8
     acc:	7f 90       	pop	r7
     ace:	6f 90       	pop	r6
     ad0:	08 95       	ret

00000ad2 <_ZN12Adafruit_GFX10fillScreenEj>:
     ad2:	ef 92       	push	r14
     ad4:	ff 92       	push	r15
     ad6:	0f 93       	push	r16
     ad8:	1f 93       	push	r17
     ada:	dc 01       	movw	r26, r24
     adc:	ed 91       	ld	r30, X+
     ade:	fc 91       	ld	r31, X
     ae0:	11 97       	sbiw	r26, 0x01	; 1
     ae2:	18 96       	adiw	r26, 0x08	; 8
     ae4:	0d 91       	ld	r16, X+
     ae6:	1c 91       	ld	r17, X
     ae8:	19 97       	sbiw	r26, 0x09	; 9
     aea:	16 96       	adiw	r26, 0x06	; 6
     aec:	2d 91       	ld	r18, X+
     aee:	3c 91       	ld	r19, X
     af0:	17 97       	sbiw	r26, 0x07	; 7
     af2:	02 84       	ldd	r0, Z+10	; 0x0a
     af4:	f3 85       	ldd	r31, Z+11	; 0x0b
     af6:	e0 2d       	mov	r30, r0
     af8:	7b 01       	movw	r14, r22
     afa:	40 e0       	ldi	r20, 0x00	; 0
     afc:	50 e0       	ldi	r21, 0x00	; 0
     afe:	60 e0       	ldi	r22, 0x00	; 0
     b00:	70 e0       	ldi	r23, 0x00	; 0
     b02:	19 95       	eicall
     b04:	1f 91       	pop	r17
     b06:	0f 91       	pop	r16
     b08:	ff 90       	pop	r15
     b0a:	ef 90       	pop	r14
     b0c:	08 95       	ret

00000b0e <_ZN12Adafruit_GFX13invertDisplayEb>:
     b0e:	08 95       	ret

00000b10 <_ZN12Adafruit_GFXC1Eii>:
     b10:	fc 01       	movw	r30, r24
     b12:	89 e3       	ldi	r24, 0x39	; 57
     b14:	90 e2       	ldi	r25, 0x20	; 32
     b16:	80 83       	st	Z, r24
     b18:	91 83       	std	Z+1, r25	; 0x01
     b1a:	62 83       	std	Z+2, r22	; 0x02
     b1c:	73 83       	std	Z+3, r23	; 0x03
     b1e:	44 83       	std	Z+4, r20	; 0x04
     b20:	55 83       	std	Z+5, r21	; 0x05
     b22:	66 83       	std	Z+6, r22	; 0x06
     b24:	77 83       	std	Z+7, r23	; 0x07
     b26:	40 87       	std	Z+8, r20	; 0x08
     b28:	51 87       	std	Z+9, r21	; 0x09
     b2a:	15 8a       	std	Z+21, r1	; 0x15
     b2c:	12 86       	std	Z+10, r1	; 0x0a
     b2e:	13 86       	std	Z+11, r1	; 0x0b
     b30:	14 86       	std	Z+12, r1	; 0x0c
     b32:	15 86       	std	Z+13, r1	; 0x0d
     b34:	21 e0       	ldi	r18, 0x01	; 1
     b36:	24 8b       	std	Z+20, r18	; 0x14
     b38:	8f ef       	ldi	r24, 0xFF	; 255
     b3a:	9f ef       	ldi	r25, 0xFF	; 255
     b3c:	82 8b       	std	Z+18, r24	; 0x12
     b3e:	93 8b       	std	Z+19, r25	; 0x13
     b40:	80 8b       	std	Z+16, r24	; 0x10
     b42:	91 8b       	std	Z+17, r25	; 0x11
     b44:	26 8b       	std	Z+22, r18	; 0x16
     b46:	08 95       	ret

00000b48 <_ZN12Adafruit_GFX8drawCharEiihjjh>:
     b48:	2f 92       	push	r2
     b4a:	3f 92       	push	r3
     b4c:	4f 92       	push	r4
     b4e:	5f 92       	push	r5
     b50:	6f 92       	push	r6
     b52:	7f 92       	push	r7
     b54:	8f 92       	push	r8
     b56:	9f 92       	push	r9
     b58:	af 92       	push	r10
     b5a:	bf 92       	push	r11
     b5c:	cf 92       	push	r12
     b5e:	df 92       	push	r13
     b60:	ef 92       	push	r14
     b62:	ff 92       	push	r15
     b64:	0f 93       	push	r16
     b66:	1f 93       	push	r17
     b68:	cf 93       	push	r28
     b6a:	df 93       	push	r29
     b6c:	cd b7       	in	r28, 0x3d	; 61
     b6e:	de b7       	in	r29, 0x3e	; 62
     b70:	60 97       	sbiw	r28, 0x10	; 16
     b72:	cd bf       	out	0x3d, r28	; 61
     b74:	de bf       	out	0x3e, r29	; 62
     b76:	4c 01       	movw	r8, r24
     b78:	09 83       	std	Y+1, r16	; 0x01
     b7a:	1a 83       	std	Y+2, r17	; 0x02
     b7c:	ec 82       	std	Y+4, r14	; 0x04
     b7e:	fd 82       	std	Y+5, r15	; 0x05
     b80:	cb 82       	std	Y+3, r12	; 0x03
     b82:	dc 01       	movw	r26, r24
     b84:	16 96       	adiw	r26, 0x06	; 6
     b86:	8d 91       	ld	r24, X+
     b88:	9c 91       	ld	r25, X
     b8a:	17 97       	sbiw	r26, 0x07	; 7
     b8c:	68 17       	cp	r22, r24
     b8e:	79 07       	cpc	r23, r25
     b90:	0c f0       	brlt	.+2      	; 0xb94 <_ZN12Adafruit_GFX8drawCharEiihjjh+0x4c>
     b92:	c6 c0       	rjmp	.+396    	; 0xd20 <_ZN12Adafruit_GFX8drawCharEiihjjh+0x1d8>
     b94:	18 96       	adiw	r26, 0x08	; 8
     b96:	8d 91       	ld	r24, X+
     b98:	9c 91       	ld	r25, X
     b9a:	19 97       	sbiw	r26, 0x09	; 9
     b9c:	48 17       	cp	r20, r24
     b9e:	59 07       	cpc	r21, r25
     ba0:	0c f0       	brlt	.+2      	; 0xba4 <_ZN12Adafruit_GFX8drawCharEiihjjh+0x5c>
     ba2:	be c0       	rjmp	.+380    	; 0xd20 <_ZN12Adafruit_GFX8drawCharEiihjjh+0x1d8>
     ba4:	6c 2c       	mov	r6, r12
     ba6:	71 2c       	mov	r7, r1
     ba8:	c3 01       	movw	r24, r6
     baa:	88 0f       	add	r24, r24
     bac:	99 1f       	adc	r25, r25
     bae:	86 0d       	add	r24, r6
     bb0:	97 1d       	adc	r25, r7
     bb2:	88 0f       	add	r24, r24
     bb4:	99 1f       	adc	r25, r25
     bb6:	86 0f       	add	r24, r22
     bb8:	97 1f       	adc	r25, r23
     bba:	01 97       	sbiw	r24, 0x01	; 1
     bbc:	99 23       	and	r25, r25
     bbe:	0c f4       	brge	.+2      	; 0xbc2 <_ZN12Adafruit_GFX8drawCharEiihjjh+0x7a>
     bc0:	af c0       	rjmp	.+350    	; 0xd20 <_ZN12Adafruit_GFX8drawCharEiihjjh+0x1d8>
     bc2:	c3 01       	movw	r24, r6
     bc4:	88 0f       	add	r24, r24
     bc6:	99 1f       	adc	r25, r25
     bc8:	88 0f       	add	r24, r24
     bca:	99 1f       	adc	r25, r25
     bcc:	88 0f       	add	r24, r24
     bce:	99 1f       	adc	r25, r25
     bd0:	84 0f       	add	r24, r20
     bd2:	95 1f       	adc	r25, r21
     bd4:	01 97       	sbiw	r24, 0x01	; 1
     bd6:	99 23       	and	r25, r25
     bd8:	0c f4       	brge	.+2      	; 0xbdc <_ZN12Adafruit_GFX8drawCharEiihjjh+0x94>
     bda:	a2 c0       	rjmp	.+324    	; 0xd20 <_ZN12Adafruit_GFX8drawCharEiihjjh+0x1d8>
     bdc:	30 e0       	ldi	r19, 0x00	; 0
     bde:	c9 01       	movw	r24, r18
     be0:	88 0f       	add	r24, r24
     be2:	99 1f       	adc	r25, r25
     be4:	88 0f       	add	r24, r24
     be6:	99 1f       	adc	r25, r25
     be8:	28 0f       	add	r18, r24
     bea:	39 1f       	adc	r19, r25
     bec:	13 01       	movw	r2, r6
     bee:	6e 83       	std	Y+6, r22	; 0x06
     bf0:	7f 83       	std	Y+7, r23	; 0x07
     bf2:	68 87       	std	Y+8, r22	; 0x08
     bf4:	79 87       	std	Y+9, r23	; 0x09
     bf6:	1a 86       	std	Y+10, r1	; 0x0a
     bf8:	28 59       	subi	r18, 0x98	; 152
     bfa:	3d 4f       	sbci	r19, 0xFD	; 253
     bfc:	f9 01       	movw	r30, r18
     bfe:	e6 1b       	sub	r30, r22
     c00:	f7 0b       	sbc	r31, r23
     c02:	ed 87       	std	Y+13, r30	; 0x0d
     c04:	fe 87       	std	Y+14, r31	; 0x0e
     c06:	4b 87       	std	Y+11, r20	; 0x0b
     c08:	5c 87       	std	Y+12, r21	; 0x0c
     c0a:	fa 85       	ldd	r31, Y+10	; 0x0a
     c0c:	f5 30       	cpi	r31, 0x05	; 5
     c0e:	09 f4       	brne	.+2      	; 0xc12 <_ZN12Adafruit_GFX8drawCharEiihjjh+0xca>
     c10:	77 c0       	rjmp	.+238    	; 0xd00 <_ZN12Adafruit_GFX8drawCharEiihjjh+0x1b8>
     c12:	ed 85       	ldd	r30, Y+13	; 0x0d
     c14:	fe 85       	ldd	r31, Y+14	; 0x0e
     c16:	2e 81       	ldd	r18, Y+6	; 0x06
     c18:	3f 81       	ldd	r19, Y+7	; 0x07
     c1a:	e2 0f       	add	r30, r18
     c1c:	f3 1f       	adc	r31, r19
     c1e:	04 91       	lpm	r16, Z
     c20:	70 c0       	rjmp	.+224    	; 0xd02 <_ZN12Adafruit_GFX8drawCharEiihjjh+0x1ba>
     c22:	90 fe       	sbrs	r9, 0
     c24:	25 c0       	rjmp	.+74     	; 0xc70 <_ZN12Adafruit_GFX8drawCharEiihjjh+0x128>
     c26:	3b 81       	ldd	r19, Y+3	; 0x03
     c28:	31 30       	cpi	r19, 0x01	; 1
     c2a:	81 f4       	brne	.+32     	; 0xc4c <_ZN12Adafruit_GFX8drawCharEiihjjh+0x104>
     c2c:	af 85       	ldd	r26, Y+15	; 0x0f
     c2e:	b8 89       	ldd	r27, Y+16	; 0x10
     c30:	ed 91       	ld	r30, X+
     c32:	fc 91       	ld	r31, X
     c34:	11 97       	sbiw	r26, 0x01	; 1
     c36:	01 90       	ld	r0, Z+
     c38:	f0 81       	ld	r31, Z
     c3a:	e0 2d       	mov	r30, r0
     c3c:	29 81       	ldd	r18, Y+1	; 0x01
     c3e:	3a 81       	ldd	r19, Y+2	; 0x02
     c40:	a5 01       	movw	r20, r10
     c42:	6e 81       	ldd	r22, Y+6	; 0x06
     c44:	7f 81       	ldd	r23, Y+7	; 0x07
     c46:	cd 01       	movw	r24, r26
     c48:	19 95       	eicall
     c4a:	3d c0       	rjmp	.+122    	; 0xcc6 <_ZN12Adafruit_GFX8drawCharEiihjjh+0x17e>
     c4c:	af 85       	ldd	r26, Y+15	; 0x0f
     c4e:	b8 89       	ldd	r27, Y+16	; 0x10
     c50:	ed 91       	ld	r30, X+
     c52:	fc 91       	ld	r31, X
     c54:	11 97       	sbiw	r26, 0x01	; 1
     c56:	02 84       	ldd	r0, Z+10	; 0x0a
     c58:	f3 85       	ldd	r31, Z+11	; 0x0b
     c5a:	e0 2d       	mov	r30, r0
     c5c:	e9 80       	ldd	r14, Y+1	; 0x01
     c5e:	fa 80       	ldd	r15, Y+2	; 0x02
     c60:	83 01       	movw	r16, r6
     c62:	93 01       	movw	r18, r6
     c64:	a6 01       	movw	r20, r12
     c66:	68 2d       	mov	r22, r8
     c68:	74 2d       	mov	r23, r4
     c6a:	cd 01       	movw	r24, r26
     c6c:	19 95       	eicall
     c6e:	2b c0       	rjmp	.+86     	; 0xcc6 <_ZN12Adafruit_GFX8drawCharEiihjjh+0x17e>
     c70:	ec 81       	ldd	r30, Y+4	; 0x04
     c72:	fd 81       	ldd	r31, Y+5	; 0x05
     c74:	29 81       	ldd	r18, Y+1	; 0x01
     c76:	3a 81       	ldd	r19, Y+2	; 0x02
     c78:	e2 17       	cp	r30, r18
     c7a:	f3 07       	cpc	r31, r19
     c7c:	21 f1       	breq	.+72     	; 0xcc6 <_ZN12Adafruit_GFX8drawCharEiihjjh+0x17e>
     c7e:	3b 81       	ldd	r19, Y+3	; 0x03
     c80:	31 30       	cpi	r19, 0x01	; 1
     c82:	81 f4       	brne	.+32     	; 0xca4 <_ZN12Adafruit_GFX8drawCharEiihjjh+0x15c>
     c84:	af 85       	ldd	r26, Y+15	; 0x0f
     c86:	b8 89       	ldd	r27, Y+16	; 0x10
     c88:	ed 91       	ld	r30, X+
     c8a:	fc 91       	ld	r31, X
     c8c:	11 97       	sbiw	r26, 0x01	; 1
     c8e:	01 90       	ld	r0, Z+
     c90:	f0 81       	ld	r31, Z
     c92:	e0 2d       	mov	r30, r0
     c94:	2c 81       	ldd	r18, Y+4	; 0x04
     c96:	3d 81       	ldd	r19, Y+5	; 0x05
     c98:	a5 01       	movw	r20, r10
     c9a:	6e 81       	ldd	r22, Y+6	; 0x06
     c9c:	7f 81       	ldd	r23, Y+7	; 0x07
     c9e:	cd 01       	movw	r24, r26
     ca0:	19 95       	eicall
     ca2:	11 c0       	rjmp	.+34     	; 0xcc6 <_ZN12Adafruit_GFX8drawCharEiihjjh+0x17e>
     ca4:	af 85       	ldd	r26, Y+15	; 0x0f
     ca6:	b8 89       	ldd	r27, Y+16	; 0x10
     ca8:	ed 91       	ld	r30, X+
     caa:	fc 91       	ld	r31, X
     cac:	11 97       	sbiw	r26, 0x01	; 1
     cae:	02 84       	ldd	r0, Z+10	; 0x0a
     cb0:	f3 85       	ldd	r31, Z+11	; 0x0b
     cb2:	e0 2d       	mov	r30, r0
     cb4:	ec 80       	ldd	r14, Y+4	; 0x04
     cb6:	fd 80       	ldd	r15, Y+5	; 0x05
     cb8:	83 01       	movw	r16, r6
     cba:	93 01       	movw	r18, r6
     cbc:	a6 01       	movw	r20, r12
     cbe:	68 2d       	mov	r22, r8
     cc0:	74 2d       	mov	r23, r4
     cc2:	cd 01       	movw	r24, r26
     cc4:	19 95       	eicall
     cc6:	96 94       	lsr	r9
     cc8:	5a 94       	dec	r5
     cca:	c2 0c       	add	r12, r2
     ccc:	d3 1c       	adc	r13, r3
     cce:	bf ef       	ldi	r27, 0xFF	; 255
     cd0:	ab 1a       	sub	r10, r27
     cd2:	bb 0a       	sbc	r11, r27
     cd4:	51 10       	cpse	r5, r1
     cd6:	a5 cf       	rjmp	.-182    	; 0xc22 <_ZN12Adafruit_GFX8drawCharEiihjjh+0xda>
     cd8:	8f 84       	ldd	r8, Y+15	; 0x0f
     cda:	98 88       	ldd	r9, Y+16	; 0x10
     cdc:	ea 85       	ldd	r30, Y+10	; 0x0a
     cde:	ef 5f       	subi	r30, 0xFF	; 255
     ce0:	ea 87       	std	Y+10, r30	; 0x0a
     ce2:	28 85       	ldd	r18, Y+8	; 0x08
     ce4:	39 85       	ldd	r19, Y+9	; 0x09
     ce6:	22 0d       	add	r18, r2
     ce8:	33 1d       	adc	r19, r3
     cea:	28 87       	std	Y+8, r18	; 0x08
     cec:	39 87       	std	Y+9, r19	; 0x09
     cee:	8e 81       	ldd	r24, Y+6	; 0x06
     cf0:	9f 81       	ldd	r25, Y+7	; 0x07
     cf2:	01 96       	adiw	r24, 0x01	; 1
     cf4:	8e 83       	std	Y+6, r24	; 0x06
     cf6:	9f 83       	std	Y+7, r25	; 0x07
     cf8:	e6 30       	cpi	r30, 0x06	; 6
     cfa:	09 f0       	breq	.+2      	; 0xcfe <_ZN12Adafruit_GFX8drawCharEiihjjh+0x1b6>
     cfc:	86 cf       	rjmp	.-244    	; 0xc0a <_ZN12Adafruit_GFX8drawCharEiihjjh+0xc2>
     cfe:	10 c0       	rjmp	.+32     	; 0xd20 <_ZN12Adafruit_GFX8drawCharEiihjjh+0x1d8>
     d00:	00 e0       	ldi	r16, 0x00	; 0
     d02:	18 85       	ldd	r17, Y+8	; 0x08
     d04:	49 84       	ldd	r4, Y+9	; 0x09
     d06:	cb 84       	ldd	r12, Y+11	; 0x0b
     d08:	dc 84       	ldd	r13, Y+12	; 0x0c
     d0a:	ac 2c       	mov	r10, r12
     d0c:	bd 2c       	mov	r11, r13
     d0e:	68 94       	set
     d10:	55 24       	eor	r5, r5
     d12:	53 f8       	bld	r5, 3
     d14:	c4 01       	movw	r24, r8
     d16:	90 2e       	mov	r9, r16
     d18:	81 2e       	mov	r8, r17
     d1a:	8f 87       	std	Y+15, r24	; 0x0f
     d1c:	98 8b       	std	Y+16, r25	; 0x10
     d1e:	81 cf       	rjmp	.-254    	; 0xc22 <_ZN12Adafruit_GFX8drawCharEiihjjh+0xda>
     d20:	60 96       	adiw	r28, 0x10	; 16
     d22:	cd bf       	out	0x3d, r28	; 61
     d24:	de bf       	out	0x3e, r29	; 62
     d26:	df 91       	pop	r29
     d28:	cf 91       	pop	r28
     d2a:	1f 91       	pop	r17
     d2c:	0f 91       	pop	r16
     d2e:	ff 90       	pop	r15
     d30:	ef 90       	pop	r14
     d32:	df 90       	pop	r13
     d34:	cf 90       	pop	r12
     d36:	bf 90       	pop	r11
     d38:	af 90       	pop	r10
     d3a:	9f 90       	pop	r9
     d3c:	8f 90       	pop	r8
     d3e:	7f 90       	pop	r7
     d40:	6f 90       	pop	r6
     d42:	5f 90       	pop	r5
     d44:	4f 90       	pop	r4
     d46:	3f 90       	pop	r3
     d48:	2f 90       	pop	r2
     d4a:	08 95       	ret

00000d4c <_ZN12Adafruit_GFX5writeEh>:
     d4c:	cf 92       	push	r12
     d4e:	ef 92       	push	r14
     d50:	ff 92       	push	r15
     d52:	0f 93       	push	r16
     d54:	1f 93       	push	r17
     d56:	cf 93       	push	r28
     d58:	df 93       	push	r29
     d5a:	ec 01       	movw	r28, r24
     d5c:	6a 30       	cpi	r22, 0x0A	; 10
     d5e:	79 f4       	brne	.+30     	; 0xd7e <_ZN12Adafruit_GFX5writeEh+0x32>
     d60:	2c 89       	ldd	r18, Y+20	; 0x14
     d62:	8c 85       	ldd	r24, Y+12	; 0x0c
     d64:	9d 85       	ldd	r25, Y+13	; 0x0d
     d66:	38 e0       	ldi	r19, 0x08	; 8
     d68:	23 9f       	mul	r18, r19
     d6a:	80 0d       	add	r24, r0
     d6c:	91 1d       	adc	r25, r1
     d6e:	11 24       	eor	r1, r1
     d70:	8c 87       	std	Y+12, r24	; 0x0c
     d72:	9d 87       	std	Y+13, r25	; 0x0d
     d74:	8e 85       	ldd	r24, Y+14	; 0x0e
     d76:	9f 85       	ldd	r25, Y+15	; 0x0f
     d78:	8a 87       	std	Y+10, r24	; 0x0a
     d7a:	9b 87       	std	Y+11, r25	; 0x0b
     d7c:	3c c0       	rjmp	.+120    	; 0xdf6 <_ZN12Adafruit_GFX5writeEh+0xaa>
     d7e:	6d 30       	cpi	r22, 0x0D	; 13
     d80:	d1 f1       	breq	.+116    	; 0xdf6 <_ZN12Adafruit_GFX5writeEh+0xaa>
     d82:	ea 88       	ldd	r14, Y+18	; 0x12
     d84:	fb 88       	ldd	r15, Y+19	; 0x13
     d86:	08 89       	ldd	r16, Y+16	; 0x10
     d88:	19 89       	ldd	r17, Y+17	; 0x11
     d8a:	4c 85       	ldd	r20, Y+12	; 0x0c
     d8c:	5d 85       	ldd	r21, Y+13	; 0x0d
     d8e:	8a 85       	ldd	r24, Y+10	; 0x0a
     d90:	9b 85       	ldd	r25, Y+11	; 0x0b
     d92:	cc 88       	ldd	r12, Y+20	; 0x14
     d94:	26 2f       	mov	r18, r22
     d96:	bc 01       	movw	r22, r24
     d98:	ce 01       	movw	r24, r28
     d9a:	d6 de       	rcall	.-596    	; 0xb48 <_ZN12Adafruit_GFX8drawCharEiihjjh>
     d9c:	2c 89       	ldd	r18, Y+20	; 0x14
     d9e:	30 e0       	ldi	r19, 0x00	; 0
     da0:	c9 01       	movw	r24, r18
     da2:	88 0f       	add	r24, r24
     da4:	99 1f       	adc	r25, r25
     da6:	82 0f       	add	r24, r18
     da8:	93 1f       	adc	r25, r19
     daa:	88 0f       	add	r24, r24
     dac:	99 1f       	adc	r25, r25
     dae:	4a 85       	ldd	r20, Y+10	; 0x0a
     db0:	5b 85       	ldd	r21, Y+11	; 0x0b
     db2:	84 0f       	add	r24, r20
     db4:	95 1f       	adc	r25, r21
     db6:	8a 87       	std	Y+10, r24	; 0x0a
     db8:	9b 87       	std	Y+11, r25	; 0x0b
     dba:	4e 89       	ldd	r20, Y+22	; 0x16
     dbc:	44 23       	and	r20, r20
     dbe:	d9 f0       	breq	.+54     	; 0xdf6 <_ZN12Adafruit_GFX5writeEh+0xaa>
     dc0:	4a ef       	ldi	r20, 0xFA	; 250
     dc2:	42 03       	mulsu	r20, r18
     dc4:	b0 01       	movw	r22, r0
     dc6:	43 9f       	mul	r20, r19
     dc8:	70 0d       	add	r23, r0
     dca:	11 24       	eor	r1, r1
     dcc:	4e 81       	ldd	r20, Y+6	; 0x06
     dce:	5f 81       	ldd	r21, Y+7	; 0x07
     dd0:	46 0f       	add	r20, r22
     dd2:	57 1f       	adc	r21, r23
     dd4:	48 17       	cp	r20, r24
     dd6:	59 07       	cpc	r21, r25
     dd8:	74 f4       	brge	.+28     	; 0xdf6 <_ZN12Adafruit_GFX5writeEh+0xaa>
     dda:	22 0f       	add	r18, r18
     ddc:	33 1f       	adc	r19, r19
     dde:	22 0f       	add	r18, r18
     de0:	33 1f       	adc	r19, r19
     de2:	22 0f       	add	r18, r18
     de4:	33 1f       	adc	r19, r19
     de6:	8c 85       	ldd	r24, Y+12	; 0x0c
     de8:	9d 85       	ldd	r25, Y+13	; 0x0d
     dea:	28 0f       	add	r18, r24
     dec:	39 1f       	adc	r19, r25
     dee:	2c 87       	std	Y+12, r18	; 0x0c
     df0:	3d 87       	std	Y+13, r19	; 0x0d
     df2:	1a 86       	std	Y+10, r1	; 0x0a
     df4:	1b 86       	std	Y+11, r1	; 0x0b
     df6:	df 91       	pop	r29
     df8:	cf 91       	pop	r28
     dfa:	1f 91       	pop	r17
     dfc:	0f 91       	pop	r16
     dfe:	ff 90       	pop	r15
     e00:	ef 90       	pop	r14
     e02:	cf 90       	pop	r12
     e04:	08 95       	ret

00000e06 <_ZN12Adafruit_GFX9setCursorEii>:
     e06:	fc 01       	movw	r30, r24
     e08:	62 87       	std	Z+10, r22	; 0x0a
     e0a:	73 87       	std	Z+11, r23	; 0x0b
     e0c:	44 87       	std	Z+12, r20	; 0x0c
     e0e:	55 87       	std	Z+13, r21	; 0x0d
     e10:	66 87       	std	Z+14, r22	; 0x0e
     e12:	77 87       	std	Z+15, r23	; 0x0f
     e14:	08 95       	ret

00000e16 <_ZN12Adafruit_GFX11setTextSizeEh>:
     e16:	61 11       	cpse	r22, r1
     e18:	01 c0       	rjmp	.+2      	; 0xe1c <_ZN12Adafruit_GFX11setTextSizeEh+0x6>
     e1a:	61 e0       	ldi	r22, 0x01	; 1
     e1c:	fc 01       	movw	r30, r24
     e1e:	64 8b       	std	Z+20, r22	; 0x14
     e20:	08 95       	ret

00000e22 <_ZN12Adafruit_GFX12setTextColorEjj>:
     e22:	fc 01       	movw	r30, r24
     e24:	60 8b       	std	Z+16, r22	; 0x10
     e26:	71 8b       	std	Z+17, r23	; 0x11
     e28:	42 8b       	std	Z+18, r20	; 0x12
     e2a:	53 8b       	std	Z+19, r21	; 0x13
     e2c:	08 95       	ret

00000e2e <_ZN12Adafruit_GFX11setTextWrapEb>:
     e2e:	fc 01       	movw	r30, r24
     e30:	66 8b       	std	Z+22, r22	; 0x16
     e32:	08 95       	ret

00000e34 <_ZN12Adafruit_GFX11setRotationEh>:

void Adafruit_GFX::setRotation(uint8_t x) {
     e34:	fc 01       	movw	r30, r24
  rotation = (x & 3);
     e36:	63 70       	andi	r22, 0x03	; 3
     e38:	65 8b       	std	Z+21, r22	; 0x15
  switch(rotation) {
     e3a:	61 30       	cpi	r22, 0x01	; 1
     e3c:	79 f0       	breq	.+30     	; 0xe5c <_ZN12Adafruit_GFX11setRotationEh+0x28>
     e3e:	28 f0       	brcs	.+10     	; 0xe4a <_ZN12Adafruit_GFX11setRotationEh+0x16>
     e40:	62 30       	cpi	r22, 0x02	; 2
     e42:	19 f0       	breq	.+6      	; 0xe4a <_ZN12Adafruit_GFX11setRotationEh+0x16>
     e44:	63 30       	cpi	r22, 0x03	; 3
     e46:	91 f4       	brne	.+36     	; 0xe6c <_ZN12Adafruit_GFX11setRotationEh+0x38>
     e48:	09 c0       	rjmp	.+18     	; 0xe5c <_ZN12Adafruit_GFX11setRotationEh+0x28>
   case 0:
   case 2:
    _width  = WIDTH;
     e4a:	82 81       	ldd	r24, Z+2	; 0x02
     e4c:	93 81       	ldd	r25, Z+3	; 0x03
     e4e:	86 83       	std	Z+6, r24	; 0x06
     e50:	97 83       	std	Z+7, r25	; 0x07
    _height = HEIGHT;
     e52:	84 81       	ldd	r24, Z+4	; 0x04
     e54:	95 81       	ldd	r25, Z+5	; 0x05
     e56:	80 87       	std	Z+8, r24	; 0x08
     e58:	91 87       	std	Z+9, r25	; 0x09
    break;
     e5a:	08 95       	ret
   case 1:
   case 3:
    _width  = HEIGHT;
     e5c:	84 81       	ldd	r24, Z+4	; 0x04
     e5e:	95 81       	ldd	r25, Z+5	; 0x05
     e60:	86 83       	std	Z+6, r24	; 0x06
     e62:	97 83       	std	Z+7, r25	; 0x07
    _height = WIDTH;
     e64:	82 81       	ldd	r24, Z+2	; 0x02
     e66:	93 81       	ldd	r25, Z+3	; 0x03
     e68:	80 87       	std	Z+8, r24	; 0x08
     e6a:	91 87       	std	Z+9, r25	; 0x09
     e6c:	08 95       	ret

00000e6e <_ZN5BTOBDC1Ev>:
	return driver.rxIsEmpty();
}

char BTOBD::rxDequeue() {
	return driver.rxDequeue();
}
     e6e:	cf 92       	push	r12
     e70:	ef 92       	push	r14
     e72:	0f 93       	push	r16
     e74:	cf 93       	push	r28
     e76:	df 93       	push	r29
     e78:	ec 01       	movw	r28, r24
     e7a:	40 e8       	ldi	r20, 0x80	; 128
     e7c:	50 e0       	ldi	r21, 0x00	; 0
     e7e:	60 e8       	ldi	r22, 0x80	; 128
     e80:	70 e0       	ldi	r23, 0x00	; 0
     e82:	0e 94 68 3c 	call	0x78d0	; 0x78d0 <_ZN10UartDriverC1Eii>
     e86:	8d e0       	ldi	r24, 0x0D	; 13
     e88:	e6 e0       	ldi	r30, 0x06	; 6
     e8a:	f0 e2       	ldi	r31, 0x20	; 32
     e8c:	de 01       	movw	r26, r28
     e8e:	98 96       	adiw	r26, 0x28	; 40
     e90:	01 90       	ld	r0, Z+
     e92:	0d 92       	st	X+, r0
     e94:	8a 95       	dec	r24
     e96:	e1 f7       	brne	.-8      	; 0xe90 <_ZN5BTOBDC1Ev+0x22>
     e98:	8d e0       	ldi	r24, 0x0D	; 13
     e9a:	e3 e1       	ldi	r30, 0x13	; 19
     e9c:	f0 e2       	ldi	r31, 0x20	; 32
     e9e:	de 01       	movw	r26, r28
     ea0:	d5 96       	adiw	r26, 0x35	; 53
     ea2:	01 90       	ld	r0, Z+
     ea4:	0d 92       	st	X+, r0
     ea6:	8a 95       	dec	r24
     ea8:	e1 f7       	brne	.-8      	; 0xea2 <_ZN5BTOBDC1Ev+0x34>
     eaa:	fe 01       	movw	r30, r28
     eac:	ee 5b       	subi	r30, 0xBE	; 190
     eae:	ff 4f       	sbci	r31, 0xFF	; 255
     eb0:	10 82       	st	Z, r1
     eb2:	31 96       	adiw	r30, 0x01	; 1
     eb4:	81 e0       	ldi	r24, 0x01	; 1
     eb6:	80 83       	st	Z, r24
     eb8:	31 96       	adiw	r30, 0x01	; 1
     eba:	82 e0       	ldi	r24, 0x02	; 2
     ebc:	80 83       	st	Z, r24
     ebe:	31 96       	adiw	r30, 0x01	; 1
     ec0:	86 e0       	ldi	r24, 0x06	; 6
     ec2:	80 83       	st	Z, r24
     ec4:	0f 2e       	mov	r0, r31
     ec6:	f0 ef       	ldi	r31, 0xF0	; 240
     ec8:	cf 2e       	mov	r12, r31
     eca:	f0 2d       	mov	r31, r0
     ecc:	0f 2e       	mov	r0, r31
     ece:	f1 e2       	ldi	r31, 0x21	; 33
     ed0:	ef 2e       	mov	r14, r31
     ed2:	f0 2d       	mov	r31, r0
     ed4:	00 e0       	ldi	r16, 0x00	; 0
     ed6:	23 e0       	ldi	r18, 0x03	; 3
     ed8:	40 e0       	ldi	r20, 0x00	; 0
     eda:	60 ea       	ldi	r22, 0xA0	; 160
     edc:	79 e0       	ldi	r23, 0x09	; 9
     ede:	ce 01       	movw	r24, r28
     ee0:	0e 94 7f 3c 	call	0x78fe	; 0x78fe <_ZN10UartDriver4initEP12USART_structN10ParityMode5PMODEEN8CharSize6CHSIZEEbcc>
     ee4:	fe 01       	movw	r30, r28
     ee6:	e6 59       	subi	r30, 0x96	; 150
     ee8:	ff 4f       	sbci	r31, 0xFF	; 255
     eea:	10 82       	st	Z, r1
     eec:	1e a2       	std	Y+38, r1	; 0x26
     eee:	1f a2       	std	Y+39, r1	; 0x27
     ef0:	31 96       	adiw	r30, 0x01	; 1
     ef2:	10 82       	st	Z, r1
     ef4:	35 97       	sbiw	r30, 0x05	; 5
     ef6:	8f ef       	ldi	r24, 0xFF	; 255
     ef8:	80 83       	st	Z, r24
     efa:	b0 97       	sbiw	r30, 0x20	; 32
     efc:	20 e0       	ldi	r18, 0x00	; 0
     efe:	30 e0       	ldi	r19, 0x00	; 0
     f00:	80 e3       	ldi	r24, 0x30	; 48
     f02:	81 93       	st	Z+, r24
     f04:	2f 5f       	subi	r18, 0xFF	; 255
     f06:	3f 4f       	sbci	r19, 0xFF	; 255
     f08:	24 32       	cpi	r18, 0x24	; 36
     f0a:	31 05       	cpc	r19, r1
     f0c:	d1 f7       	brne	.-12     	; 0xf02 <_ZN5BTOBDC1Ev+0x94>
     f0e:	df 91       	pop	r29
     f10:	cf 91       	pop	r28
     f12:	0f 91       	pop	r16
     f14:	ef 90       	pop	r14
     f16:	cf 90       	pop	r12
     f18:	08 95       	ret

00000f1a <_ZN5BTOBD4dumpEP3FIL>:
     f1a:	0c 94 7b 3c 	jmp	0x78f6	; 0x78f6 <_ZN10UartDriver4dumpEP3FIL>
     f1e:	08 95       	ret

00000f20 <_ZN5BTOBD13interceptByteEv>:
     f20:	1f 93       	push	r17
     f22:	cf 93       	push	r28
     f24:	df 93       	push	r29
     f26:	ec 01       	movw	r28, r24
     f28:	0e 94 12 3d 	call	0x7a24	; 0x7a24 <_ZN10UartDriver11getUARTPortEv>
     f2c:	fc 01       	movw	r30, r24
     f2e:	10 81       	ld	r17, Z
     f30:	61 2f       	mov	r22, r17
     f32:	ce 01       	movw	r24, r28
     f34:	0e 94 fe 3c 	call	0x79fc	; 0x79fc <_ZN10UartDriver7rcvByteEc>
     f38:	1e 33       	cpi	r17, 0x3E	; 62
     f3a:	29 f4       	brne	.+10     	; 0xf46 <_ZN5BTOBD13interceptByteEv+0x26>
     f3c:	c6 59       	subi	r28, 0x96	; 150
     f3e:	df 4f       	sbci	r29, 0xFF	; 255
     f40:	88 81       	ld	r24, Y
     f42:	8f 5f       	subi	r24, 0xFF	; 255
     f44:	88 83       	st	Y, r24
     f46:	81 2f       	mov	r24, r17
     f48:	df 91       	pop	r29
     f4a:	cf 91       	pop	r28
     f4c:	1f 91       	pop	r17
     f4e:	08 95       	ret

00000f50 <_ZN5BTOBD9handleDREEv>:
     f50:	0f 93       	push	r16
     f52:	1f 93       	push	r17
     f54:	cf 93       	push	r28
     f56:	df 93       	push	r29
     f58:	ec 01       	movw	r28, r24
     f5a:	0e 94 0a 3d 	call	0x7a14	; 0x7a14 <_ZN10UartDriver9txIsEmptyEv>
     f5e:	81 11       	cpse	r24, r1
     f60:	0a c0       	rjmp	.+20     	; 0xf76 <_ZN5BTOBD9handleDREEv+0x26>
     f62:	ce 01       	movw	r24, r28
     f64:	0e 94 12 3d 	call	0x7a24	; 0x7a24 <_ZN10UartDriver11getUARTPortEv>
     f68:	8c 01       	movw	r16, r24
     f6a:	ce 01       	movw	r24, r28
     f6c:	0e 94 0e 3d 	call	0x7a1c	; 0x7a1c <_ZN10UartDriver9txDequeueEv>
     f70:	f8 01       	movw	r30, r16
     f72:	80 83       	st	Z, r24
     f74:	07 c0       	rjmp	.+14     	; 0xf84 <_ZN5BTOBD9handleDREEv+0x34>
     f76:	ce 01       	movw	r24, r28
     f78:	0e 94 12 3d 	call	0x7a24	; 0x7a24 <_ZN10UartDriver11getUARTPortEv>
     f7c:	fc 01       	movw	r30, r24
     f7e:	23 81       	ldd	r18, Z+3	; 0x03
     f80:	2c 7f       	andi	r18, 0xFC	; 252
     f82:	23 83       	std	Z+3, r18	; 0x03
     f84:	df 91       	pop	r29
     f86:	cf 91       	pop	r28
     f88:	1f 91       	pop	r17
     f8a:	0f 91       	pop	r16
     f8c:	08 95       	ret

00000f8e <_ZN5BTOBD14waitForNewlineEP10LCD_Driver>:
     f8e:	ff 92       	push	r15
     f90:	0f 93       	push	r16
     f92:	1f 93       	push	r17
     f94:	cf 93       	push	r28
     f96:	df 93       	push	r29
     f98:	ec 01       	movw	r28, r24
     f9a:	8b 01       	movw	r16, r22
     f9c:	ce 01       	movw	r24, r28
     f9e:	0e 94 06 3d 	call	0x7a0c	; 0x7a0c <_ZN10UartDriver9rxIsEmptyEv>
     fa2:	81 11       	cpse	r24, r1
     fa4:	10 c0       	rjmp	.+32     	; 0xfc6 <_ZN5BTOBD14waitForNewlineEP10LCD_Driver+0x38>
     fa6:	ce 01       	movw	r24, r28
     fa8:	0e 94 02 3d 	call	0x7a04	; 0x7a04 <_ZN10UartDriver9rxDequeueEv>
     fac:	f8 2e       	mov	r15, r24
     fae:	d8 01       	movw	r26, r16
     fb0:	ed 91       	ld	r30, X+
     fb2:	fc 91       	ld	r31, X
     fb4:	00 88       	ldd	r0, Z+16	; 0x10
     fb6:	f1 89       	ldd	r31, Z+17	; 0x11
     fb8:	e0 2d       	mov	r30, r0
     fba:	68 2f       	mov	r22, r24
     fbc:	c8 01       	movw	r24, r16
     fbe:	19 95       	eicall
     fc0:	ba e0       	ldi	r27, 0x0A	; 10
     fc2:	fb 16       	cp	r15, r27
     fc4:	11 f0       	breq	.+4      	; 0xfca <_ZN5BTOBD14waitForNewlineEP10LCD_Driver+0x3c>
     fc6:	00 00       	nop
     fc8:	e9 cf       	rjmp	.-46     	; 0xf9c <_ZN5BTOBD14waitForNewlineEP10LCD_Driver+0xe>
     fca:	df 91       	pop	r29
     fcc:	cf 91       	pop	r28
     fce:	1f 91       	pop	r17
     fd0:	0f 91       	pop	r16
     fd2:	ff 90       	pop	r15
     fd4:	08 95       	ret

00000fd6 <_ZN5BTOBD13waitForPromptEP10LCD_Driver>:
     fd6:	ff 92       	push	r15
     fd8:	0f 93       	push	r16
     fda:	1f 93       	push	r17
     fdc:	cf 93       	push	r28
     fde:	df 93       	push	r29
     fe0:	8b 01       	movw	r16, r22
     fe2:	ec 01       	movw	r28, r24
     fe4:	ce 01       	movw	r24, r28
     fe6:	0e 94 06 3d 	call	0x7a0c	; 0x7a0c <_ZN10UartDriver9rxIsEmptyEv>
     fea:	81 11       	cpse	r24, r1
     fec:	fb cf       	rjmp	.-10     	; 0xfe4 <_ZN5BTOBD13waitForPromptEP10LCD_Driver+0xe>
     fee:	ce 01       	movw	r24, r28
     ff0:	0e 94 02 3d 	call	0x7a04	; 0x7a04 <_ZN10UartDriver9rxDequeueEv>
     ff4:	f8 2e       	mov	r15, r24
     ff6:	d8 01       	movw	r26, r16
     ff8:	ed 91       	ld	r30, X+
     ffa:	fc 91       	ld	r31, X
     ffc:	00 88       	ldd	r0, Z+16	; 0x10
     ffe:	f1 89       	ldd	r31, Z+17	; 0x11
    1000:	e0 2d       	mov	r30, r0
    1002:	68 2f       	mov	r22, r24
    1004:	c8 01       	movw	r24, r16
    1006:	19 95       	eicall
    1008:	be e3       	ldi	r27, 0x3E	; 62
    100a:	fb 12       	cpse	r15, r27
    100c:	eb cf       	rjmp	.-42     	; 0xfe4 <_ZN5BTOBD13waitForPromptEP10LCD_Driver+0xe>
    100e:	df 91       	pop	r29
    1010:	cf 91       	pop	r28
    1012:	1f 91       	pop	r17
    1014:	0f 91       	pop	r16
    1016:	ff 90       	pop	r15
    1018:	08 95       	ret

0000101a <_ZN5BTOBD7sendCmdEN7OBDCMDS3CMDE>:
    101a:	cf 92       	push	r12
    101c:	df 92       	push	r13
    101e:	ef 92       	push	r14
    1020:	ff 92       	push	r15
    1022:	0f 93       	push	r16
    1024:	1f 93       	push	r17
    1026:	cf 93       	push	r28
    1028:	df 93       	push	r29
    102a:	ec 01       	movw	r28, r24
    102c:	fc 01       	movw	r30, r24
    102e:	e9 59       	subi	r30, 0x99	; 153
    1030:	ff 4f       	sbci	r31, 0xFF	; 255
    1032:	60 83       	st	Z, r22
    1034:	46 2f       	mov	r20, r22
    1036:	50 e0       	ldi	r21, 0x00	; 0
    1038:	40 32       	cpi	r20, 0x20	; 32
    103a:	51 05       	cpc	r21, r1
    103c:	08 f0       	brcs	.+2      	; 0x1040 <_ZN5BTOBD7sendCmdEN7OBDCMDS3CMDE+0x26>
    103e:	6b c3       	rjmp	.+1750   	; 0x1716 <_ZN5BTOBD7sendCmdEN7OBDCMDS3CMDE+0x6fc>
    1040:	fa 01       	movw	r30, r20
    1042:	e2 50       	subi	r30, 0x02	; 2
    1044:	ff 4f       	sbci	r31, 0xFF	; 255
    1046:	0c 94 5e 3e 	jmp	0x7cbc	; 0x7cbc <__tablejump2__>
    104a:	64 e2       	ldi	r22, 0x24	; 36
    104c:	0e 94 e8 3c 	call	0x79d0	; 0x79d0 <_ZN10UartDriver8sendByteEc>
    1050:	64 e2       	ldi	r22, 0x24	; 36
    1052:	ce 01       	movw	r24, r28
    1054:	0e 94 e8 3c 	call	0x79d0	; 0x79d0 <_ZN10UartDriver8sendByteEc>
    1058:	64 e2       	ldi	r22, 0x24	; 36
    105a:	ce 01       	movw	r24, r28
    105c:	0e 94 e8 3c 	call	0x79d0	; 0x79d0 <_ZN10UartDriver8sendByteEc>
    1060:	5a c3       	rjmp	.+1716   	; 0x1716 <_ZN5BTOBD7sendCmdEN7OBDCMDS3CMDE+0x6fc>
    1062:	6d e2       	ldi	r22, 0x2D	; 45
    1064:	0e 94 e8 3c 	call	0x79d0	; 0x79d0 <_ZN10UartDriver8sendByteEc>
    1068:	6d e2       	ldi	r22, 0x2D	; 45
    106a:	ce 01       	movw	r24, r28
    106c:	0e 94 e8 3c 	call	0x79d0	; 0x79d0 <_ZN10UartDriver8sendByteEc>
    1070:	6d e2       	ldi	r22, 0x2D	; 45
    1072:	ce 01       	movw	r24, r28
    1074:	0e 94 e8 3c 	call	0x79d0	; 0x79d0 <_ZN10UartDriver8sendByteEc>
    1078:	6a e0       	ldi	r22, 0x0A	; 10
    107a:	ce 01       	movw	r24, r28
    107c:	0e 94 e8 3c 	call	0x79d0	; 0x79d0 <_ZN10UartDriver8sendByteEc>
    1080:	4a c3       	rjmp	.+1684   	; 0x1716 <_ZN5BTOBD7sendCmdEN7OBDCMDS3CMDE+0x6fc>
    1082:	c8 2e       	mov	r12, r24
    1084:	dd 2e       	mov	r13, r29
    1086:	63 e4       	ldi	r22, 0x43	; 67
    1088:	0e 94 e8 3c 	call	0x79d0	; 0x79d0 <_ZN10UartDriver8sendByteEc>
    108c:	6c e2       	ldi	r22, 0x2C	; 44
    108e:	ce 01       	movw	r24, r28
    1090:	0e 94 e8 3c 	call	0x79d0	; 0x79d0 <_ZN10UartDriver8sendByteEc>
    1094:	7e 01       	movw	r14, r28
    1096:	8a e1       	ldi	r24, 0x1A	; 26
    1098:	e8 0e       	add	r14, r24
    109a:	f1 1c       	adc	r15, r1
    109c:	00 e0       	ldi	r16, 0x00	; 0
    109e:	10 e0       	ldi	r17, 0x00	; 0
    10a0:	f7 01       	movw	r30, r14
    10a2:	61 91       	ld	r22, Z+
    10a4:	7f 01       	movw	r14, r30
    10a6:	8c 2d       	mov	r24, r12
    10a8:	9d 2d       	mov	r25, r13
    10aa:	0e 94 e8 3c 	call	0x79d0	; 0x79d0 <_ZN10UartDriver8sendByteEc>
    10ae:	0f 5f       	subi	r16, 0xFF	; 255
    10b0:	1f 4f       	sbci	r17, 0xFF	; 255
    10b2:	0c 30       	cpi	r16, 0x0C	; 12
    10b4:	11 05       	cpc	r17, r1
    10b6:	a1 f7       	brne	.-24     	; 0x10a0 <_ZN5BTOBD7sendCmdEN7OBDCMDS3CMDE+0x86>
    10b8:	6a e0       	ldi	r22, 0x0A	; 10
    10ba:	ce 01       	movw	r24, r28
    10bc:	0e 94 e8 3c 	call	0x79d0	; 0x79d0 <_ZN10UartDriver8sendByteEc>
    10c0:	2a c3       	rjmp	.+1620   	; 0x1716 <_ZN5BTOBD7sendCmdEN7OBDCMDS3CMDE+0x6fc>
    10c2:	69 e4       	ldi	r22, 0x49	; 73
    10c4:	0e 94 e8 3c 	call	0x79d0	; 0x79d0 <_ZN10UartDriver8sendByteEc>
    10c8:	6a e0       	ldi	r22, 0x0A	; 10
    10ca:	ce 01       	movw	r24, r28
    10cc:	0e 94 e8 3c 	call	0x79d0	; 0x79d0 <_ZN10UartDriver8sendByteEc>
    10d0:	22 c3       	rjmp	.+1604   	; 0x1716 <_ZN5BTOBD7sendCmdEN7OBDCMDS3CMDE+0x6fc>
    10d2:	67 e4       	ldi	r22, 0x47	; 71
    10d4:	0e 94 e8 3c 	call	0x79d0	; 0x79d0 <_ZN10UartDriver8sendByteEc>
    10d8:	6b e4       	ldi	r22, 0x4B	; 75
    10da:	ce 01       	movw	r24, r28
    10dc:	0e 94 e8 3c 	call	0x79d0	; 0x79d0 <_ZN10UartDriver8sendByteEc>
    10e0:	6a e0       	ldi	r22, 0x0A	; 10
    10e2:	ce 01       	movw	r24, r28
    10e4:	0e 94 e8 3c 	call	0x79d0	; 0x79d0 <_ZN10UartDriver8sendByteEc>
    10e8:	16 c3       	rjmp	.+1580   	; 0x1716 <_ZN5BTOBD7sendCmdEN7OBDCMDS3CMDE+0x6fc>
    10ea:	63 e5       	ldi	r22, 0x53	; 83
    10ec:	0e 94 e8 3c 	call	0x79d0	; 0x79d0 <_ZN10UartDriver8sendByteEc>
    10f0:	66 e4       	ldi	r22, 0x46	; 70
    10f2:	ce 01       	movw	r24, r28
    10f4:	0e 94 e8 3c 	call	0x79d0	; 0x79d0 <_ZN10UartDriver8sendByteEc>
    10f8:	6c e2       	ldi	r22, 0x2C	; 44
    10fa:	ce 01       	movw	r24, r28
    10fc:	0e 94 e8 3c 	call	0x79d0	; 0x79d0 <_ZN10UartDriver8sendByteEc>
    1100:	61 e3       	ldi	r22, 0x31	; 49
    1102:	ce 01       	movw	r24, r28
    1104:	0e 94 e8 3c 	call	0x79d0	; 0x79d0 <_ZN10UartDriver8sendByteEc>
    1108:	6a e0       	ldi	r22, 0x0A	; 10
    110a:	ce 01       	movw	r24, r28
    110c:	0e 94 e8 3c 	call	0x79d0	; 0x79d0 <_ZN10UartDriver8sendByteEc>
    1110:	02 c3       	rjmp	.+1540   	; 0x1716 <_ZN5BTOBD7sendCmdEN7OBDCMDS3CMDE+0x6fc>
    1112:	62 e5       	ldi	r22, 0x52	; 82
    1114:	0e 94 e8 3c 	call	0x79d0	; 0x79d0 <_ZN10UartDriver8sendByteEc>
    1118:	6c e2       	ldi	r22, 0x2C	; 44
    111a:	ce 01       	movw	r24, r28
    111c:	0e 94 e8 3c 	call	0x79d0	; 0x79d0 <_ZN10UartDriver8sendByteEc>
    1120:	61 e3       	ldi	r22, 0x31	; 49
    1122:	ce 01       	movw	r24, r28
    1124:	0e 94 e8 3c 	call	0x79d0	; 0x79d0 <_ZN10UartDriver8sendByteEc>
    1128:	6a e0       	ldi	r22, 0x0A	; 10
    112a:	ce 01       	movw	r24, r28
    112c:	0e 94 e8 3c 	call	0x79d0	; 0x79d0 <_ZN10UartDriver8sendByteEc>
    1130:	61 e4       	ldi	r22, 0x41	; 65
    1132:	ce 01       	movw	r24, r28
    1134:	0e 94 e8 3c 	call	0x79d0	; 0x79d0 <_ZN10UartDriver8sendByteEc>
    1138:	64 e5       	ldi	r22, 0x54	; 84
    113a:	ce 01       	movw	r24, r28
    113c:	0e 94 e8 3c 	call	0x79d0	; 0x79d0 <_ZN10UartDriver8sendByteEc>
    1140:	69 e4       	ldi	r22, 0x49	; 73
    1142:	ce 01       	movw	r24, r28
    1144:	0e 94 e8 3c 	call	0x79d0	; 0x79d0 <_ZN10UartDriver8sendByteEc>
    1148:	6d e0       	ldi	r22, 0x0D	; 13
    114a:	ce 01       	movw	r24, r28
    114c:	0e 94 e8 3c 	call	0x79d0	; 0x79d0 <_ZN10UartDriver8sendByteEc>
    1150:	6a e0       	ldi	r22, 0x0A	; 10
    1152:	ce 01       	movw	r24, r28
    1154:	0e 94 e8 3c 	call	0x79d0	; 0x79d0 <_ZN10UartDriver8sendByteEc>
    1158:	de c2       	rjmp	.+1468   	; 0x1716 <_ZN5BTOBD7sendCmdEN7OBDCMDS3CMDE+0x6fc>
    115a:	61 e4       	ldi	r22, 0x41	; 65
    115c:	0e 94 e8 3c 	call	0x79d0	; 0x79d0 <_ZN10UartDriver8sendByteEc>
    1160:	64 e5       	ldi	r22, 0x54	; 84
    1162:	ce 01       	movw	r24, r28
    1164:	0e 94 e8 3c 	call	0x79d0	; 0x79d0 <_ZN10UartDriver8sendByteEc>
    1168:	6a e5       	ldi	r22, 0x5A	; 90
    116a:	ce 01       	movw	r24, r28
    116c:	0e 94 e8 3c 	call	0x79d0	; 0x79d0 <_ZN10UartDriver8sendByteEc>
    1170:	6d e0       	ldi	r22, 0x0D	; 13
    1172:	ce 01       	movw	r24, r28
    1174:	0e 94 e8 3c 	call	0x79d0	; 0x79d0 <_ZN10UartDriver8sendByteEc>
    1178:	6a e0       	ldi	r22, 0x0A	; 10
    117a:	ce 01       	movw	r24, r28
    117c:	0e 94 e8 3c 	call	0x79d0	; 0x79d0 <_ZN10UartDriver8sendByteEc>
    1180:	ca c2       	rjmp	.+1428   	; 0x1716 <_ZN5BTOBD7sendCmdEN7OBDCMDS3CMDE+0x6fc>
    1182:	61 e4       	ldi	r22, 0x41	; 65
    1184:	0e 94 e8 3c 	call	0x79d0	; 0x79d0 <_ZN10UartDriver8sendByteEc>
    1188:	64 e5       	ldi	r22, 0x54	; 84
    118a:	ce 01       	movw	r24, r28
    118c:	0e 94 e8 3c 	call	0x79d0	; 0x79d0 <_ZN10UartDriver8sendByteEc>
    1190:	65 e4       	ldi	r22, 0x45	; 69
    1192:	ce 01       	movw	r24, r28
    1194:	0e 94 e8 3c 	call	0x79d0	; 0x79d0 <_ZN10UartDriver8sendByteEc>
    1198:	60 e3       	ldi	r22, 0x30	; 48
    119a:	ce 01       	movw	r24, r28
    119c:	0e 94 e8 3c 	call	0x79d0	; 0x79d0 <_ZN10UartDriver8sendByteEc>
    11a0:	6d e0       	ldi	r22, 0x0D	; 13
    11a2:	ce 01       	movw	r24, r28
    11a4:	0e 94 e8 3c 	call	0x79d0	; 0x79d0 <_ZN10UartDriver8sendByteEc>
    11a8:	6a e0       	ldi	r22, 0x0A	; 10
    11aa:	ce 01       	movw	r24, r28
    11ac:	0e 94 e8 3c 	call	0x79d0	; 0x79d0 <_ZN10UartDriver8sendByteEc>
    11b0:	b2 c2       	rjmp	.+1380   	; 0x1716 <_ZN5BTOBD7sendCmdEN7OBDCMDS3CMDE+0x6fc>
    11b2:	61 e4       	ldi	r22, 0x41	; 65
    11b4:	0e 94 e8 3c 	call	0x79d0	; 0x79d0 <_ZN10UartDriver8sendByteEc>
    11b8:	64 e5       	ldi	r22, 0x54	; 84
    11ba:	ce 01       	movw	r24, r28
    11bc:	0e 94 e8 3c 	call	0x79d0	; 0x79d0 <_ZN10UartDriver8sendByteEc>
    11c0:	6c e4       	ldi	r22, 0x4C	; 76
    11c2:	ce 01       	movw	r24, r28
    11c4:	0e 94 e8 3c 	call	0x79d0	; 0x79d0 <_ZN10UartDriver8sendByteEc>
    11c8:	61 e3       	ldi	r22, 0x31	; 49
    11ca:	ce 01       	movw	r24, r28
    11cc:	0e 94 e8 3c 	call	0x79d0	; 0x79d0 <_ZN10UartDriver8sendByteEc>
    11d0:	6d e0       	ldi	r22, 0x0D	; 13
    11d2:	ce 01       	movw	r24, r28
    11d4:	0e 94 e8 3c 	call	0x79d0	; 0x79d0 <_ZN10UartDriver8sendByteEc>
    11d8:	6a e0       	ldi	r22, 0x0A	; 10
    11da:	ce 01       	movw	r24, r28
    11dc:	0e 94 e8 3c 	call	0x79d0	; 0x79d0 <_ZN10UartDriver8sendByteEc>
    11e0:	9a c2       	rjmp	.+1332   	; 0x1716 <_ZN5BTOBD7sendCmdEN7OBDCMDS3CMDE+0x6fc>
    11e2:	61 e4       	ldi	r22, 0x41	; 65
    11e4:	0e 94 e8 3c 	call	0x79d0	; 0x79d0 <_ZN10UartDriver8sendByteEc>
    11e8:	64 e5       	ldi	r22, 0x54	; 84
    11ea:	ce 01       	movw	r24, r28
    11ec:	0e 94 e8 3c 	call	0x79d0	; 0x79d0 <_ZN10UartDriver8sendByteEc>
    11f0:	68 e4       	ldi	r22, 0x48	; 72
    11f2:	ce 01       	movw	r24, r28
    11f4:	0e 94 e8 3c 	call	0x79d0	; 0x79d0 <_ZN10UartDriver8sendByteEc>
    11f8:	60 e3       	ldi	r22, 0x30	; 48
    11fa:	ce 01       	movw	r24, r28
    11fc:	0e 94 e8 3c 	call	0x79d0	; 0x79d0 <_ZN10UartDriver8sendByteEc>
    1200:	6d e0       	ldi	r22, 0x0D	; 13
    1202:	ce 01       	movw	r24, r28
    1204:	0e 94 e8 3c 	call	0x79d0	; 0x79d0 <_ZN10UartDriver8sendByteEc>
    1208:	6a e0       	ldi	r22, 0x0A	; 10
    120a:	ce 01       	movw	r24, r28
    120c:	0e 94 e8 3c 	call	0x79d0	; 0x79d0 <_ZN10UartDriver8sendByteEc>
    1210:	82 c2       	rjmp	.+1284   	; 0x1716 <_ZN5BTOBD7sendCmdEN7OBDCMDS3CMDE+0x6fc>
    1212:	61 e4       	ldi	r22, 0x41	; 65
    1214:	0e 94 e8 3c 	call	0x79d0	; 0x79d0 <_ZN10UartDriver8sendByteEc>
    1218:	64 e5       	ldi	r22, 0x54	; 84
    121a:	ce 01       	movw	r24, r28
    121c:	0e 94 e8 3c 	call	0x79d0	; 0x79d0 <_ZN10UartDriver8sendByteEc>
    1220:	63 e5       	ldi	r22, 0x53	; 83
    1222:	ce 01       	movw	r24, r28
    1224:	0e 94 e8 3c 	call	0x79d0	; 0x79d0 <_ZN10UartDriver8sendByteEc>
    1228:	61 e3       	ldi	r22, 0x31	; 49
    122a:	ce 01       	movw	r24, r28
    122c:	0e 94 e8 3c 	call	0x79d0	; 0x79d0 <_ZN10UartDriver8sendByteEc>
    1230:	6d e0       	ldi	r22, 0x0D	; 13
    1232:	ce 01       	movw	r24, r28
    1234:	0e 94 e8 3c 	call	0x79d0	; 0x79d0 <_ZN10UartDriver8sendByteEc>
    1238:	6a e0       	ldi	r22, 0x0A	; 10
    123a:	ce 01       	movw	r24, r28
    123c:	0e 94 e8 3c 	call	0x79d0	; 0x79d0 <_ZN10UartDriver8sendByteEc>
    1240:	6a c2       	rjmp	.+1236   	; 0x1716 <_ZN5BTOBD7sendCmdEN7OBDCMDS3CMDE+0x6fc>
    1242:	61 e4       	ldi	r22, 0x41	; 65
    1244:	0e 94 e8 3c 	call	0x79d0	; 0x79d0 <_ZN10UartDriver8sendByteEc>
    1248:	64 e5       	ldi	r22, 0x54	; 84
    124a:	ce 01       	movw	r24, r28
    124c:	0e 94 e8 3c 	call	0x79d0	; 0x79d0 <_ZN10UartDriver8sendByteEc>
    1250:	63 e5       	ldi	r22, 0x53	; 83
    1252:	ce 01       	movw	r24, r28
    1254:	0e 94 e8 3c 	call	0x79d0	; 0x79d0 <_ZN10UartDriver8sendByteEc>
    1258:	60 e5       	ldi	r22, 0x50	; 80
    125a:	ce 01       	movw	r24, r28
    125c:	0e 94 e8 3c 	call	0x79d0	; 0x79d0 <_ZN10UartDriver8sendByteEc>
    1260:	60 e3       	ldi	r22, 0x30	; 48
    1262:	ce 01       	movw	r24, r28
    1264:	0e 94 e8 3c 	call	0x79d0	; 0x79d0 <_ZN10UartDriver8sendByteEc>
    1268:	6d e0       	ldi	r22, 0x0D	; 13
    126a:	ce 01       	movw	r24, r28
    126c:	0e 94 e8 3c 	call	0x79d0	; 0x79d0 <_ZN10UartDriver8sendByteEc>
    1270:	6a e0       	ldi	r22, 0x0A	; 10
    1272:	ce 01       	movw	r24, r28
    1274:	0e 94 e8 3c 	call	0x79d0	; 0x79d0 <_ZN10UartDriver8sendByteEc>
    1278:	4e c2       	rjmp	.+1180   	; 0x1716 <_ZN5BTOBD7sendCmdEN7OBDCMDS3CMDE+0x6fc>
    127a:	60 e3       	ldi	r22, 0x30	; 48
    127c:	0e 94 e8 3c 	call	0x79d0	; 0x79d0 <_ZN10UartDriver8sendByteEc>
    1280:	61 e3       	ldi	r22, 0x31	; 49
    1282:	ce 01       	movw	r24, r28
    1284:	0e 94 e8 3c 	call	0x79d0	; 0x79d0 <_ZN10UartDriver8sendByteEc>
    1288:	60 e3       	ldi	r22, 0x30	; 48
    128a:	ce 01       	movw	r24, r28
    128c:	0e 94 e8 3c 	call	0x79d0	; 0x79d0 <_ZN10UartDriver8sendByteEc>
    1290:	63 e4       	ldi	r22, 0x43	; 67
    1292:	ce 01       	movw	r24, r28
    1294:	0e 94 e8 3c 	call	0x79d0	; 0x79d0 <_ZN10UartDriver8sendByteEc>
    1298:	6d e0       	ldi	r22, 0x0D	; 13
    129a:	ce 01       	movw	r24, r28
    129c:	0e 94 e8 3c 	call	0x79d0	; 0x79d0 <_ZN10UartDriver8sendByteEc>
    12a0:	6a e0       	ldi	r22, 0x0A	; 10
    12a2:	ce 01       	movw	r24, r28
    12a4:	0e 94 e8 3c 	call	0x79d0	; 0x79d0 <_ZN10UartDriver8sendByteEc>
    12a8:	fe 01       	movw	r30, r28
    12aa:	e8 59       	subi	r30, 0x98	; 152
    12ac:	ff 4f       	sbci	r31, 0xFF	; 255
    12ae:	80 e3       	ldi	r24, 0x30	; 48
    12b0:	80 83       	st	Z, r24
    12b2:	c7 59       	subi	r28, 0x97	; 151
    12b4:	df 4f       	sbci	r29, 0xFF	; 255
    12b6:	83 e4       	ldi	r24, 0x43	; 67
    12b8:	88 83       	st	Y, r24
    12ba:	2d c2       	rjmp	.+1114   	; 0x1716 <_ZN5BTOBD7sendCmdEN7OBDCMDS3CMDE+0x6fc>
    12bc:	60 e3       	ldi	r22, 0x30	; 48
    12be:	0e 94 e8 3c 	call	0x79d0	; 0x79d0 <_ZN10UartDriver8sendByteEc>
    12c2:	61 e3       	ldi	r22, 0x31	; 49
    12c4:	ce 01       	movw	r24, r28
    12c6:	0e 94 e8 3c 	call	0x79d0	; 0x79d0 <_ZN10UartDriver8sendByteEc>
    12ca:	60 e3       	ldi	r22, 0x30	; 48
    12cc:	ce 01       	movw	r24, r28
    12ce:	0e 94 e8 3c 	call	0x79d0	; 0x79d0 <_ZN10UartDriver8sendByteEc>
    12d2:	64 e4       	ldi	r22, 0x44	; 68
    12d4:	ce 01       	movw	r24, r28
    12d6:	0e 94 e8 3c 	call	0x79d0	; 0x79d0 <_ZN10UartDriver8sendByteEc>
    12da:	6d e0       	ldi	r22, 0x0D	; 13
    12dc:	ce 01       	movw	r24, r28
    12de:	0e 94 e8 3c 	call	0x79d0	; 0x79d0 <_ZN10UartDriver8sendByteEc>
    12e2:	6a e0       	ldi	r22, 0x0A	; 10
    12e4:	ce 01       	movw	r24, r28
    12e6:	0e 94 e8 3c 	call	0x79d0	; 0x79d0 <_ZN10UartDriver8sendByteEc>
    12ea:	fe 01       	movw	r30, r28
    12ec:	e8 59       	subi	r30, 0x98	; 152
    12ee:	ff 4f       	sbci	r31, 0xFF	; 255
    12f0:	80 e3       	ldi	r24, 0x30	; 48
    12f2:	80 83       	st	Z, r24
    12f4:	c7 59       	subi	r28, 0x97	; 151
    12f6:	df 4f       	sbci	r29, 0xFF	; 255
    12f8:	84 e4       	ldi	r24, 0x44	; 68
    12fa:	88 83       	st	Y, r24
    12fc:	0c c2       	rjmp	.+1048   	; 0x1716 <_ZN5BTOBD7sendCmdEN7OBDCMDS3CMDE+0x6fc>
    12fe:	60 e3       	ldi	r22, 0x30	; 48
    1300:	0e 94 e8 3c 	call	0x79d0	; 0x79d0 <_ZN10UartDriver8sendByteEc>
    1304:	61 e3       	ldi	r22, 0x31	; 49
    1306:	ce 01       	movw	r24, r28
    1308:	0e 94 e8 3c 	call	0x79d0	; 0x79d0 <_ZN10UartDriver8sendByteEc>
    130c:	61 e3       	ldi	r22, 0x31	; 49
    130e:	ce 01       	movw	r24, r28
    1310:	0e 94 e8 3c 	call	0x79d0	; 0x79d0 <_ZN10UartDriver8sendByteEc>
    1314:	61 e3       	ldi	r22, 0x31	; 49
    1316:	ce 01       	movw	r24, r28
    1318:	0e 94 e8 3c 	call	0x79d0	; 0x79d0 <_ZN10UartDriver8sendByteEc>
    131c:	6d e0       	ldi	r22, 0x0D	; 13
    131e:	ce 01       	movw	r24, r28
    1320:	0e 94 e8 3c 	call	0x79d0	; 0x79d0 <_ZN10UartDriver8sendByteEc>
    1324:	6a e0       	ldi	r22, 0x0A	; 10
    1326:	ce 01       	movw	r24, r28
    1328:	0e 94 e8 3c 	call	0x79d0	; 0x79d0 <_ZN10UartDriver8sendByteEc>
    132c:	fe 01       	movw	r30, r28
    132e:	e8 59       	subi	r30, 0x98	; 152
    1330:	ff 4f       	sbci	r31, 0xFF	; 255
    1332:	81 e3       	ldi	r24, 0x31	; 49
    1334:	80 83       	st	Z, r24
    1336:	c7 59       	subi	r28, 0x97	; 151
    1338:	df 4f       	sbci	r29, 0xFF	; 255
    133a:	88 83       	st	Y, r24
    133c:	ec c1       	rjmp	.+984    	; 0x1716 <_ZN5BTOBD7sendCmdEN7OBDCMDS3CMDE+0x6fc>
    133e:	60 e3       	ldi	r22, 0x30	; 48
    1340:	0e 94 e8 3c 	call	0x79d0	; 0x79d0 <_ZN10UartDriver8sendByteEc>
    1344:	61 e3       	ldi	r22, 0x31	; 49
    1346:	ce 01       	movw	r24, r28
    1348:	0e 94 e8 3c 	call	0x79d0	; 0x79d0 <_ZN10UartDriver8sendByteEc>
    134c:	65 e3       	ldi	r22, 0x35	; 53
    134e:	ce 01       	movw	r24, r28
    1350:	0e 94 e8 3c 	call	0x79d0	; 0x79d0 <_ZN10UartDriver8sendByteEc>
    1354:	63 e4       	ldi	r22, 0x43	; 67
    1356:	ce 01       	movw	r24, r28
    1358:	0e 94 e8 3c 	call	0x79d0	; 0x79d0 <_ZN10UartDriver8sendByteEc>
    135c:	6d e0       	ldi	r22, 0x0D	; 13
    135e:	ce 01       	movw	r24, r28
    1360:	0e 94 e8 3c 	call	0x79d0	; 0x79d0 <_ZN10UartDriver8sendByteEc>
    1364:	6a e0       	ldi	r22, 0x0A	; 10
    1366:	ce 01       	movw	r24, r28
    1368:	0e 94 e8 3c 	call	0x79d0	; 0x79d0 <_ZN10UartDriver8sendByteEc>
    136c:	fe 01       	movw	r30, r28
    136e:	e8 59       	subi	r30, 0x98	; 152
    1370:	ff 4f       	sbci	r31, 0xFF	; 255
    1372:	85 e3       	ldi	r24, 0x35	; 53
    1374:	80 83       	st	Z, r24
    1376:	c7 59       	subi	r28, 0x97	; 151
    1378:	df 4f       	sbci	r29, 0xFF	; 255
    137a:	83 e4       	ldi	r24, 0x43	; 67
    137c:	88 83       	st	Y, r24
    137e:	cb c1       	rjmp	.+918    	; 0x1716 <_ZN5BTOBD7sendCmdEN7OBDCMDS3CMDE+0x6fc>
    1380:	60 e3       	ldi	r22, 0x30	; 48
    1382:	0e 94 e8 3c 	call	0x79d0	; 0x79d0 <_ZN10UartDriver8sendByteEc>
    1386:	61 e3       	ldi	r22, 0x31	; 49
    1388:	ce 01       	movw	r24, r28
    138a:	0e 94 e8 3c 	call	0x79d0	; 0x79d0 <_ZN10UartDriver8sendByteEc>
    138e:	65 e3       	ldi	r22, 0x35	; 53
    1390:	ce 01       	movw	r24, r28
    1392:	0e 94 e8 3c 	call	0x79d0	; 0x79d0 <_ZN10UartDriver8sendByteEc>
    1396:	65 e4       	ldi	r22, 0x45	; 69
    1398:	ce 01       	movw	r24, r28
    139a:	0e 94 e8 3c 	call	0x79d0	; 0x79d0 <_ZN10UartDriver8sendByteEc>
    139e:	6d e0       	ldi	r22, 0x0D	; 13
    13a0:	ce 01       	movw	r24, r28
    13a2:	0e 94 e8 3c 	call	0x79d0	; 0x79d0 <_ZN10UartDriver8sendByteEc>
    13a6:	6a e0       	ldi	r22, 0x0A	; 10
    13a8:	ce 01       	movw	r24, r28
    13aa:	0e 94 e8 3c 	call	0x79d0	; 0x79d0 <_ZN10UartDriver8sendByteEc>
    13ae:	fe 01       	movw	r30, r28
    13b0:	e8 59       	subi	r30, 0x98	; 152
    13b2:	ff 4f       	sbci	r31, 0xFF	; 255
    13b4:	85 e3       	ldi	r24, 0x35	; 53
    13b6:	80 83       	st	Z, r24
    13b8:	c7 59       	subi	r28, 0x97	; 151
    13ba:	df 4f       	sbci	r29, 0xFF	; 255
    13bc:	85 e4       	ldi	r24, 0x45	; 69
    13be:	88 83       	st	Y, r24
    13c0:	aa c1       	rjmp	.+852    	; 0x1716 <_ZN5BTOBD7sendCmdEN7OBDCMDS3CMDE+0x6fc>
    13c2:	60 e3       	ldi	r22, 0x30	; 48
    13c4:	0e 94 e8 3c 	call	0x79d0	; 0x79d0 <_ZN10UartDriver8sendByteEc>
    13c8:	61 e3       	ldi	r22, 0x31	; 49
    13ca:	ce 01       	movw	r24, r28
    13cc:	0e 94 e8 3c 	call	0x79d0	; 0x79d0 <_ZN10UartDriver8sendByteEc>
    13d0:	66 e3       	ldi	r22, 0x36	; 54
    13d2:	ce 01       	movw	r24, r28
    13d4:	0e 94 e8 3c 	call	0x79d0	; 0x79d0 <_ZN10UartDriver8sendByteEc>
    13d8:	67 e3       	ldi	r22, 0x37	; 55
    13da:	ce 01       	movw	r24, r28
    13dc:	0e 94 e8 3c 	call	0x79d0	; 0x79d0 <_ZN10UartDriver8sendByteEc>
    13e0:	6d e0       	ldi	r22, 0x0D	; 13
    13e2:	ce 01       	movw	r24, r28
    13e4:	0e 94 e8 3c 	call	0x79d0	; 0x79d0 <_ZN10UartDriver8sendByteEc>
    13e8:	6a e0       	ldi	r22, 0x0A	; 10
    13ea:	ce 01       	movw	r24, r28
    13ec:	0e 94 e8 3c 	call	0x79d0	; 0x79d0 <_ZN10UartDriver8sendByteEc>
    13f0:	fe 01       	movw	r30, r28
    13f2:	e8 59       	subi	r30, 0x98	; 152
    13f4:	ff 4f       	sbci	r31, 0xFF	; 255
    13f6:	86 e3       	ldi	r24, 0x36	; 54
    13f8:	80 83       	st	Z, r24
    13fa:	c7 59       	subi	r28, 0x97	; 151
    13fc:	df 4f       	sbci	r29, 0xFF	; 255
    13fe:	87 e3       	ldi	r24, 0x37	; 55
    1400:	88 83       	st	Y, r24
    1402:	89 c1       	rjmp	.+786    	; 0x1716 <_ZN5BTOBD7sendCmdEN7OBDCMDS3CMDE+0x6fc>
    1404:	60 e3       	ldi	r22, 0x30	; 48
    1406:	0e 94 e8 3c 	call	0x79d0	; 0x79d0 <_ZN10UartDriver8sendByteEc>
    140a:	61 e3       	ldi	r22, 0x31	; 49
    140c:	ce 01       	movw	r24, r28
    140e:	0e 94 e8 3c 	call	0x79d0	; 0x79d0 <_ZN10UartDriver8sendByteEc>
    1412:	60 e3       	ldi	r22, 0x30	; 48
    1414:	ce 01       	movw	r24, r28
    1416:	0e 94 e8 3c 	call	0x79d0	; 0x79d0 <_ZN10UartDriver8sendByteEc>
    141a:	64 e3       	ldi	r22, 0x34	; 52
    141c:	ce 01       	movw	r24, r28
    141e:	0e 94 e8 3c 	call	0x79d0	; 0x79d0 <_ZN10UartDriver8sendByteEc>
    1422:	6d e0       	ldi	r22, 0x0D	; 13
    1424:	ce 01       	movw	r24, r28
    1426:	0e 94 e8 3c 	call	0x79d0	; 0x79d0 <_ZN10UartDriver8sendByteEc>
    142a:	6a e0       	ldi	r22, 0x0A	; 10
    142c:	ce 01       	movw	r24, r28
    142e:	0e 94 e8 3c 	call	0x79d0	; 0x79d0 <_ZN10UartDriver8sendByteEc>
    1432:	fe 01       	movw	r30, r28
    1434:	e8 59       	subi	r30, 0x98	; 152
    1436:	ff 4f       	sbci	r31, 0xFF	; 255
    1438:	80 e3       	ldi	r24, 0x30	; 48
    143a:	80 83       	st	Z, r24
    143c:	c7 59       	subi	r28, 0x97	; 151
    143e:	df 4f       	sbci	r29, 0xFF	; 255
    1440:	84 e3       	ldi	r24, 0x34	; 52
    1442:	88 83       	st	Y, r24
    1444:	68 c1       	rjmp	.+720    	; 0x1716 <_ZN5BTOBD7sendCmdEN7OBDCMDS3CMDE+0x6fc>
    1446:	60 e3       	ldi	r22, 0x30	; 48
    1448:	0e 94 e8 3c 	call	0x79d0	; 0x79d0 <_ZN10UartDriver8sendByteEc>
    144c:	61 e3       	ldi	r22, 0x31	; 49
    144e:	ce 01       	movw	r24, r28
    1450:	0e 94 e8 3c 	call	0x79d0	; 0x79d0 <_ZN10UartDriver8sendByteEc>
    1454:	62 e3       	ldi	r22, 0x32	; 50
    1456:	ce 01       	movw	r24, r28
    1458:	0e 94 e8 3c 	call	0x79d0	; 0x79d0 <_ZN10UartDriver8sendByteEc>
    145c:	66 e4       	ldi	r22, 0x46	; 70
    145e:	ce 01       	movw	r24, r28
    1460:	0e 94 e8 3c 	call	0x79d0	; 0x79d0 <_ZN10UartDriver8sendByteEc>
    1464:	6d e0       	ldi	r22, 0x0D	; 13
    1466:	ce 01       	movw	r24, r28
    1468:	0e 94 e8 3c 	call	0x79d0	; 0x79d0 <_ZN10UartDriver8sendByteEc>
    146c:	6a e0       	ldi	r22, 0x0A	; 10
    146e:	ce 01       	movw	r24, r28
    1470:	0e 94 e8 3c 	call	0x79d0	; 0x79d0 <_ZN10UartDriver8sendByteEc>
    1474:	fe 01       	movw	r30, r28
    1476:	e8 59       	subi	r30, 0x98	; 152
    1478:	ff 4f       	sbci	r31, 0xFF	; 255
    147a:	82 e3       	ldi	r24, 0x32	; 50
    147c:	80 83       	st	Z, r24
    147e:	c7 59       	subi	r28, 0x97	; 151
    1480:	df 4f       	sbci	r29, 0xFF	; 255
    1482:	86 e4       	ldi	r24, 0x46	; 70
    1484:	88 83       	st	Y, r24
    1486:	47 c1       	rjmp	.+654    	; 0x1716 <_ZN5BTOBD7sendCmdEN7OBDCMDS3CMDE+0x6fc>
    1488:	60 e3       	ldi	r22, 0x30	; 48
    148a:	0e 94 e8 3c 	call	0x79d0	; 0x79d0 <_ZN10UartDriver8sendByteEc>
    148e:	61 e3       	ldi	r22, 0x31	; 49
    1490:	ce 01       	movw	r24, r28
    1492:	0e 94 e8 3c 	call	0x79d0	; 0x79d0 <_ZN10UartDriver8sendByteEc>
    1496:	68 e3       	ldi	r22, 0x38	; 56
    1498:	ce 01       	movw	r24, r28
    149a:	0e 94 e8 3c 	call	0x79d0	; 0x79d0 <_ZN10UartDriver8sendByteEc>
    149e:	67 e3       	ldi	r22, 0x37	; 55
    14a0:	ce 01       	movw	r24, r28
    14a2:	0e 94 e8 3c 	call	0x79d0	; 0x79d0 <_ZN10UartDriver8sendByteEc>
    14a6:	6d e0       	ldi	r22, 0x0D	; 13
    14a8:	ce 01       	movw	r24, r28
    14aa:	0e 94 e8 3c 	call	0x79d0	; 0x79d0 <_ZN10UartDriver8sendByteEc>
    14ae:	6a e0       	ldi	r22, 0x0A	; 10
    14b0:	ce 01       	movw	r24, r28
    14b2:	0e 94 e8 3c 	call	0x79d0	; 0x79d0 <_ZN10UartDriver8sendByteEc>
    14b6:	fe 01       	movw	r30, r28
    14b8:	e8 59       	subi	r30, 0x98	; 152
    14ba:	ff 4f       	sbci	r31, 0xFF	; 255
    14bc:	88 e3       	ldi	r24, 0x38	; 56
    14be:	80 83       	st	Z, r24
    14c0:	c7 59       	subi	r28, 0x97	; 151
    14c2:	df 4f       	sbci	r29, 0xFF	; 255
    14c4:	87 e3       	ldi	r24, 0x37	; 55
    14c6:	88 83       	st	Y, r24
    14c8:	26 c1       	rjmp	.+588    	; 0x1716 <_ZN5BTOBD7sendCmdEN7OBDCMDS3CMDE+0x6fc>
    14ca:	60 e3       	ldi	r22, 0x30	; 48
    14cc:	0e 94 e8 3c 	call	0x79d0	; 0x79d0 <_ZN10UartDriver8sendByteEc>
    14d0:	61 e3       	ldi	r22, 0x31	; 49
    14d2:	ce 01       	movw	r24, r28
    14d4:	0e 94 e8 3c 	call	0x79d0	; 0x79d0 <_ZN10UartDriver8sendByteEc>
    14d8:	64 e3       	ldi	r22, 0x34	; 52
    14da:	ce 01       	movw	r24, r28
    14dc:	0e 94 e8 3c 	call	0x79d0	; 0x79d0 <_ZN10UartDriver8sendByteEc>
    14e0:	66 e3       	ldi	r22, 0x36	; 54
    14e2:	ce 01       	movw	r24, r28
    14e4:	0e 94 e8 3c 	call	0x79d0	; 0x79d0 <_ZN10UartDriver8sendByteEc>
    14e8:	6d e0       	ldi	r22, 0x0D	; 13
    14ea:	ce 01       	movw	r24, r28
    14ec:	0e 94 e8 3c 	call	0x79d0	; 0x79d0 <_ZN10UartDriver8sendByteEc>
    14f0:	6a e0       	ldi	r22, 0x0A	; 10
    14f2:	ce 01       	movw	r24, r28
    14f4:	0e 94 e8 3c 	call	0x79d0	; 0x79d0 <_ZN10UartDriver8sendByteEc>
    14f8:	fe 01       	movw	r30, r28
    14fa:	e8 59       	subi	r30, 0x98	; 152
    14fc:	ff 4f       	sbci	r31, 0xFF	; 255
    14fe:	84 e3       	ldi	r24, 0x34	; 52
    1500:	80 83       	st	Z, r24
    1502:	c7 59       	subi	r28, 0x97	; 151
    1504:	df 4f       	sbci	r29, 0xFF	; 255
    1506:	86 e3       	ldi	r24, 0x36	; 54
    1508:	88 83       	st	Y, r24
    150a:	05 c1       	rjmp	.+522    	; 0x1716 <_ZN5BTOBD7sendCmdEN7OBDCMDS3CMDE+0x6fc>
    150c:	60 e3       	ldi	r22, 0x30	; 48
    150e:	0e 94 e8 3c 	call	0x79d0	; 0x79d0 <_ZN10UartDriver8sendByteEc>
    1512:	61 e3       	ldi	r22, 0x31	; 49
    1514:	ce 01       	movw	r24, r28
    1516:	0e 94 e8 3c 	call	0x79d0	; 0x79d0 <_ZN10UartDriver8sendByteEc>
    151a:	63 e3       	ldi	r22, 0x33	; 51
    151c:	ce 01       	movw	r24, r28
    151e:	0e 94 e8 3c 	call	0x79d0	; 0x79d0 <_ZN10UartDriver8sendByteEc>
    1522:	63 e3       	ldi	r22, 0x33	; 51
    1524:	ce 01       	movw	r24, r28
    1526:	0e 94 e8 3c 	call	0x79d0	; 0x79d0 <_ZN10UartDriver8sendByteEc>
    152a:	6d e0       	ldi	r22, 0x0D	; 13
    152c:	ce 01       	movw	r24, r28
    152e:	0e 94 e8 3c 	call	0x79d0	; 0x79d0 <_ZN10UartDriver8sendByteEc>
    1532:	6a e0       	ldi	r22, 0x0A	; 10
    1534:	ce 01       	movw	r24, r28
    1536:	0e 94 e8 3c 	call	0x79d0	; 0x79d0 <_ZN10UartDriver8sendByteEc>
    153a:	fe 01       	movw	r30, r28
    153c:	e8 59       	subi	r30, 0x98	; 152
    153e:	ff 4f       	sbci	r31, 0xFF	; 255
    1540:	83 e3       	ldi	r24, 0x33	; 51
    1542:	80 83       	st	Z, r24
    1544:	c7 59       	subi	r28, 0x97	; 151
    1546:	df 4f       	sbci	r29, 0xFF	; 255
    1548:	88 83       	st	Y, r24
    154a:	e5 c0       	rjmp	.+458    	; 0x1716 <_ZN5BTOBD7sendCmdEN7OBDCMDS3CMDE+0x6fc>
    154c:	60 e3       	ldi	r22, 0x30	; 48
    154e:	0e 94 e8 3c 	call	0x79d0	; 0x79d0 <_ZN10UartDriver8sendByteEc>
    1552:	61 e3       	ldi	r22, 0x31	; 49
    1554:	ce 01       	movw	r24, r28
    1556:	0e 94 e8 3c 	call	0x79d0	; 0x79d0 <_ZN10UartDriver8sendByteEc>
    155a:	65 e3       	ldi	r22, 0x35	; 53
    155c:	ce 01       	movw	r24, r28
    155e:	0e 94 e8 3c 	call	0x79d0	; 0x79d0 <_ZN10UartDriver8sendByteEc>
    1562:	69 e3       	ldi	r22, 0x39	; 57
    1564:	ce 01       	movw	r24, r28
    1566:	0e 94 e8 3c 	call	0x79d0	; 0x79d0 <_ZN10UartDriver8sendByteEc>
    156a:	6d e0       	ldi	r22, 0x0D	; 13
    156c:	ce 01       	movw	r24, r28
    156e:	0e 94 e8 3c 	call	0x79d0	; 0x79d0 <_ZN10UartDriver8sendByteEc>
    1572:	6a e0       	ldi	r22, 0x0A	; 10
    1574:	ce 01       	movw	r24, r28
    1576:	0e 94 e8 3c 	call	0x79d0	; 0x79d0 <_ZN10UartDriver8sendByteEc>
    157a:	fe 01       	movw	r30, r28
    157c:	e8 59       	subi	r30, 0x98	; 152
    157e:	ff 4f       	sbci	r31, 0xFF	; 255
    1580:	85 e3       	ldi	r24, 0x35	; 53
    1582:	80 83       	st	Z, r24
    1584:	c7 59       	subi	r28, 0x97	; 151
    1586:	df 4f       	sbci	r29, 0xFF	; 255
    1588:	89 e3       	ldi	r24, 0x39	; 57
    158a:	88 83       	st	Y, r24
    158c:	c4 c0       	rjmp	.+392    	; 0x1716 <_ZN5BTOBD7sendCmdEN7OBDCMDS3CMDE+0x6fc>
    158e:	60 e3       	ldi	r22, 0x30	; 48
    1590:	0e 94 e8 3c 	call	0x79d0	; 0x79d0 <_ZN10UartDriver8sendByteEc>
    1594:	61 e3       	ldi	r22, 0x31	; 49
    1596:	ce 01       	movw	r24, r28
    1598:	0e 94 e8 3c 	call	0x79d0	; 0x79d0 <_ZN10UartDriver8sendByteEc>
    159c:	66 e3       	ldi	r22, 0x36	; 54
    159e:	ce 01       	movw	r24, r28
    15a0:	0e 94 e8 3c 	call	0x79d0	; 0x79d0 <_ZN10UartDriver8sendByteEc>
    15a4:	68 e3       	ldi	r22, 0x38	; 56
    15a6:	ce 01       	movw	r24, r28
    15a8:	0e 94 e8 3c 	call	0x79d0	; 0x79d0 <_ZN10UartDriver8sendByteEc>
    15ac:	6d e0       	ldi	r22, 0x0D	; 13
    15ae:	ce 01       	movw	r24, r28
    15b0:	0e 94 e8 3c 	call	0x79d0	; 0x79d0 <_ZN10UartDriver8sendByteEc>
    15b4:	6a e0       	ldi	r22, 0x0A	; 10
    15b6:	ce 01       	movw	r24, r28
    15b8:	0e 94 e8 3c 	call	0x79d0	; 0x79d0 <_ZN10UartDriver8sendByteEc>
    15bc:	fe 01       	movw	r30, r28
    15be:	e8 59       	subi	r30, 0x98	; 152
    15c0:	ff 4f       	sbci	r31, 0xFF	; 255
    15c2:	86 e3       	ldi	r24, 0x36	; 54
    15c4:	80 83       	st	Z, r24
    15c6:	c7 59       	subi	r28, 0x97	; 151
    15c8:	df 4f       	sbci	r29, 0xFF	; 255
    15ca:	88 e3       	ldi	r24, 0x38	; 56
    15cc:	88 83       	st	Y, r24
    15ce:	a3 c0       	rjmp	.+326    	; 0x1716 <_ZN5BTOBD7sendCmdEN7OBDCMDS3CMDE+0x6fc>
    15d0:	60 e3       	ldi	r22, 0x30	; 48
    15d2:	0e 94 e8 3c 	call	0x79d0	; 0x79d0 <_ZN10UartDriver8sendByteEc>
    15d6:	61 e3       	ldi	r22, 0x31	; 49
    15d8:	ce 01       	movw	r24, r28
    15da:	0e 94 e8 3c 	call	0x79d0	; 0x79d0 <_ZN10UartDriver8sendByteEc>
    15de:	60 e3       	ldi	r22, 0x30	; 48
    15e0:	ce 01       	movw	r24, r28
    15e2:	0e 94 e8 3c 	call	0x79d0	; 0x79d0 <_ZN10UartDriver8sendByteEc>
    15e6:	60 e3       	ldi	r22, 0x30	; 48
    15e8:	ce 01       	movw	r24, r28
    15ea:	0e 94 e8 3c 	call	0x79d0	; 0x79d0 <_ZN10UartDriver8sendByteEc>
    15ee:	6d e0       	ldi	r22, 0x0D	; 13
    15f0:	ce 01       	movw	r24, r28
    15f2:	0e 94 e8 3c 	call	0x79d0	; 0x79d0 <_ZN10UartDriver8sendByteEc>
    15f6:	6a e0       	ldi	r22, 0x0A	; 10
    15f8:	ce 01       	movw	r24, r28
    15fa:	0e 94 e8 3c 	call	0x79d0	; 0x79d0 <_ZN10UartDriver8sendByteEc>
    15fe:	fe 01       	movw	r30, r28
    1600:	e8 59       	subi	r30, 0x98	; 152
    1602:	ff 4f       	sbci	r31, 0xFF	; 255
    1604:	80 e3       	ldi	r24, 0x30	; 48
    1606:	80 83       	st	Z, r24
    1608:	c7 59       	subi	r28, 0x97	; 151
    160a:	df 4f       	sbci	r29, 0xFF	; 255
    160c:	88 83       	st	Y, r24
    160e:	83 c0       	rjmp	.+262    	; 0x1716 <_ZN5BTOBD7sendCmdEN7OBDCMDS3CMDE+0x6fc>
    1610:	60 e3       	ldi	r22, 0x30	; 48
    1612:	0e 94 e8 3c 	call	0x79d0	; 0x79d0 <_ZN10UartDriver8sendByteEc>
    1616:	61 e3       	ldi	r22, 0x31	; 49
    1618:	ce 01       	movw	r24, r28
    161a:	0e 94 e8 3c 	call	0x79d0	; 0x79d0 <_ZN10UartDriver8sendByteEc>
    161e:	62 e3       	ldi	r22, 0x32	; 50
    1620:	ce 01       	movw	r24, r28
    1622:	0e 94 e8 3c 	call	0x79d0	; 0x79d0 <_ZN10UartDriver8sendByteEc>
    1626:	60 e3       	ldi	r22, 0x30	; 48
    1628:	ce 01       	movw	r24, r28
    162a:	0e 94 e8 3c 	call	0x79d0	; 0x79d0 <_ZN10UartDriver8sendByteEc>
    162e:	6d e0       	ldi	r22, 0x0D	; 13
    1630:	ce 01       	movw	r24, r28
    1632:	0e 94 e8 3c 	call	0x79d0	; 0x79d0 <_ZN10UartDriver8sendByteEc>
    1636:	6a e0       	ldi	r22, 0x0A	; 10
    1638:	ce 01       	movw	r24, r28
    163a:	0e 94 e8 3c 	call	0x79d0	; 0x79d0 <_ZN10UartDriver8sendByteEc>
    163e:	fe 01       	movw	r30, r28
    1640:	e8 59       	subi	r30, 0x98	; 152
    1642:	ff 4f       	sbci	r31, 0xFF	; 255
    1644:	82 e3       	ldi	r24, 0x32	; 50
    1646:	80 83       	st	Z, r24
    1648:	c7 59       	subi	r28, 0x97	; 151
    164a:	df 4f       	sbci	r29, 0xFF	; 255
    164c:	80 e3       	ldi	r24, 0x30	; 48
    164e:	88 83       	st	Y, r24
    1650:	62 c0       	rjmp	.+196    	; 0x1716 <_ZN5BTOBD7sendCmdEN7OBDCMDS3CMDE+0x6fc>
    1652:	60 e3       	ldi	r22, 0x30	; 48
    1654:	0e 94 e8 3c 	call	0x79d0	; 0x79d0 <_ZN10UartDriver8sendByteEc>
    1658:	61 e3       	ldi	r22, 0x31	; 49
    165a:	ce 01       	movw	r24, r28
    165c:	0e 94 e8 3c 	call	0x79d0	; 0x79d0 <_ZN10UartDriver8sendByteEc>
    1660:	64 e3       	ldi	r22, 0x34	; 52
    1662:	ce 01       	movw	r24, r28
    1664:	0e 94 e8 3c 	call	0x79d0	; 0x79d0 <_ZN10UartDriver8sendByteEc>
    1668:	60 e3       	ldi	r22, 0x30	; 48
    166a:	ce 01       	movw	r24, r28
    166c:	0e 94 e8 3c 	call	0x79d0	; 0x79d0 <_ZN10UartDriver8sendByteEc>
    1670:	6d e0       	ldi	r22, 0x0D	; 13
    1672:	ce 01       	movw	r24, r28
    1674:	0e 94 e8 3c 	call	0x79d0	; 0x79d0 <_ZN10UartDriver8sendByteEc>
    1678:	6a e0       	ldi	r22, 0x0A	; 10
    167a:	ce 01       	movw	r24, r28
    167c:	0e 94 e8 3c 	call	0x79d0	; 0x79d0 <_ZN10UartDriver8sendByteEc>
    1680:	fe 01       	movw	r30, r28
    1682:	e8 59       	subi	r30, 0x98	; 152
    1684:	ff 4f       	sbci	r31, 0xFF	; 255
    1686:	84 e3       	ldi	r24, 0x34	; 52
    1688:	80 83       	st	Z, r24
    168a:	c7 59       	subi	r28, 0x97	; 151
    168c:	df 4f       	sbci	r29, 0xFF	; 255
    168e:	80 e3       	ldi	r24, 0x30	; 48
    1690:	88 83       	st	Y, r24
    1692:	41 c0       	rjmp	.+130    	; 0x1716 <_ZN5BTOBD7sendCmdEN7OBDCMDS3CMDE+0x6fc>
    1694:	60 e3       	ldi	r22, 0x30	; 48
    1696:	0e 94 e8 3c 	call	0x79d0	; 0x79d0 <_ZN10UartDriver8sendByteEc>
    169a:	61 e3       	ldi	r22, 0x31	; 49
    169c:	ce 01       	movw	r24, r28
    169e:	0e 94 e8 3c 	call	0x79d0	; 0x79d0 <_ZN10UartDriver8sendByteEc>
    16a2:	66 e3       	ldi	r22, 0x36	; 54
    16a4:	ce 01       	movw	r24, r28
    16a6:	0e 94 e8 3c 	call	0x79d0	; 0x79d0 <_ZN10UartDriver8sendByteEc>
    16aa:	60 e3       	ldi	r22, 0x30	; 48
    16ac:	ce 01       	movw	r24, r28
    16ae:	0e 94 e8 3c 	call	0x79d0	; 0x79d0 <_ZN10UartDriver8sendByteEc>
    16b2:	6d e0       	ldi	r22, 0x0D	; 13
    16b4:	ce 01       	movw	r24, r28
    16b6:	0e 94 e8 3c 	call	0x79d0	; 0x79d0 <_ZN10UartDriver8sendByteEc>
    16ba:	6a e0       	ldi	r22, 0x0A	; 10
    16bc:	ce 01       	movw	r24, r28
    16be:	0e 94 e8 3c 	call	0x79d0	; 0x79d0 <_ZN10UartDriver8sendByteEc>
    16c2:	fe 01       	movw	r30, r28
    16c4:	e8 59       	subi	r30, 0x98	; 152
    16c6:	ff 4f       	sbci	r31, 0xFF	; 255
    16c8:	86 e3       	ldi	r24, 0x36	; 54
    16ca:	80 83       	st	Z, r24
    16cc:	c7 59       	subi	r28, 0x97	; 151
    16ce:	df 4f       	sbci	r29, 0xFF	; 255
    16d0:	80 e3       	ldi	r24, 0x30	; 48
    16d2:	88 83       	st	Y, r24
    16d4:	20 c0       	rjmp	.+64     	; 0x1716 <_ZN5BTOBD7sendCmdEN7OBDCMDS3CMDE+0x6fc>
    16d6:	60 e3       	ldi	r22, 0x30	; 48
    16d8:	0e 94 e8 3c 	call	0x79d0	; 0x79d0 <_ZN10UartDriver8sendByteEc>
    16dc:	61 e3       	ldi	r22, 0x31	; 49
    16de:	ce 01       	movw	r24, r28
    16e0:	0e 94 e8 3c 	call	0x79d0	; 0x79d0 <_ZN10UartDriver8sendByteEc>
    16e4:	68 e3       	ldi	r22, 0x38	; 56
    16e6:	ce 01       	movw	r24, r28
    16e8:	0e 94 e8 3c 	call	0x79d0	; 0x79d0 <_ZN10UartDriver8sendByteEc>
    16ec:	60 e3       	ldi	r22, 0x30	; 48
    16ee:	ce 01       	movw	r24, r28
    16f0:	0e 94 e8 3c 	call	0x79d0	; 0x79d0 <_ZN10UartDriver8sendByteEc>
    16f4:	6d e0       	ldi	r22, 0x0D	; 13
    16f6:	ce 01       	movw	r24, r28
    16f8:	0e 94 e8 3c 	call	0x79d0	; 0x79d0 <_ZN10UartDriver8sendByteEc>
    16fc:	6a e0       	ldi	r22, 0x0A	; 10
    16fe:	ce 01       	movw	r24, r28
    1700:	0e 94 e8 3c 	call	0x79d0	; 0x79d0 <_ZN10UartDriver8sendByteEc>
    1704:	fe 01       	movw	r30, r28
    1706:	e8 59       	subi	r30, 0x98	; 152
    1708:	ff 4f       	sbci	r31, 0xFF	; 255
    170a:	88 e3       	ldi	r24, 0x38	; 56
    170c:	80 83       	st	Z, r24
    170e:	c7 59       	subi	r28, 0x97	; 151
    1710:	df 4f       	sbci	r29, 0xFF	; 255
    1712:	80 e3       	ldi	r24, 0x30	; 48
    1714:	88 83       	st	Y, r24
    1716:	df 91       	pop	r29
    1718:	cf 91       	pop	r28
    171a:	1f 91       	pop	r17
    171c:	0f 91       	pop	r16
    171e:	ff 90       	pop	r15
    1720:	ef 90       	pop	r14
    1722:	df 90       	pop	r13
    1724:	cf 90       	pop	r12
    1726:	08 95       	ret

00001728 <_ZN5BTOBD10initializeEP10LCD_Driver>:
    1728:	5f 92       	push	r5
    172a:	6f 92       	push	r6
    172c:	7f 92       	push	r7
    172e:	8f 92       	push	r8
    1730:	9f 92       	push	r9
    1732:	af 92       	push	r10
    1734:	bf 92       	push	r11
    1736:	cf 92       	push	r12
    1738:	df 92       	push	r13
    173a:	ef 92       	push	r14
    173c:	ff 92       	push	r15
    173e:	0f 93       	push	r16
    1740:	1f 93       	push	r17
    1742:	cf 93       	push	r28
    1744:	df 93       	push	r29
    1746:	6c 01       	movw	r12, r24
    1748:	eb 01       	movw	r28, r22
    174a:	6d e0       	ldi	r22, 0x0D	; 13
    174c:	66 dc       	rcall	.-1844   	; 0x101a <_ZN5BTOBD7sendCmdEN7OBDCMDS3CMDE>
    174e:	be 01       	movw	r22, r28
    1750:	c6 01       	movw	r24, r12
    1752:	1d dc       	rcall	.-1990   	; 0xf8e <_ZN5BTOBD14waitForNewlineEP10LCD_Driver>
    1754:	61 e1       	ldi	r22, 0x11	; 17
    1756:	c6 01       	movw	r24, r12
    1758:	60 dc       	rcall	.-1856   	; 0x101a <_ZN5BTOBD7sendCmdEN7OBDCMDS3CMDE>
    175a:	be 01       	movw	r22, r28
    175c:	c6 01       	movw	r24, r12
    175e:	17 dc       	rcall	.-2002   	; 0xf8e <_ZN5BTOBD14waitForNewlineEP10LCD_Driver>
    1760:	62 e1       	ldi	r22, 0x12	; 18
    1762:	c6 01       	movw	r24, r12
    1764:	5a dc       	rcall	.-1868   	; 0x101a <_ZN5BTOBD7sendCmdEN7OBDCMDS3CMDE>
    1766:	2f ef       	ldi	r18, 0xFF	; 255
    1768:	33 e2       	ldi	r19, 0x23	; 35
    176a:	84 ef       	ldi	r24, 0xF4	; 244
    176c:	90 e0       	ldi	r25, 0x00	; 0
    176e:	21 50       	subi	r18, 0x01	; 1
    1770:	30 40       	sbci	r19, 0x00	; 0
    1772:	80 40       	sbci	r24, 0x00	; 0
    1774:	90 40       	sbci	r25, 0x00	; 0
    1776:	d9 f7       	brne	.-10     	; 0x176e <_ZN5BTOBD10initializeEP10LCD_Driver+0x46>
    1778:	00 c0       	rjmp	.+0      	; 0x177a <_ZN5BTOBD10initializeEP10LCD_Driver+0x52>
    177a:	00 00       	nop
    177c:	0c 2d       	mov	r16, r12
    177e:	1d 2d       	mov	r17, r13
    1780:	0c c0       	rjmp	.+24     	; 0x179a <_ZN5BTOBD10initializeEP10LCD_Driver+0x72>
    1782:	80 2f       	mov	r24, r16
    1784:	91 2f       	mov	r25, r17
    1786:	0e 94 02 3d 	call	0x7a04	; 0x7a04 <_ZN10UartDriver9rxDequeueEv>
    178a:	e8 81       	ld	r30, Y
    178c:	f9 81       	ldd	r31, Y+1	; 0x01
    178e:	00 88       	ldd	r0, Z+16	; 0x10
    1790:	f1 89       	ldd	r31, Z+17	; 0x11
    1792:	e0 2d       	mov	r30, r0
    1794:	68 2f       	mov	r22, r24
    1796:	ce 01       	movw	r24, r28
    1798:	19 95       	eicall
    179a:	a0 2e       	mov	r10, r16
    179c:	91 2e       	mov	r9, r17
    179e:	80 2f       	mov	r24, r16
    17a0:	91 2f       	mov	r25, r17
    17a2:	0e 94 06 3d 	call	0x7a0c	; 0x7a0c <_ZN10UartDriver9rxIsEmptyEv>
    17a6:	88 23       	and	r24, r24
    17a8:	61 f3       	breq	.-40     	; 0x1782 <_ZN5BTOBD10initializeEP10LCD_Driver+0x5a>
    17aa:	6d e0       	ldi	r22, 0x0D	; 13
    17ac:	c6 01       	movw	r24, r12
    17ae:	35 dc       	rcall	.-1942   	; 0x101a <_ZN5BTOBD7sendCmdEN7OBDCMDS3CMDE>
    17b0:	be 01       	movw	r22, r28
    17b2:	c6 01       	movw	r24, r12
    17b4:	ec db       	rcall	.-2088   	; 0xf8e <_ZN5BTOBD14waitForNewlineEP10LCD_Driver>
    17b6:	0f 2e       	mov	r0, r31
    17b8:	f4 e6       	ldi	r31, 0x64	; 100
    17ba:	5f 2e       	mov	r5, r31
    17bc:	f0 2d       	mov	r31, r0
    17be:	61 2c       	mov	r6, r1
    17c0:	e8 81       	ld	r30, Y
    17c2:	f9 81       	ldd	r31, Y+1	; 0x01
    17c4:	04 84       	ldd	r0, Z+12	; 0x0c
    17c6:	f5 85       	ldd	r31, Z+13	; 0x0d
    17c8:	e0 2d       	mov	r30, r0
    17ca:	60 e0       	ldi	r22, 0x00	; 0
    17cc:	70 e0       	ldi	r23, 0x00	; 0
    17ce:	ce 01       	movw	r24, r28
    17d0:	19 95       	eicall
    17d2:	7c 2e       	mov	r7, r28
    17d4:	8d 2e       	mov	r8, r29
    17d6:	40 e0       	ldi	r20, 0x00	; 0
    17d8:	50 e0       	ldi	r21, 0x00	; 0
    17da:	60 e0       	ldi	r22, 0x00	; 0
    17dc:	70 e0       	ldi	r23, 0x00	; 0
    17de:	ce 01       	movw	r24, r28
    17e0:	12 db       	rcall	.-2524   	; 0xe06 <_ZN12Adafruit_GFX9setCursorEii>
    17e2:	6e e0       	ldi	r22, 0x0E	; 14
    17e4:	c6 01       	movw	r24, r12
    17e6:	19 dc       	rcall	.-1998   	; 0x101a <_ZN5BTOBD7sendCmdEN7OBDCMDS3CMDE>
    17e8:	e5 2c       	mov	r14, r5
    17ea:	f6 2c       	mov	r15, r6
    17ec:	00 e0       	ldi	r16, 0x00	; 0
    17ee:	10 e0       	ldi	r17, 0x00	; 0
    17f0:	2f ef       	ldi	r18, 0xFF	; 255
    17f2:	35 ea       	ldi	r19, 0xA5	; 165
    17f4:	8e e0       	ldi	r24, 0x0E	; 14
    17f6:	21 50       	subi	r18, 0x01	; 1
    17f8:	30 40       	sbci	r19, 0x00	; 0
    17fa:	80 40       	sbci	r24, 0x00	; 0
    17fc:	e1 f7       	brne	.-8      	; 0x17f6 <_ZN5BTOBD10initializeEP10LCD_Driver+0xce>
    17fe:	00 c0       	rjmp	.+0      	; 0x1800 <_ZN5BTOBD10initializeEP10LCD_Driver+0xd8>
    1800:	00 00       	nop
    1802:	13 c0       	rjmp	.+38     	; 0x182a <_ZN5BTOBD10initializeEP10LCD_Driver+0x102>
    1804:	8a 2d       	mov	r24, r10
    1806:	99 2d       	mov	r25, r9
    1808:	0e 94 02 3d 	call	0x7a04	; 0x7a04 <_ZN10UartDriver9rxDequeueEv>
    180c:	b8 2e       	mov	r11, r24
    180e:	e8 81       	ld	r30, Y
    1810:	f9 81       	ldd	r31, Y+1	; 0x01
    1812:	00 88       	ldd	r0, Z+16	; 0x10
    1814:	f1 89       	ldd	r31, Z+17	; 0x11
    1816:	e0 2d       	mov	r30, r0
    1818:	68 2f       	mov	r22, r24
    181a:	87 2d       	mov	r24, r7
    181c:	98 2d       	mov	r25, r8
    181e:	19 95       	eicall
    1820:	9a e0       	ldi	r25, 0x0A	; 10
    1822:	b9 12       	cpse	r11, r25
    1824:	02 c0       	rjmp	.+4      	; 0x182a <_ZN5BTOBD10initializeEP10LCD_Driver+0x102>
    1826:	0f 5f       	subi	r16, 0xFF	; 255
    1828:	1f 4f       	sbci	r17, 0xFF	; 255
    182a:	8a 2d       	mov	r24, r10
    182c:	99 2d       	mov	r25, r9
    182e:	0e 94 06 3d 	call	0x7a0c	; 0x7a0c <_ZN10UartDriver9rxIsEmptyEv>
    1832:	88 23       	and	r24, r24
    1834:	39 f3       	breq	.-50     	; 0x1804 <_ZN5BTOBD10initializeEP10LCD_Driver+0xdc>
    1836:	21 e0       	ldi	r18, 0x01	; 1
    1838:	e2 1a       	sub	r14, r18
    183a:	f1 08       	sbc	r15, r1
    183c:	e1 14       	cp	r14, r1
    183e:	f1 04       	cpc	r15, r1
    1840:	b9 f6       	brne	.-82     	; 0x17f0 <_ZN5BTOBD10initializeEP10LCD_Driver+0xc8>
    1842:	01 30       	cpi	r16, 0x01	; 1
    1844:	11 05       	cpc	r17, r1
    1846:	09 f0       	breq	.+2      	; 0x184a <_ZN5BTOBD10initializeEP10LCD_Driver+0x122>
    1848:	bb cf       	rjmp	.-138    	; 0x17c0 <_ZN5BTOBD10initializeEP10LCD_Driver+0x98>
    184a:	6b e4       	ldi	r22, 0x4B	; 75
    184c:	70 e2       	ldi	r23, 0x20	; 32
    184e:	ce 01       	movw	r24, r28
    1850:	0e 94 5a 2d 	call	0x5ab4	; 0x5ab4 <_ZN10LCD_Driver8writeStrEPc>
    1854:	65 e1       	ldi	r22, 0x15	; 21
    1856:	c6 01       	movw	r24, r12
    1858:	e0 db       	rcall	.-2112   	; 0x101a <_ZN5BTOBD7sendCmdEN7OBDCMDS3CMDE>
    185a:	be 01       	movw	r22, r28
    185c:	c6 01       	movw	r24, r12
    185e:	bb db       	rcall	.-2186   	; 0xfd6 <_ZN5BTOBD13waitForPromptEP10LCD_Driver>
    1860:	66 e1       	ldi	r22, 0x16	; 22
    1862:	c6 01       	movw	r24, r12
    1864:	da db       	rcall	.-2124   	; 0x101a <_ZN5BTOBD7sendCmdEN7OBDCMDS3CMDE>
    1866:	be 01       	movw	r22, r28
    1868:	c6 01       	movw	r24, r12
    186a:	b5 db       	rcall	.-2198   	; 0xfd6 <_ZN5BTOBD13waitForPromptEP10LCD_Driver>
    186c:	67 e1       	ldi	r22, 0x17	; 23
    186e:	c6 01       	movw	r24, r12
    1870:	d4 db       	rcall	.-2136   	; 0x101a <_ZN5BTOBD7sendCmdEN7OBDCMDS3CMDE>
    1872:	be 01       	movw	r22, r28
    1874:	c6 01       	movw	r24, r12
    1876:	af db       	rcall	.-2210   	; 0xfd6 <_ZN5BTOBD13waitForPromptEP10LCD_Driver>
    1878:	68 e1       	ldi	r22, 0x18	; 24
    187a:	c6 01       	movw	r24, r12
    187c:	ce db       	rcall	.-2148   	; 0x101a <_ZN5BTOBD7sendCmdEN7OBDCMDS3CMDE>
    187e:	be 01       	movw	r22, r28
    1880:	c6 01       	movw	r24, r12
    1882:	a9 db       	rcall	.-2222   	; 0xfd6 <_ZN5BTOBD13waitForPromptEP10LCD_Driver>
    1884:	6a e1       	ldi	r22, 0x1A	; 26
    1886:	c6 01       	movw	r24, r12
    1888:	c8 db       	rcall	.-2160   	; 0x101a <_ZN5BTOBD7sendCmdEN7OBDCMDS3CMDE>
    188a:	be 01       	movw	r22, r28
    188c:	c6 01       	movw	r24, r12
    188e:	a3 db       	rcall	.-2234   	; 0xfd6 <_ZN5BTOBD13waitForPromptEP10LCD_Driver>
    1890:	f6 01       	movw	r30, r12
    1892:	e6 59       	subi	r30, 0x96	; 150
    1894:	ff 4f       	sbci	r31, 0xFF	; 255
    1896:	10 82       	st	Z, r1
    1898:	61 e0       	ldi	r22, 0x01	; 1
    189a:	c6 01       	movw	r24, r12
    189c:	be db       	rcall	.-2180   	; 0x101a <_ZN5BTOBD7sendCmdEN7OBDCMDS3CMDE>
    189e:	be 01       	movw	r22, r28
    18a0:	c6 01       	movw	r24, r12
    18a2:	99 db       	rcall	.-2254   	; 0xfd6 <_ZN5BTOBD13waitForPromptEP10LCD_Driver>
    18a4:	81 e0       	ldi	r24, 0x01	; 1
    18a6:	df 91       	pop	r29
    18a8:	cf 91       	pop	r28
    18aa:	1f 91       	pop	r17
    18ac:	0f 91       	pop	r16
    18ae:	ff 90       	pop	r15
    18b0:	ef 90       	pop	r14
    18b2:	df 90       	pop	r13
    18b4:	cf 90       	pop	r12
    18b6:	bf 90       	pop	r11
    18b8:	af 90       	pop	r10
    18ba:	9f 90       	pop	r9
    18bc:	8f 90       	pop	r8
    18be:	7f 90       	pop	r7
    18c0:	6f 90       	pop	r6
    18c2:	5f 90       	pop	r5
    18c4:	08 95       	ret

000018c6 <_ZN5BTOBD10initializeEPcP10LCD_Driver>:
    18c6:	e6 2f       	mov	r30, r22
    18c8:	f7 2f       	mov	r31, r23
    18ca:	dc 01       	movw	r26, r24
    18cc:	5a 96       	adiw	r26, 0x1a	; 26
    18ce:	20 e0       	ldi	r18, 0x00	; 0
    18d0:	30 e0       	ldi	r19, 0x00	; 0
    18d2:	61 91       	ld	r22, Z+
    18d4:	6d 93       	st	X+, r22
    18d6:	2f 5f       	subi	r18, 0xFF	; 255
    18d8:	3f 4f       	sbci	r19, 0xFF	; 255
    18da:	2c 30       	cpi	r18, 0x0C	; 12
    18dc:	31 05       	cpc	r19, r1
    18de:	c9 f7       	brne	.-14     	; 0x18d2 <_ZN5BTOBD10initializeEPcP10LCD_Driver+0xc>
    18e0:	ba 01       	movw	r22, r20
    18e2:	22 cf       	rjmp	.-444    	; 0x1728 <_ZN5BTOBD10initializeEP10LCD_Driver>
    18e4:	08 95       	ret

000018e6 <_ZN5BTOBD7rcvRespEv>:
    18e6:	3f 92       	push	r3
    18e8:	4f 92       	push	r4
    18ea:	5f 92       	push	r5
    18ec:	6f 92       	push	r6
    18ee:	7f 92       	push	r7
    18f0:	8f 92       	push	r8
    18f2:	9f 92       	push	r9
    18f4:	af 92       	push	r10
    18f6:	bf 92       	push	r11
    18f8:	cf 92       	push	r12
    18fa:	df 92       	push	r13
    18fc:	ef 92       	push	r14
    18fe:	ff 92       	push	r15
    1900:	0f 93       	push	r16
    1902:	1f 93       	push	r17
    1904:	cf 93       	push	r28
    1906:	df 93       	push	r29
    1908:	8c 01       	movw	r16, r24
    190a:	fc 01       	movw	r30, r24
    190c:	e6 59       	subi	r30, 0x96	; 150
    190e:	ff 4f       	sbci	r31, 0xFF	; 255
    1910:	80 81       	ld	r24, Z
    1912:	88 23       	and	r24, r24
    1914:	09 f4       	brne	.+2      	; 0x1918 <_ZN5BTOBD7rcvRespEv+0x32>
    1916:	b7 c0       	rjmp	.+366    	; 0x1a86 <_ZN5BTOBD7rcvRespEv+0x1a0>
    1918:	40 2e       	mov	r4, r16
    191a:	51 2e       	mov	r5, r17
    191c:	78 01       	movw	r14, r16
    191e:	28 e6       	ldi	r18, 0x68	; 104
    1920:	e2 0e       	add	r14, r18
    1922:	f1 1c       	adc	r15, r1
    1924:	58 01       	movw	r10, r16
    1926:	39 e6       	ldi	r19, 0x69	; 105
    1928:	a3 0e       	add	r10, r19
    192a:	b1 1c       	adc	r11, r1
    192c:	48 01       	movw	r8, r16
    192e:	86 e6       	ldi	r24, 0x66	; 102
    1930:	88 0e       	add	r8, r24
    1932:	91 1c       	adc	r9, r1
    1934:	68 01       	movw	r12, r16
    1936:	e7 e6       	ldi	r30, 0x67	; 103
    1938:	ce 0e       	add	r12, r30
    193a:	d1 1c       	adc	r13, r1
    193c:	e8 01       	movw	r28, r16
    193e:	c6 59       	subi	r28, 0x96	; 150
    1940:	df 4f       	sbci	r29, 0xFF	; 255
    1942:	84 2d       	mov	r24, r4
    1944:	95 2d       	mov	r25, r5
    1946:	0e 94 02 3d 	call	0x7a04	; 0x7a04 <_ZN10UartDriver9rxDequeueEv>
    194a:	84 2d       	mov	r24, r4
    194c:	95 2d       	mov	r25, r5
    194e:	0e 94 02 3d 	call	0x7a04	; 0x7a04 <_ZN10UartDriver9rxDequeueEv>
    1952:	84 2d       	mov	r24, r4
    1954:	95 2d       	mov	r25, r5
    1956:	0e 94 02 3d 	call	0x7a04	; 0x7a04 <_ZN10UartDriver9rxDequeueEv>
    195a:	84 2d       	mov	r24, r4
    195c:	95 2d       	mov	r25, r5
    195e:	0e 94 02 3d 	call	0x7a04	; 0x7a04 <_ZN10UartDriver9rxDequeueEv>
    1962:	78 2e       	mov	r7, r24
    1964:	84 2d       	mov	r24, r4
    1966:	95 2d       	mov	r25, r5
    1968:	0e 94 02 3d 	call	0x7a04	; 0x7a04 <_ZN10UartDriver9rxDequeueEv>
    196c:	68 2e       	mov	r6, r24
    196e:	84 2d       	mov	r24, r4
    1970:	95 2d       	mov	r25, r5
    1972:	0e 94 02 3d 	call	0x7a04	; 0x7a04 <_ZN10UartDriver9rxDequeueEv>
    1976:	f7 01       	movw	r30, r14
    1978:	80 81       	ld	r24, Z
    197a:	87 11       	cpse	r24, r7
    197c:	04 c0       	rjmp	.+8      	; 0x1986 <_ZN5BTOBD7rcvRespEv+0xa0>
    197e:	f5 01       	movw	r30, r10
    1980:	80 81       	ld	r24, Z
    1982:	86 15       	cp	r24, r6
    1984:	71 f0       	breq	.+28     	; 0x19a2 <_ZN5BTOBD7rcvRespEv+0xbc>
    1986:	84 2d       	mov	r24, r4
    1988:	95 2d       	mov	r25, r5
    198a:	0e 94 02 3d 	call	0x7a04	; 0x7a04 <_ZN10UartDriver9rxDequeueEv>
    198e:	8e 33       	cpi	r24, 0x3E	; 62
    1990:	09 f4       	brne	.+2      	; 0x1994 <_ZN5BTOBD7rcvRespEv+0xae>
    1992:	70 c0       	rjmp	.+224    	; 0x1a74 <_ZN5BTOBD7rcvRespEv+0x18e>
    1994:	84 2d       	mov	r24, r4
    1996:	95 2d       	mov	r25, r5
    1998:	0e 94 06 3d 	call	0x7a0c	; 0x7a0c <_ZN10UartDriver9rxIsEmptyEv>
    199c:	88 23       	and	r24, r24
    199e:	99 f3       	breq	.-26     	; 0x1986 <_ZN5BTOBD7rcvRespEv+0xa0>
    19a0:	69 c0       	rjmp	.+210    	; 0x1a74 <_ZN5BTOBD7rcvRespEv+0x18e>
    19a2:	f4 01       	movw	r30, r8
    19a4:	20 81       	ld	r18, Z
    19a6:	f6 01       	movw	r30, r12
    19a8:	40 81       	ld	r20, Z
    19aa:	30 e0       	ldi	r19, 0x00	; 0
    19ac:	84 2f       	mov	r24, r20
    19ae:	99 27       	eor	r25, r25
    19b0:	87 fd       	sbrc	r24, 7
    19b2:	90 95       	com	r25
    19b4:	28 17       	cp	r18, r24
    19b6:	39 07       	cpc	r19, r25
    19b8:	09 f4       	brne	.+2      	; 0x19bc <_ZN5BTOBD7rcvRespEv+0xd6>
    19ba:	5c c0       	rjmp	.+184    	; 0x1a74 <_ZN5BTOBD7rcvRespEv+0x18e>
    19bc:	f8 01       	movw	r30, r16
    19be:	e4 0f       	add	r30, r20
    19c0:	f1 1d       	adc	r31, r1
    19c2:	65 a8       	ldd	r6, Z+53	; 0x35
    19c4:	71 2c       	mov	r7, r1
    19c6:	80 a5       	ldd	r24, Z+40	; 0x28
    19c8:	93 01       	movw	r18, r6
    19ca:	28 0f       	add	r18, r24
    19cc:	31 1d       	adc	r19, r1
    19ce:	62 16       	cp	r6, r18
    19d0:	73 06       	cpc	r7, r19
    19d2:	64 f5       	brge	.+88     	; 0x1a2c <_ZN5BTOBD7rcvRespEv+0x146>
    19d4:	31 2c       	mov	r3, r1
    19d6:	84 2d       	mov	r24, r4
    19d8:	95 2d       	mov	r25, r5
    19da:	0e 94 02 3d 	call	0x7a04	; 0x7a04 <_ZN10UartDriver9rxDequeueEv>
    19de:	80 32       	cpi	r24, 0x20	; 32
    19e0:	21 f4       	brne	.+8      	; 0x19ea <_ZN5BTOBD7rcvRespEv+0x104>
    19e2:	31 e0       	ldi	r19, 0x01	; 1
    19e4:	63 1a       	sub	r6, r19
    19e6:	71 08       	sbc	r7, r1
    19e8:	10 c0       	rjmp	.+32     	; 0x1a0a <_ZN5BTOBD7rcvRespEv+0x124>
    19ea:	f8 01       	movw	r30, r16
    19ec:	e6 0d       	add	r30, r6
    19ee:	f7 1d       	adc	r31, r7
    19f0:	ea 5b       	subi	r30, 0xBA	; 186
    19f2:	ff 4f       	sbci	r31, 0xFF	; 255
    19f4:	90 81       	ld	r25, Z
    19f6:	98 13       	cpse	r25, r24
    19f8:	02 c0       	rjmp	.+4      	; 0x19fe <_ZN5BTOBD7rcvRespEv+0x118>
    19fa:	33 94       	inc	r3
    19fc:	06 c0       	rjmp	.+12     	; 0x1a0a <_ZN5BTOBD7rcvRespEv+0x124>
    19fe:	f8 01       	movw	r30, r16
    1a00:	e6 0d       	add	r30, r6
    1a02:	f7 1d       	adc	r31, r7
    1a04:	ea 5b       	subi	r30, 0xBA	; 186
    1a06:	ff 4f       	sbci	r31, 0xFF	; 255
    1a08:	80 83       	st	Z, r24
    1a0a:	8f ef       	ldi	r24, 0xFF	; 255
    1a0c:	68 1a       	sub	r6, r24
    1a0e:	78 0a       	sbc	r7, r24
    1a10:	f6 01       	movw	r30, r12
    1a12:	80 81       	ld	r24, Z
    1a14:	f8 01       	movw	r30, r16
    1a16:	e8 0f       	add	r30, r24
    1a18:	f1 1d       	adc	r31, r1
    1a1a:	25 a9       	ldd	r18, Z+53	; 0x35
    1a1c:	80 a5       	ldd	r24, Z+40	; 0x28
    1a1e:	90 e0       	ldi	r25, 0x00	; 0
    1a20:	82 0f       	add	r24, r18
    1a22:	91 1d       	adc	r25, r1
    1a24:	68 16       	cp	r6, r24
    1a26:	79 06       	cpc	r7, r25
    1a28:	b4 f2       	brlt	.-84     	; 0x19d6 <_ZN5BTOBD7rcvRespEv+0xf0>
    1a2a:	01 c0       	rjmp	.+2      	; 0x1a2e <_ZN5BTOBD7rcvRespEv+0x148>
    1a2c:	31 2c       	mov	r3, r1
    1a2e:	84 2d       	mov	r24, r4
    1a30:	95 2d       	mov	r25, r5
    1a32:	0e 94 02 3d 	call	0x7a04	; 0x7a04 <_ZN10UartDriver9rxDequeueEv>
    1a36:	8e 33       	cpi	r24, 0x3E	; 62
    1a38:	31 f0       	breq	.+12     	; 0x1a46 <_ZN5BTOBD7rcvRespEv+0x160>
    1a3a:	84 2d       	mov	r24, r4
    1a3c:	95 2d       	mov	r25, r5
    1a3e:	0e 94 06 3d 	call	0x7a0c	; 0x7a0c <_ZN10UartDriver9rxIsEmptyEv>
    1a42:	88 23       	and	r24, r24
    1a44:	a1 f3       	breq	.-24     	; 0x1a2e <_ZN5BTOBD7rcvRespEv+0x148>
    1a46:	f6 01       	movw	r30, r12
    1a48:	80 81       	ld	r24, Z
    1a4a:	f8 01       	movw	r30, r16
    1a4c:	e8 0f       	add	r30, r24
    1a4e:	f1 1d       	adc	r31, r1
    1a50:	90 a5       	ldd	r25, Z+40	; 0x28
    1a52:	93 15       	cp	r25, r3
    1a54:	79 f0       	breq	.+30     	; 0x1a74 <_ZN5BTOBD7rcvRespEv+0x18e>
    1a56:	21 e0       	ldi	r18, 0x01	; 1
    1a58:	30 e0       	ldi	r19, 0x00	; 0
    1a5a:	02 c0       	rjmp	.+4      	; 0x1a60 <_ZN5BTOBD7rcvRespEv+0x17a>
    1a5c:	22 0f       	add	r18, r18
    1a5e:	33 1f       	adc	r19, r19
    1a60:	8a 95       	dec	r24
    1a62:	e2 f7       	brpl	.-8      	; 0x1a5c <_ZN5BTOBD7rcvRespEv+0x176>
    1a64:	c9 01       	movw	r24, r18
    1a66:	f8 01       	movw	r30, r16
    1a68:	26 a1       	ldd	r18, Z+38	; 0x26
    1a6a:	37 a1       	ldd	r19, Z+39	; 0x27
    1a6c:	82 2b       	or	r24, r18
    1a6e:	93 2b       	or	r25, r19
    1a70:	86 a3       	std	Z+38, r24	; 0x26
    1a72:	97 a3       	std	Z+39, r25	; 0x27
    1a74:	f8 94       	cli
    1a76:	88 81       	ld	r24, Y
    1a78:	81 50       	subi	r24, 0x01	; 1
    1a7a:	88 83       	st	Y, r24
    1a7c:	78 94       	sei
    1a7e:	88 81       	ld	r24, Y
    1a80:	81 11       	cpse	r24, r1
    1a82:	5f cf       	rjmp	.-322    	; 0x1942 <_ZN5BTOBD7rcvRespEv+0x5c>
    1a84:	02 c0       	rjmp	.+4      	; 0x1a8a <_ZN5BTOBD7rcvRespEv+0x1a4>
    1a86:	80 e0       	ldi	r24, 0x00	; 0
    1a88:	01 c0       	rjmp	.+2      	; 0x1a8c <_ZN5BTOBD7rcvRespEv+0x1a6>
    1a8a:	81 e0       	ldi	r24, 0x01	; 1
    1a8c:	df 91       	pop	r29
    1a8e:	cf 91       	pop	r28
    1a90:	1f 91       	pop	r17
    1a92:	0f 91       	pop	r16
    1a94:	ff 90       	pop	r15
    1a96:	ef 90       	pop	r14
    1a98:	df 90       	pop	r13
    1a9a:	cf 90       	pop	r12
    1a9c:	bf 90       	pop	r11
    1a9e:	af 90       	pop	r10
    1aa0:	9f 90       	pop	r9
    1aa2:	8f 90       	pop	r8
    1aa4:	7f 90       	pop	r7
    1aa6:	6f 90       	pop	r6
    1aa8:	5f 90       	pop	r5
    1aaa:	4f 90       	pop	r4
    1aac:	3f 90       	pop	r3
    1aae:	08 95       	ret

00001ab0 <_ZN5BTOBD9getStatusEv>:
    1ab0:	fc 01       	movw	r30, r24
    1ab2:	86 a1       	ldd	r24, Z+38	; 0x26
    1ab4:	97 a1       	ldd	r25, Z+39	; 0x27
    1ab6:	08 95       	ret

00001ab8 <_ZN5BTOBD11clearStatusEv>:
    1ab8:	fc 01       	movw	r30, r24
    1aba:	16 a2       	std	Z+38, r1	; 0x26
    1abc:	17 a2       	std	Z+39, r1	; 0x27
    1abe:	08 95       	ret

00001ac0 <_ZN5BTOBD7sendCmdEP3FIL>:
    1ac0:	cf 92       	push	r12
    1ac2:	df 92       	push	r13
    1ac4:	ef 92       	push	r14
    1ac6:	ff 92       	push	r15
    1ac8:	0f 93       	push	r16
    1aca:	1f 93       	push	r17
    1acc:	cf 93       	push	r28
    1ace:	df 93       	push	r29
    1ad0:	00 d0       	rcall	.+0      	; 0x1ad2 <_ZN5BTOBD7sendCmdEP3FIL+0x12>
    1ad2:	1f 92       	push	r1
    1ad4:	cd b7       	in	r28, 0x3d	; 61
    1ad6:	de b7       	in	r29, 0x3e	; 62
    1ad8:	8c 01       	movw	r16, r24
    1ada:	6b 01       	movw	r12, r22
    1adc:	7c 01       	movw	r14, r24
    1ade:	8b e6       	ldi	r24, 0x6B	; 107
    1ae0:	e8 0e       	add	r14, r24
    1ae2:	f1 1c       	adc	r15, r1
    1ae4:	f7 01       	movw	r30, r14
    1ae6:	80 81       	ld	r24, Z
    1ae8:	f8 01       	movw	r30, r16
    1aea:	e8 0f       	add	r30, r24
    1aec:	f1 1d       	adc	r31, r1
    1aee:	87 fd       	sbrc	r24, 7
    1af0:	fa 95       	dec	r31
    1af2:	ee 5b       	subi	r30, 0xBE	; 190
    1af4:	ff 4f       	sbci	r31, 0xFF	; 255
    1af6:	60 81       	ld	r22, Z
    1af8:	c8 01       	movw	r24, r16
    1afa:	8f da       	rcall	.-2786   	; 0x101a <_ZN5BTOBD7sendCmdEN7OBDCMDS3CMDE>
    1afc:	b6 01       	movw	r22, r12
    1afe:	86 e5       	ldi	r24, 0x56	; 86
    1b00:	90 e2       	ldi	r25, 0x20	; 32
    1b02:	0e 94 06 27 	call	0x4e0c	; 0x4e0c <f_puts>
    1b06:	f7 01       	movw	r30, r14
    1b08:	80 81       	ld	r24, Z
    1b0a:	4a e0       	ldi	r20, 0x0A	; 10
    1b0c:	be 01       	movw	r22, r28
    1b0e:	6f 5f       	subi	r22, 0xFF	; 255
    1b10:	7f 4f       	sbci	r23, 0xFF	; 255
    1b12:	99 27       	eor	r25, r25
    1b14:	87 fd       	sbrc	r24, 7
    1b16:	90 95       	com	r25
    1b18:	0e 94 a8 3f 	call	0x7f50	; 0x7f50 <__itoa_ncheck>
    1b1c:	b6 01       	movw	r22, r12
    1b1e:	0e 94 06 27 	call	0x4e0c	; 0x4e0c <f_puts>
    1b22:	b6 01       	movw	r22, r12
    1b24:	8a e0       	ldi	r24, 0x0A	; 10
    1b26:	0e 94 ca 26 	call	0x4d94	; 0x4d94 <f_putc>
    1b2a:	f7 01       	movw	r30, r14
    1b2c:	80 81       	ld	r24, Z
    1b2e:	8f 5f       	subi	r24, 0xFF	; 255
    1b30:	84 30       	cpi	r24, 0x04	; 4
    1b32:	19 f0       	breq	.+6      	; 0x1b3a <_ZN5BTOBD7sendCmdEP3FIL+0x7a>
    1b34:	f7 01       	movw	r30, r14
    1b36:	80 83       	st	Z, r24
    1b38:	04 c0       	rjmp	.+8      	; 0x1b42 <_ZN5BTOBD7sendCmdEP3FIL+0x82>
    1b3a:	f8 01       	movw	r30, r16
    1b3c:	e5 59       	subi	r30, 0x95	; 149
    1b3e:	ff 4f       	sbci	r31, 0xFF	; 255
    1b40:	10 82       	st	Z, r1
    1b42:	24 96       	adiw	r28, 0x04	; 4
    1b44:	cd bf       	out	0x3d, r28	; 61
    1b46:	de bf       	out	0x3e, r29	; 62
    1b48:	df 91       	pop	r29
    1b4a:	cf 91       	pop	r28
    1b4c:	1f 91       	pop	r17
    1b4e:	0f 91       	pop	r16
    1b50:	ff 90       	pop	r15
    1b52:	ef 90       	pop	r14
    1b54:	df 90       	pop	r13
    1b56:	cf 90       	pop	r12
    1b58:	08 95       	ret

00001b5a <_ZN5BTOBD9getRecentEN7OBDCMDS3CMDE>:

CBUFFER BTOBD::getRecent(OBDCMDS::CMD cmd) {
	CBUFFER returnval;
	uint8_t cint = offsets[cmd];
    1b5a:	fc 01       	movw	r30, r24
    1b5c:	e6 0f       	add	r30, r22
    1b5e:	f1 1d       	adc	r31, r1
    1b60:	25 a9       	ldd	r18, Z+53	; 0x35
	cmdlock = (int8_t) cmd;
    1b62:	dc 01       	movw	r26, r24
    1b64:	aa 59       	subi	r26, 0x9A	; 154
    1b66:	bf 4f       	sbci	r27, 0xFF	; 255
    1b68:	6c 93       	st	X, r22
	returnval.au = buffer[cint++];
    1b6a:	dc 01       	movw	r26, r24
    1b6c:	a2 0f       	add	r26, r18
    1b6e:	b1 1d       	adc	r27, r1
    1b70:	aa 5b       	subi	r26, 0xBA	; 186
    1b72:	bf 4f       	sbci	r27, 0xFF	; 255
    1b74:	6c 91       	ld	r22, X
    1b76:	41 e0       	ldi	r20, 0x01	; 1
    1b78:	42 0f       	add	r20, r18
	returnval.al = buffer[cint++];
    1b7a:	dc 01       	movw	r26, r24
    1b7c:	a4 0f       	add	r26, r20
    1b7e:	b1 1d       	adc	r27, r1
    1b80:	aa 5b       	subi	r26, 0xBA	; 186
    1b82:	bf 4f       	sbci	r27, 0xFF	; 255
    1b84:	7c 91       	ld	r23, X
	if (sizes[cmd] == 4) {
    1b86:	40 a5       	ldd	r20, Z+40	; 0x28
    1b88:	44 30       	cpi	r20, 0x04	; 4
    1b8a:	79 f4       	brne	.+30     	; 0x1baa <_ZN5BTOBD9getRecentEN7OBDCMDS3CMDE+0x50>
CBUFFER BTOBD::getRecent(OBDCMDS::CMD cmd) {
	CBUFFER returnval;
	uint8_t cint = offsets[cmd];
	cmdlock = (int8_t) cmd;
	returnval.au = buffer[cint++];
	returnval.al = buffer[cint++];
    1b8c:	32 e0       	ldi	r19, 0x02	; 2
    1b8e:	32 0f       	add	r19, r18
	if (sizes[cmd] == 4) {
		returnval.bu = buffer[cint++];
    1b90:	fc 01       	movw	r30, r24
    1b92:	e3 0f       	add	r30, r19
    1b94:	f1 1d       	adc	r31, r1
    1b96:	ea 5b       	subi	r30, 0xBA	; 186
    1b98:	ff 4f       	sbci	r31, 0xFF	; 255
    1b9a:	30 81       	ld	r19, Z
    1b9c:	2d 5f       	subi	r18, 0xFD	; 253
		returnval.bl = buffer[cint++];
    1b9e:	fc 01       	movw	r30, r24
    1ba0:	e2 0f       	add	r30, r18
    1ba2:	f1 1d       	adc	r31, r1
    1ba4:	ea 5b       	subi	r30, 0xBA	; 186
    1ba6:	ff 4f       	sbci	r31, 0xFF	; 255
    1ba8:	50 81       	ld	r21, Z
	}
	cmdlock = -1;
    1baa:	fc 01       	movw	r30, r24
    1bac:	ea 59       	subi	r30, 0x9A	; 154
    1bae:	ff 4f       	sbci	r31, 0xFF	; 255
    1bb0:	2f ef       	ldi	r18, 0xFF	; 255
    1bb2:	20 83       	st	Z, r18
	return returnval;
    1bb4:	83 2f       	mov	r24, r19
    1bb6:	95 2f       	mov	r25, r21
    1bb8:	08 95       	ret

00001bba <_ZN9ByteArrayC1Ei>:
	this->_size = size;
	array = (char *) malloc(sizeof(char) * size);
 }

 ByteArray::~ByteArray() {
	free(array);
    1bba:	cf 93       	push	r28
    1bbc:	df 93       	push	r29
    1bbe:	ec 01       	movw	r28, r24
    1bc0:	cb 01       	movw	r24, r22
    1bc2:	68 83       	st	Y, r22
    1bc4:	79 83       	std	Y+1, r23	; 0x01
    1bc6:	0e 94 81 3e 	call	0x7d02	; 0x7d02 <malloc>
    1bca:	8a 83       	std	Y+2, r24	; 0x02
    1bcc:	9b 83       	std	Y+3, r25	; 0x03
    1bce:	df 91       	pop	r29
    1bd0:	cf 91       	pop	r28
    1bd2:	08 95       	ret

00001bd4 <_ZN9ByteArray2atEi>:
 }

char ByteArray::at(int i) {
	return array[i];
    1bd4:	fc 01       	movw	r30, r24
    1bd6:	82 81       	ldd	r24, Z+2	; 0x02
    1bd8:	93 81       	ldd	r25, Z+3	; 0x03
    1bda:	fc 01       	movw	r30, r24
    1bdc:	e6 0f       	add	r30, r22
    1bde:	f7 1f       	adc	r31, r23
 }
    1be0:	80 81       	ld	r24, Z
    1be2:	08 95       	ret

00001be4 <_ZN9ByteArray3setEic>:
 void ByteArray::set(int i, char c) {
	array[i] = c;
    1be4:	fc 01       	movw	r30, r24
    1be6:	82 81       	ldd	r24, Z+2	; 0x02
    1be8:	93 81       	ldd	r25, Z+3	; 0x03
    1bea:	fc 01       	movw	r30, r24
    1bec:	e6 0f       	add	r30, r22
    1bee:	f7 1f       	adc	r31, r23
    1bf0:	40 83       	st	Z, r20
    1bf2:	08 95       	ret

00001bf4 <_ZN9ByteQueueC1Ei>:
 *  Author: ee63pc3-user
 */ 

 #include "ByteQueue.h"

 ByteQueue::ByteQueue(int bufferSize) : queue(bufferSize){
    1bf4:	0f 93       	push	r16
    1bf6:	1f 93       	push	r17
    1bf8:	cf 93       	push	r28
    1bfa:	df 93       	push	r29
    1bfc:	ec 01       	movw	r28, r24
    1bfe:	8b 01       	movw	r16, r22
    1c00:	08 96       	adiw	r24, 0x08	; 8
    1c02:	db df       	rcall	.-74     	; 0x1bba <_ZN9ByteArrayC1Ei>
	max_size = bufferSize;
    1c04:	08 83       	st	Y, r16
    1c06:	19 83       	std	Y+1, r17	; 0x01
	wptr = 0;
    1c08:	1c 82       	std	Y+4, r1	; 0x04
    1c0a:	1d 82       	std	Y+5, r1	; 0x05
	rptr = 0;
    1c0c:	1e 82       	std	Y+6, r1	; 0x06
    1c0e:	1f 82       	std	Y+7, r1	; 0x07
	numitems = 0;
    1c10:	1a 82       	std	Y+2, r1	; 0x02
    1c12:	1b 82       	std	Y+3, r1	; 0x03
 }
    1c14:	df 91       	pop	r29
    1c16:	cf 91       	pop	r28
    1c18:	1f 91       	pop	r17
    1c1a:	0f 91       	pop	r16
    1c1c:	08 95       	ret

00001c1e <_ZN9ByteQueue10dumpToFileEP3FIL>:
 
 	void ByteQueue::dumpToFile(FIL * fp) {
    1c1e:	0f 93       	push	r16
    1c20:	1f 93       	push	r17
    1c22:	cf 93       	push	r28
    1c24:	df 93       	push	r29
    1c26:	cd b7       	in	r28, 0x3d	; 61
    1c28:	de b7       	in	r29, 0x3e	; 62
    1c2a:	28 97       	sbiw	r28, 0x08	; 8
    1c2c:	cd bf       	out	0x3d, r28	; 61
    1c2e:	de bf       	out	0x3e, r29	; 62
    1c30:	8b 01       	movw	r16, r22
		 char b[8];
		 f_puts(itoa(numitems, b, 10),fp);
    1c32:	fc 01       	movw	r30, r24
    1c34:	82 81       	ldd	r24, Z+2	; 0x02
    1c36:	93 81       	ldd	r25, Z+3	; 0x03
    } else if (__radix < 2 || __radix > 36) {
	*__s = 0;
	return __s;
    } else {
	extern char *__itoa_ncheck (int, char *, unsigned char);
	return __itoa_ncheck (__val, __s, __radix);
    1c38:	4a e0       	ldi	r20, 0x0A	; 10
    1c3a:	be 01       	movw	r22, r28
    1c3c:	6f 5f       	subi	r22, 0xFF	; 255
    1c3e:	7f 4f       	sbci	r23, 0xFF	; 255
    1c40:	0e 94 a8 3f 	call	0x7f50	; 0x7f50 <__itoa_ncheck>
    1c44:	b8 01       	movw	r22, r16
    1c46:	0e 94 06 27 	call	0x4e0c	; 0x4e0c <f_puts>
		 f_putc('\n', fp);
    1c4a:	b8 01       	movw	r22, r16
    1c4c:	8a e0       	ldi	r24, 0x0A	; 10
    1c4e:	0e 94 ca 26 	call	0x4d94	; 0x4d94 <f_putc>
	 }
    1c52:	28 96       	adiw	r28, 0x08	; 8
    1c54:	cd bf       	out	0x3d, r28	; 61
    1c56:	de bf       	out	0x3e, r29	; 62
    1c58:	df 91       	pop	r29
    1c5a:	cf 91       	pop	r28
    1c5c:	1f 91       	pop	r17
    1c5e:	0f 91       	pop	r16
    1c60:	08 95       	ret

00001c62 <_ZN9ByteQueue7enqueueEc>:



 void ByteQueue::enqueue(char element){
    1c62:	cf 93       	push	r28
    1c64:	df 93       	push	r29
    1c66:	ec 01       	movw	r28, r24
	 	numitems--;
 	}
	return element;
 }

 bool ByteQueue::isFull() {return numitems == max_size;}
    1c68:	2a 81       	ldd	r18, Y+2	; 0x02
    1c6a:	3b 81       	ldd	r19, Y+3	; 0x03
	 }



 void ByteQueue::enqueue(char element){
	if (!isFull()) {
    1c6c:	88 81       	ld	r24, Y
    1c6e:	99 81       	ldd	r25, Y+1	; 0x01
    1c70:	28 17       	cp	r18, r24
    1c72:	39 07       	cpc	r19, r25
    1c74:	e1 f0       	breq	.+56     	; 0x1cae <_ZN9ByteQueue7enqueueEc+0x4c>
		queue.set(wptr, element);
    1c76:	8c 81       	ldd	r24, Y+4	; 0x04
    1c78:	9d 81       	ldd	r25, Y+5	; 0x05
    1c7a:	46 2f       	mov	r20, r22
    1c7c:	bc 01       	movw	r22, r24
    1c7e:	ce 01       	movw	r24, r28
    1c80:	08 96       	adiw	r24, 0x08	; 8
    1c82:	b0 df       	rcall	.-160    	; 0x1be4 <_ZN9ByteArray3setEic>
		//Took this out because modulus is very expensive on micro
		//(Since we're incrementing by one every time, we don't have to deal with any cases where our
		// pointer is over 2*max_size - 1, this should be more efficient)
		//wptr = (wptr + 1) % (max_size-1);
		if ((++wptr) >= max_size) wptr = wptr - max_size;
    1c84:	8c 81       	ldd	r24, Y+4	; 0x04
    1c86:	9d 81       	ldd	r25, Y+5	; 0x05
    1c88:	01 96       	adiw	r24, 0x01	; 1
    1c8a:	8c 83       	std	Y+4, r24	; 0x04
    1c8c:	9d 83       	std	Y+5, r25	; 0x05
    1c8e:	28 81       	ld	r18, Y
    1c90:	39 81       	ldd	r19, Y+1	; 0x01
    1c92:	82 17       	cp	r24, r18
    1c94:	93 07       	cpc	r25, r19
    1c96:	34 f0       	brlt	.+12     	; 0x1ca4 <_ZN9ByteQueue7enqueueEc+0x42>
    1c98:	8c 81       	ldd	r24, Y+4	; 0x04
    1c9a:	9d 81       	ldd	r25, Y+5	; 0x05
    1c9c:	82 1b       	sub	r24, r18
    1c9e:	93 0b       	sbc	r25, r19
    1ca0:	8c 83       	std	Y+4, r24	; 0x04
    1ca2:	9d 83       	std	Y+5, r25	; 0x05
		numitems++;
    1ca4:	8a 81       	ldd	r24, Y+2	; 0x02
    1ca6:	9b 81       	ldd	r25, Y+3	; 0x03
    1ca8:	01 96       	adiw	r24, 0x01	; 1
    1caa:	8a 83       	std	Y+2, r24	; 0x02
    1cac:	9b 83       	std	Y+3, r25	; 0x03
	}
 }
    1cae:	df 91       	pop	r29
    1cb0:	cf 91       	pop	r28
    1cb2:	08 95       	ret

00001cb4 <_ZN9ByteQueue7dequeueEv>:

 char ByteQueue::dequeue(){
    1cb4:	cf 93       	push	r28
    1cb6:	df 93       	push	r29
    1cb8:	ec 01       	movw	r28, r24
 	}
	return element;
 }

 bool ByteQueue::isFull() {return numitems == max_size;}
 bool ByteQueue::isEmpty(){return numitems == 0;}
    1cba:	8a 81       	ldd	r24, Y+2	; 0x02
    1cbc:	9b 81       	ldd	r25, Y+3	; 0x03
	}
 }

 char ByteQueue::dequeue(){
 	char element = '\0';
	if (!isEmpty()) {
    1cbe:	89 2b       	or	r24, r25
    1cc0:	e9 f0       	breq	.+58     	; 0x1cfc <_ZN9ByteQueue7dequeueEv+0x48>
	 	element = queue.at(rptr);
    1cc2:	6e 81       	ldd	r22, Y+6	; 0x06
    1cc4:	7f 81       	ldd	r23, Y+7	; 0x07
    1cc6:	ce 01       	movw	r24, r28
    1cc8:	08 96       	adiw	r24, 0x08	; 8
    1cca:	84 df       	rcall	.-248    	; 0x1bd4 <_ZN9ByteArray2atEi>
		//Read comment in enqueue()
	 	//rptr = (rptr + 1) % (max_size-1)
		if ((++rptr) >= max_size) rptr = rptr - max_size;
    1ccc:	2e 81       	ldd	r18, Y+6	; 0x06
    1cce:	3f 81       	ldd	r19, Y+7	; 0x07
    1cd0:	2f 5f       	subi	r18, 0xFF	; 255
    1cd2:	3f 4f       	sbci	r19, 0xFF	; 255
    1cd4:	2e 83       	std	Y+6, r18	; 0x06
    1cd6:	3f 83       	std	Y+7, r19	; 0x07
    1cd8:	48 81       	ld	r20, Y
    1cda:	59 81       	ldd	r21, Y+1	; 0x01
    1cdc:	24 17       	cp	r18, r20
    1cde:	35 07       	cpc	r19, r21
    1ce0:	34 f0       	brlt	.+12     	; 0x1cee <_ZN9ByteQueue7dequeueEv+0x3a>
    1ce2:	2e 81       	ldd	r18, Y+6	; 0x06
    1ce4:	3f 81       	ldd	r19, Y+7	; 0x07
    1ce6:	24 1b       	sub	r18, r20
    1ce8:	35 0b       	sbc	r19, r21
    1cea:	2e 83       	std	Y+6, r18	; 0x06
    1cec:	3f 83       	std	Y+7, r19	; 0x07
	 	numitems--;
    1cee:	2a 81       	ldd	r18, Y+2	; 0x02
    1cf0:	3b 81       	ldd	r19, Y+3	; 0x03
    1cf2:	21 50       	subi	r18, 0x01	; 1
    1cf4:	31 09       	sbc	r19, r1
    1cf6:	2a 83       	std	Y+2, r18	; 0x02
    1cf8:	3b 83       	std	Y+3, r19	; 0x03
    1cfa:	01 c0       	rjmp	.+2      	; 0x1cfe <_ZN9ByteQueue7dequeueEv+0x4a>
		numitems++;
	}
 }

 char ByteQueue::dequeue(){
 	char element = '\0';
    1cfc:	80 e0       	ldi	r24, 0x00	; 0
	 	//rptr = (rptr + 1) % (max_size-1)
		if ((++rptr) >= max_size) rptr = rptr - max_size;
	 	numitems--;
 	}
	return element;
 }
    1cfe:	df 91       	pop	r29
    1d00:	cf 91       	pop	r28
    1d02:	08 95       	ret

00001d04 <_ZN9ByteQueue6isFullEv>:

 bool ByteQueue::isFull() {return numitems == max_size;}
    1d04:	fc 01       	movw	r30, r24
    1d06:	42 81       	ldd	r20, Z+2	; 0x02
    1d08:	53 81       	ldd	r21, Z+3	; 0x03
    1d0a:	81 e0       	ldi	r24, 0x01	; 1
    1d0c:	20 81       	ld	r18, Z
    1d0e:	31 81       	ldd	r19, Z+1	; 0x01
    1d10:	42 17       	cp	r20, r18
    1d12:	53 07       	cpc	r21, r19
    1d14:	09 f0       	breq	.+2      	; 0x1d18 <_ZN9ByteQueue6isFullEv+0x14>
    1d16:	80 e0       	ldi	r24, 0x00	; 0
    1d18:	08 95       	ret

00001d1a <_ZN9ByteQueue7isEmptyEv>:
 bool ByteQueue::isEmpty(){return numitems == 0;}
    1d1a:	fc 01       	movw	r30, r24
    1d1c:	22 81       	ldd	r18, Z+2	; 0x02
    1d1e:	33 81       	ldd	r19, Z+3	; 0x03
    1d20:	81 e0       	ldi	r24, 0x01	; 1
    1d22:	23 2b       	or	r18, r19
    1d24:	09 f0       	breq	.+2      	; 0x1d28 <_ZN9ByteQueue7isEmptyEv+0xe>
    1d26:	80 e0       	ldi	r24, 0x00	; 0
    1d28:	08 95       	ret

00001d2a <mem_cpy>:
		n++;
		if (c == '\n') break;		/* Break on EOL */
	}
	*p = 0;
	return n ? buff : 0;			/* When no data read (eof or error), return with error. */
}
    1d2a:	cf 93       	push	r28
    1d2c:	df 93       	push	r29
    1d2e:	1f 92       	push	r1
    1d30:	1f 92       	push	r1
    1d32:	cd b7       	in	r28, 0x3d	; 61
    1d34:	de b7       	in	r29, 0x3e	; 62
    1d36:	fc 01       	movw	r30, r24
    1d38:	db 01       	movw	r26, r22
    1d3a:	49 83       	std	Y+1, r20	; 0x01
    1d3c:	5a 83       	std	Y+2, r21	; 0x02
    1d3e:	89 81       	ldd	r24, Y+1	; 0x01
    1d40:	9a 81       	ldd	r25, Y+2	; 0x02
    1d42:	9c 01       	movw	r18, r24
    1d44:	21 50       	subi	r18, 0x01	; 1
    1d46:	31 09       	sbc	r19, r1
    1d48:	29 83       	std	Y+1, r18	; 0x01
    1d4a:	3a 83       	std	Y+2, r19	; 0x02
    1d4c:	89 2b       	or	r24, r25
    1d4e:	a1 f0       	breq	.+40     	; 0x1d78 <mem_cpy+0x4e>
    1d50:	af 01       	movw	r20, r30
    1d52:	4f 5f       	subi	r20, 0xFF	; 255
    1d54:	5f 4f       	sbci	r21, 0xFF	; 255
    1d56:	bd 01       	movw	r22, r26
    1d58:	6f 5f       	subi	r22, 0xFF	; 255
    1d5a:	7f 4f       	sbci	r23, 0xFF	; 255
    1d5c:	8c 91       	ld	r24, X
    1d5e:	80 83       	st	Z, r24
    1d60:	89 81       	ldd	r24, Y+1	; 0x01
    1d62:	9a 81       	ldd	r25, Y+2	; 0x02
    1d64:	9c 01       	movw	r18, r24
    1d66:	21 50       	subi	r18, 0x01	; 1
    1d68:	31 09       	sbc	r19, r1
    1d6a:	29 83       	std	Y+1, r18	; 0x01
    1d6c:	3a 83       	std	Y+2, r19	; 0x02
    1d6e:	89 2b       	or	r24, r25
    1d70:	19 f0       	breq	.+6      	; 0x1d78 <mem_cpy+0x4e>
    1d72:	db 01       	movw	r26, r22
    1d74:	fa 01       	movw	r30, r20
    1d76:	ec cf       	rjmp	.-40     	; 0x1d50 <mem_cpy+0x26>
    1d78:	0f 90       	pop	r0
    1d7a:	0f 90       	pop	r0
    1d7c:	df 91       	pop	r29
    1d7e:	cf 91       	pop	r28
    1d80:	08 95       	ret

00001d82 <mem_set>:
    1d82:	cf 93       	push	r28
    1d84:	df 93       	push	r29
    1d86:	1f 92       	push	r1
    1d88:	1f 92       	push	r1
    1d8a:	cd b7       	in	r28, 0x3d	; 61
    1d8c:	de b7       	in	r29, 0x3e	; 62
    1d8e:	fc 01       	movw	r30, r24
    1d90:	49 83       	std	Y+1, r20	; 0x01
    1d92:	5a 83       	std	Y+2, r21	; 0x02
    1d94:	89 81       	ldd	r24, Y+1	; 0x01
    1d96:	9a 81       	ldd	r25, Y+2	; 0x02
    1d98:	9c 01       	movw	r18, r24
    1d9a:	21 50       	subi	r18, 0x01	; 1
    1d9c:	31 09       	sbc	r19, r1
    1d9e:	29 83       	std	Y+1, r18	; 0x01
    1da0:	3a 83       	std	Y+2, r19	; 0x02
    1da2:	89 2b       	or	r24, r25
    1da4:	79 f0       	breq	.+30     	; 0x1dc4 <mem_set+0x42>
    1da6:	af 01       	movw	r20, r30
    1da8:	4f 5f       	subi	r20, 0xFF	; 255
    1daa:	5f 4f       	sbci	r21, 0xFF	; 255
    1dac:	60 83       	st	Z, r22
    1dae:	89 81       	ldd	r24, Y+1	; 0x01
    1db0:	9a 81       	ldd	r25, Y+2	; 0x02
    1db2:	9c 01       	movw	r18, r24
    1db4:	21 50       	subi	r18, 0x01	; 1
    1db6:	31 09       	sbc	r19, r1
    1db8:	29 83       	std	Y+1, r18	; 0x01
    1dba:	3a 83       	std	Y+2, r19	; 0x02
    1dbc:	89 2b       	or	r24, r25
    1dbe:	11 f0       	breq	.+4      	; 0x1dc4 <mem_set+0x42>
    1dc0:	fa 01       	movw	r30, r20
    1dc2:	f1 cf       	rjmp	.-30     	; 0x1da6 <mem_set+0x24>
    1dc4:	0f 90       	pop	r0
    1dc6:	0f 90       	pop	r0
    1dc8:	df 91       	pop	r29
    1dca:	cf 91       	pop	r28
    1dcc:	08 95       	ret

00001dce <ld_clust>:
    1dce:	cf 93       	push	r28
    1dd0:	df 93       	push	r29
    1dd2:	00 d0       	rcall	.+0      	; 0x1dd4 <ld_clust+0x6>
    1dd4:	1f 92       	push	r1
    1dd6:	cd b7       	in	r28, 0x3d	; 61
    1dd8:	de b7       	in	r29, 0x3e	; 62
    1dda:	fb 01       	movw	r30, r22
    1ddc:	23 8d       	ldd	r18, Z+27	; 0x1b
    1dde:	42 8d       	ldd	r20, Z+26	; 0x1a
    1de0:	50 e0       	ldi	r21, 0x00	; 0
    1de2:	52 2b       	or	r21, r18
    1de4:	60 e0       	ldi	r22, 0x00	; 0
    1de6:	70 e0       	ldi	r23, 0x00	; 0
    1de8:	49 83       	std	Y+1, r20	; 0x01
    1dea:	5a 83       	std	Y+2, r21	; 0x02
    1dec:	6b 83       	std	Y+3, r22	; 0x03
    1dee:	7c 83       	std	Y+4, r23	; 0x04
    1df0:	dc 01       	movw	r26, r24
    1df2:	8c 91       	ld	r24, X
    1df4:	83 30       	cpi	r24, 0x03	; 3
    1df6:	a9 f4       	brne	.+42     	; 0x1e22 <ld_clust+0x54>
    1df8:	25 89       	ldd	r18, Z+21	; 0x15
    1dfa:	84 89       	ldd	r24, Z+20	; 0x14
    1dfc:	49 81       	ldd	r20, Y+1	; 0x01
    1dfe:	5a 81       	ldd	r21, Y+2	; 0x02
    1e00:	6b 81       	ldd	r22, Y+3	; 0x03
    1e02:	7c 81       	ldd	r23, Y+4	; 0x04
    1e04:	90 e0       	ldi	r25, 0x00	; 0
    1e06:	92 2b       	or	r25, r18
    1e08:	a0 e0       	ldi	r26, 0x00	; 0
    1e0a:	b0 e0       	ldi	r27, 0x00	; 0
    1e0c:	dc 01       	movw	r26, r24
    1e0e:	99 27       	eor	r25, r25
    1e10:	88 27       	eor	r24, r24
    1e12:	84 2b       	or	r24, r20
    1e14:	95 2b       	or	r25, r21
    1e16:	a6 2b       	or	r26, r22
    1e18:	b7 2b       	or	r27, r23
    1e1a:	89 83       	std	Y+1, r24	; 0x01
    1e1c:	9a 83       	std	Y+2, r25	; 0x02
    1e1e:	ab 83       	std	Y+3, r26	; 0x03
    1e20:	bc 83       	std	Y+4, r27	; 0x04
    1e22:	69 81       	ldd	r22, Y+1	; 0x01
    1e24:	7a 81       	ldd	r23, Y+2	; 0x02
    1e26:	8b 81       	ldd	r24, Y+3	; 0x03
    1e28:	9c 81       	ldd	r25, Y+4	; 0x04
    1e2a:	24 96       	adiw	r28, 0x04	; 4
    1e2c:	cd bf       	out	0x3d, r28	; 61
    1e2e:	de bf       	out	0x3e, r29	; 62
    1e30:	df 91       	pop	r29
    1e32:	cf 91       	pop	r28
    1e34:	08 95       	ret

00001e36 <st_clust>:
    1e36:	cf 93       	push	r28
    1e38:	df 93       	push	r29
    1e3a:	00 d0       	rcall	.+0      	; 0x1e3c <st_clust+0x6>
    1e3c:	1f 92       	push	r1
    1e3e:	cd b7       	in	r28, 0x3d	; 61
    1e40:	de b7       	in	r29, 0x3e	; 62
    1e42:	fc 01       	movw	r30, r24
    1e44:	49 83       	std	Y+1, r20	; 0x01
    1e46:	5a 83       	std	Y+2, r21	; 0x02
    1e48:	6b 83       	std	Y+3, r22	; 0x03
    1e4a:	7c 83       	std	Y+4, r23	; 0x04
    1e4c:	49 81       	ldd	r20, Y+1	; 0x01
    1e4e:	5a 81       	ldd	r21, Y+2	; 0x02
    1e50:	6b 81       	ldd	r22, Y+3	; 0x03
    1e52:	7c 81       	ldd	r23, Y+4	; 0x04
    1e54:	42 8f       	std	Z+26, r20	; 0x1a
    1e56:	49 81       	ldd	r20, Y+1	; 0x01
    1e58:	5a 81       	ldd	r21, Y+2	; 0x02
    1e5a:	6b 81       	ldd	r22, Y+3	; 0x03
    1e5c:	7c 81       	ldd	r23, Y+4	; 0x04
    1e5e:	45 2f       	mov	r20, r21
    1e60:	55 27       	eor	r21, r21
    1e62:	43 8f       	std	Z+27, r20	; 0x1b
    1e64:	49 81       	ldd	r20, Y+1	; 0x01
    1e66:	5a 81       	ldd	r21, Y+2	; 0x02
    1e68:	6b 81       	ldd	r22, Y+3	; 0x03
    1e6a:	7c 81       	ldd	r23, Y+4	; 0x04
    1e6c:	ab 01       	movw	r20, r22
    1e6e:	66 27       	eor	r22, r22
    1e70:	77 27       	eor	r23, r23
    1e72:	44 8b       	std	Z+20, r20	; 0x14
    1e74:	49 81       	ldd	r20, Y+1	; 0x01
    1e76:	5a 81       	ldd	r21, Y+2	; 0x02
    1e78:	6b 81       	ldd	r22, Y+3	; 0x03
    1e7a:	7c 81       	ldd	r23, Y+4	; 0x04
    1e7c:	87 2f       	mov	r24, r23
    1e7e:	99 27       	eor	r25, r25
    1e80:	85 8b       	std	Z+21, r24	; 0x15
    1e82:	24 96       	adiw	r28, 0x04	; 4
    1e84:	cd bf       	out	0x3d, r28	; 61
    1e86:	de bf       	out	0x3e, r29	; 62
    1e88:	df 91       	pop	r29
    1e8a:	cf 91       	pop	r28
    1e8c:	08 95       	ret

00001e8e <get_ldnumber>:
    1e8e:	cf 93       	push	r28
    1e90:	df 93       	push	r29
    1e92:	1f 92       	push	r1
    1e94:	1f 92       	push	r1
    1e96:	cd b7       	in	r28, 0x3d	; 61
    1e98:	de b7       	in	r29, 0x3e	; 62
    1e9a:	ac 01       	movw	r20, r24
    1e9c:	fc 01       	movw	r30, r24
    1e9e:	a0 81       	ld	r26, Z
    1ea0:	b1 81       	ldd	r27, Z+1	; 0x01
    1ea2:	10 97       	sbiw	r26, 0x00	; 0
    1ea4:	51 f1       	breq	.+84     	; 0x1efa <get_ldnumber+0x6c>
    1ea6:	8c 91       	ld	r24, X
    1ea8:	81 32       	cpi	r24, 0x21	; 33
    1eaa:	58 f0       	brcs	.+22     	; 0x1ec2 <get_ldnumber+0x34>
    1eac:	8a 33       	cpi	r24, 0x3A	; 58
    1eae:	a1 f1       	breq	.+104    	; 0x1f18 <get_ldnumber+0x8a>
    1eb0:	fd 01       	movw	r30, r26
    1eb2:	31 96       	adiw	r30, 0x01	; 1
    1eb4:	9f 01       	movw	r18, r30
    1eb6:	91 91       	ld	r25, Z+
    1eb8:	91 32       	cpi	r25, 0x21	; 33
    1eba:	28 f0       	brcs	.+10     	; 0x1ec6 <get_ldnumber+0x38>
    1ebc:	9a 33       	cpi	r25, 0x3A	; 58
    1ebe:	d1 f7       	brne	.-12     	; 0x1eb4 <get_ldnumber+0x26>
    1ec0:	04 c0       	rjmp	.+8      	; 0x1eca <get_ldnumber+0x3c>
    1ec2:	98 2f       	mov	r25, r24
    1ec4:	9d 01       	movw	r18, r26
    1ec6:	9a 33       	cpi	r25, 0x3A	; 58
    1ec8:	d9 f4       	brne	.+54     	; 0x1f00 <get_ldnumber+0x72>
    1eca:	90 e0       	ldi	r25, 0x00	; 0
    1ecc:	c0 97       	sbiw	r24, 0x30	; 48
    1ece:	89 83       	std	Y+1, r24	; 0x01
    1ed0:	9a 83       	std	Y+2, r25	; 0x02
    1ed2:	89 81       	ldd	r24, Y+1	; 0x01
    1ed4:	9a 81       	ldd	r25, Y+2	; 0x02
    1ed6:	0a 97       	sbiw	r24, 0x0a	; 10
    1ed8:	b0 f4       	brcc	.+44     	; 0x1f06 <get_ldnumber+0x78>
    1eda:	cd 01       	movw	r24, r26
    1edc:	01 96       	adiw	r24, 0x01	; 1
    1ede:	28 17       	cp	r18, r24
    1ee0:	39 07       	cpc	r19, r25
    1ee2:	a1 f4       	brne	.+40     	; 0x1f0c <get_ldnumber+0x7e>
    1ee4:	89 81       	ldd	r24, Y+1	; 0x01
    1ee6:	9a 81       	ldd	r25, Y+2	; 0x02
    1ee8:	89 2b       	or	r24, r25
    1eea:	99 f4       	brne	.+38     	; 0x1f12 <get_ldnumber+0x84>
    1eec:	89 81       	ldd	r24, Y+1	; 0x01
    1eee:	9a 81       	ldd	r25, Y+2	; 0x02
    1ef0:	12 96       	adiw	r26, 0x02	; 2
    1ef2:	fa 01       	movw	r30, r20
    1ef4:	a0 83       	st	Z, r26
    1ef6:	b1 83       	std	Z+1, r27	; 0x01
    1ef8:	11 c0       	rjmp	.+34     	; 0x1f1c <get_ldnumber+0x8e>
    1efa:	8f ef       	ldi	r24, 0xFF	; 255
    1efc:	9f ef       	ldi	r25, 0xFF	; 255
    1efe:	0e c0       	rjmp	.+28     	; 0x1f1c <get_ldnumber+0x8e>
    1f00:	80 e0       	ldi	r24, 0x00	; 0
    1f02:	90 e0       	ldi	r25, 0x00	; 0
    1f04:	0b c0       	rjmp	.+22     	; 0x1f1c <get_ldnumber+0x8e>
    1f06:	8f ef       	ldi	r24, 0xFF	; 255
    1f08:	9f ef       	ldi	r25, 0xFF	; 255
    1f0a:	08 c0       	rjmp	.+16     	; 0x1f1c <get_ldnumber+0x8e>
    1f0c:	8f ef       	ldi	r24, 0xFF	; 255
    1f0e:	9f ef       	ldi	r25, 0xFF	; 255
    1f10:	05 c0       	rjmp	.+10     	; 0x1f1c <get_ldnumber+0x8e>
    1f12:	8f ef       	ldi	r24, 0xFF	; 255
    1f14:	9f ef       	ldi	r25, 0xFF	; 255
    1f16:	02 c0       	rjmp	.+4      	; 0x1f1c <get_ldnumber+0x8e>
    1f18:	9d 01       	movw	r18, r26
    1f1a:	d7 cf       	rjmp	.-82     	; 0x1eca <get_ldnumber+0x3c>
    1f1c:	0f 90       	pop	r0
    1f1e:	0f 90       	pop	r0
    1f20:	df 91       	pop	r29
    1f22:	cf 91       	pop	r28
    1f24:	08 95       	ret

00001f26 <sync_window>:
    1f26:	cf 92       	push	r12
    1f28:	df 92       	push	r13
    1f2a:	ef 92       	push	r14
    1f2c:	ff 92       	push	r15
    1f2e:	0f 93       	push	r16
    1f30:	1f 93       	push	r17
    1f32:	cf 93       	push	r28
    1f34:	df 93       	push	r29
    1f36:	00 d0       	rcall	.+0      	; 0x1f38 <sync_window+0x12>
    1f38:	00 d0       	rcall	.+0      	; 0x1f3a <sync_window+0x14>
    1f3a:	cd b7       	in	r28, 0x3d	; 61
    1f3c:	de b7       	in	r29, 0x3e	; 62
    1f3e:	7c 01       	movw	r14, r24
    1f40:	fc 01       	movw	r30, r24
    1f42:	84 81       	ldd	r24, Z+4	; 0x04
    1f44:	88 23       	and	r24, r24
    1f46:	09 f4       	brne	.+2      	; 0x1f4a <sync_window+0x24>
    1f48:	5d c0       	rjmp	.+186    	; 0x2004 <sync_window+0xde>
    1f4a:	82 a5       	ldd	r24, Z+42	; 0x2a
    1f4c:	93 a5       	ldd	r25, Z+43	; 0x2b
    1f4e:	a4 a5       	ldd	r26, Z+44	; 0x2c
    1f50:	b5 a5       	ldd	r27, Z+45	; 0x2d
    1f52:	89 83       	std	Y+1, r24	; 0x01
    1f54:	9a 83       	std	Y+2, r25	; 0x02
    1f56:	ab 83       	std	Y+3, r26	; 0x03
    1f58:	bc 83       	std	Y+4, r27	; 0x04
    1f5a:	29 81       	ldd	r18, Y+1	; 0x01
    1f5c:	3a 81       	ldd	r19, Y+2	; 0x02
    1f5e:	4b 81       	ldd	r20, Y+3	; 0x03
    1f60:	5c 81       	ldd	r21, Y+4	; 0x04
    1f62:	67 01       	movw	r12, r14
    1f64:	fe e2       	ldi	r31, 0x2E	; 46
    1f66:	cf 0e       	add	r12, r31
    1f68:	d1 1c       	adc	r13, r1
    1f6a:	f7 01       	movw	r30, r14
    1f6c:	81 81       	ldd	r24, Z+1	; 0x01
    1f6e:	01 e0       	ldi	r16, 0x01	; 1
    1f70:	10 e0       	ldi	r17, 0x00	; 0
    1f72:	b6 01       	movw	r22, r12
    1f74:	0e 94 5b 39 	call	0x72b6	; 0x72b6 <disk_write>
    1f78:	81 11       	cpse	r24, r1
    1f7a:	46 c0       	rjmp	.+140    	; 0x2008 <sync_window+0xe2>
    1f7c:	f7 01       	movw	r30, r14
    1f7e:	14 82       	std	Z+4, r1	; 0x04
    1f80:	49 81       	ldd	r20, Y+1	; 0x01
    1f82:	5a 81       	ldd	r21, Y+2	; 0x02
    1f84:	6b 81       	ldd	r22, Y+3	; 0x03
    1f86:	7c 81       	ldd	r23, Y+4	; 0x04
    1f88:	06 8d       	ldd	r16, Z+30	; 0x1e
    1f8a:	17 8d       	ldd	r17, Z+31	; 0x1f
    1f8c:	20 a1       	ldd	r18, Z+32	; 0x20
    1f8e:	31 a1       	ldd	r19, Z+33	; 0x21
    1f90:	86 89       	ldd	r24, Z+22	; 0x16
    1f92:	97 89       	ldd	r25, Z+23	; 0x17
    1f94:	a0 8d       	ldd	r26, Z+24	; 0x18
    1f96:	b1 8d       	ldd	r27, Z+25	; 0x19
    1f98:	40 1b       	sub	r20, r16
    1f9a:	51 0b       	sbc	r21, r17
    1f9c:	62 0b       	sbc	r22, r18
    1f9e:	73 0b       	sbc	r23, r19
    1fa0:	48 17       	cp	r20, r24
    1fa2:	59 07       	cpc	r21, r25
    1fa4:	6a 07       	cpc	r22, r26
    1fa6:	7b 07       	cpc	r23, r27
    1fa8:	88 f5       	brcc	.+98     	; 0x200c <sync_window+0xe6>
    1faa:	83 81       	ldd	r24, Z+3	; 0x03
    1fac:	90 e0       	ldi	r25, 0x00	; 0
    1fae:	8d 83       	std	Y+5, r24	; 0x05
    1fb0:	9e 83       	std	Y+6, r25	; 0x06
    1fb2:	8d 81       	ldd	r24, Y+5	; 0x05
    1fb4:	9e 81       	ldd	r25, Y+6	; 0x06
    1fb6:	02 97       	sbiw	r24, 0x02	; 2
    1fb8:	58 f1       	brcs	.+86     	; 0x2010 <sync_window+0xea>
    1fba:	f7 01       	movw	r30, r14
    1fbc:	86 89       	ldd	r24, Z+22	; 0x16
    1fbe:	97 89       	ldd	r25, Z+23	; 0x17
    1fc0:	a0 8d       	ldd	r26, Z+24	; 0x18
    1fc2:	b1 8d       	ldd	r27, Z+25	; 0x19
    1fc4:	49 81       	ldd	r20, Y+1	; 0x01
    1fc6:	5a 81       	ldd	r21, Y+2	; 0x02
    1fc8:	6b 81       	ldd	r22, Y+3	; 0x03
    1fca:	7c 81       	ldd	r23, Y+4	; 0x04
    1fcc:	84 0f       	add	r24, r20
    1fce:	95 1f       	adc	r25, r21
    1fd0:	a6 1f       	adc	r26, r22
    1fd2:	b7 1f       	adc	r27, r23
    1fd4:	89 83       	std	Y+1, r24	; 0x01
    1fd6:	9a 83       	std	Y+2, r25	; 0x02
    1fd8:	ab 83       	std	Y+3, r26	; 0x03
    1fda:	bc 83       	std	Y+4, r27	; 0x04
    1fdc:	29 81       	ldd	r18, Y+1	; 0x01
    1fde:	3a 81       	ldd	r19, Y+2	; 0x02
    1fe0:	4b 81       	ldd	r20, Y+3	; 0x03
    1fe2:	5c 81       	ldd	r21, Y+4	; 0x04
    1fe4:	81 81       	ldd	r24, Z+1	; 0x01
    1fe6:	01 e0       	ldi	r16, 0x01	; 1
    1fe8:	10 e0       	ldi	r17, 0x00	; 0
    1fea:	b6 01       	movw	r22, r12
    1fec:	0e 94 5b 39 	call	0x72b6	; 0x72b6 <disk_write>
    1ff0:	8d 81       	ldd	r24, Y+5	; 0x05
    1ff2:	9e 81       	ldd	r25, Y+6	; 0x06
    1ff4:	01 97       	sbiw	r24, 0x01	; 1
    1ff6:	8d 83       	std	Y+5, r24	; 0x05
    1ff8:	9e 83       	std	Y+6, r25	; 0x06
    1ffa:	8d 81       	ldd	r24, Y+5	; 0x05
    1ffc:	9e 81       	ldd	r25, Y+6	; 0x06
    1ffe:	02 97       	sbiw	r24, 0x02	; 2
    2000:	e0 f6       	brcc	.-72     	; 0x1fba <sync_window+0x94>
    2002:	08 c0       	rjmp	.+16     	; 0x2014 <sync_window+0xee>
    2004:	80 e0       	ldi	r24, 0x00	; 0
    2006:	07 c0       	rjmp	.+14     	; 0x2016 <sync_window+0xf0>
    2008:	81 e0       	ldi	r24, 0x01	; 1
    200a:	05 c0       	rjmp	.+10     	; 0x2016 <sync_window+0xf0>
    200c:	80 e0       	ldi	r24, 0x00	; 0
    200e:	03 c0       	rjmp	.+6      	; 0x2016 <sync_window+0xf0>
    2010:	80 e0       	ldi	r24, 0x00	; 0
    2012:	01 c0       	rjmp	.+2      	; 0x2016 <sync_window+0xf0>
    2014:	80 e0       	ldi	r24, 0x00	; 0
    2016:	26 96       	adiw	r28, 0x06	; 6
    2018:	cd bf       	out	0x3d, r28	; 61
    201a:	de bf       	out	0x3e, r29	; 62
    201c:	df 91       	pop	r29
    201e:	cf 91       	pop	r28
    2020:	1f 91       	pop	r17
    2022:	0f 91       	pop	r16
    2024:	ff 90       	pop	r15
    2026:	ef 90       	pop	r14
    2028:	df 90       	pop	r13
    202a:	cf 90       	pop	r12
    202c:	08 95       	ret

0000202e <move_window>:
    202e:	ef 92       	push	r14
    2030:	ff 92       	push	r15
    2032:	0f 93       	push	r16
    2034:	1f 93       	push	r17
    2036:	cf 93       	push	r28
    2038:	df 93       	push	r29
    203a:	00 d0       	rcall	.+0      	; 0x203c <move_window+0xe>
    203c:	1f 92       	push	r1
    203e:	cd b7       	in	r28, 0x3d	; 61
    2040:	de b7       	in	r29, 0x3e	; 62
    2042:	7c 01       	movw	r14, r24
    2044:	49 83       	std	Y+1, r20	; 0x01
    2046:	5a 83       	std	Y+2, r21	; 0x02
    2048:	6b 83       	std	Y+3, r22	; 0x03
    204a:	7c 83       	std	Y+4, r23	; 0x04
    204c:	fc 01       	movw	r30, r24
    204e:	82 a5       	ldd	r24, Z+42	; 0x2a
    2050:	93 a5       	ldd	r25, Z+43	; 0x2b
    2052:	a4 a5       	ldd	r26, Z+44	; 0x2c
    2054:	b5 a5       	ldd	r27, Z+45	; 0x2d
    2056:	49 81       	ldd	r20, Y+1	; 0x01
    2058:	5a 81       	ldd	r21, Y+2	; 0x02
    205a:	6b 81       	ldd	r22, Y+3	; 0x03
    205c:	7c 81       	ldd	r23, Y+4	; 0x04
    205e:	84 17       	cp	r24, r20
    2060:	95 07       	cpc	r25, r21
    2062:	a6 07       	cpc	r26, r22
    2064:	b7 07       	cpc	r27, r23
    2066:	f1 f0       	breq	.+60     	; 0x20a4 <move_window+0x76>
    2068:	c7 01       	movw	r24, r14
    206a:	5d df       	rcall	.-326    	; 0x1f26 <sync_window>
    206c:	81 11       	cpse	r24, r1
    206e:	1c c0       	rjmp	.+56     	; 0x20a8 <move_window+0x7a>
    2070:	29 81       	ldd	r18, Y+1	; 0x01
    2072:	3a 81       	ldd	r19, Y+2	; 0x02
    2074:	4b 81       	ldd	r20, Y+3	; 0x03
    2076:	5c 81       	ldd	r21, Y+4	; 0x04
    2078:	f7 01       	movw	r30, r14
    207a:	81 81       	ldd	r24, Z+1	; 0x01
    207c:	01 e0       	ldi	r16, 0x01	; 1
    207e:	10 e0       	ldi	r17, 0x00	; 0
    2080:	b7 01       	movw	r22, r14
    2082:	62 5d       	subi	r22, 0xD2	; 210
    2084:	7f 4f       	sbci	r23, 0xFF	; 255
    2086:	0e 94 9e 38 	call	0x713c	; 0x713c <disk_read>
    208a:	81 11       	cpse	r24, r1
    208c:	0f c0       	rjmp	.+30     	; 0x20ac <move_window+0x7e>
    208e:	89 81       	ldd	r24, Y+1	; 0x01
    2090:	9a 81       	ldd	r25, Y+2	; 0x02
    2092:	ab 81       	ldd	r26, Y+3	; 0x03
    2094:	bc 81       	ldd	r27, Y+4	; 0x04
    2096:	f7 01       	movw	r30, r14
    2098:	82 a7       	std	Z+42, r24	; 0x2a
    209a:	93 a7       	std	Z+43, r25	; 0x2b
    209c:	a4 a7       	std	Z+44, r26	; 0x2c
    209e:	b5 a7       	std	Z+45, r27	; 0x2d
    20a0:	80 e0       	ldi	r24, 0x00	; 0
    20a2:	05 c0       	rjmp	.+10     	; 0x20ae <move_window+0x80>
    20a4:	80 e0       	ldi	r24, 0x00	; 0
    20a6:	03 c0       	rjmp	.+6      	; 0x20ae <move_window+0x80>
    20a8:	81 e0       	ldi	r24, 0x01	; 1
    20aa:	01 c0       	rjmp	.+2      	; 0x20ae <move_window+0x80>
    20ac:	81 e0       	ldi	r24, 0x01	; 1
    20ae:	24 96       	adiw	r28, 0x04	; 4
    20b0:	cd bf       	out	0x3d, r28	; 61
    20b2:	de bf       	out	0x3e, r29	; 62
    20b4:	df 91       	pop	r29
    20b6:	cf 91       	pop	r28
    20b8:	1f 91       	pop	r17
    20ba:	0f 91       	pop	r16
    20bc:	ff 90       	pop	r15
    20be:	ef 90       	pop	r14
    20c0:	08 95       	ret

000020c2 <check_fs>:
    20c2:	0f 93       	push	r16
    20c4:	1f 93       	push	r17
    20c6:	cf 93       	push	r28
    20c8:	df 93       	push	r29
    20ca:	00 d0       	rcall	.+0      	; 0x20cc <check_fs+0xa>
    20cc:	1f 92       	push	r1
    20ce:	cd b7       	in	r28, 0x3d	; 61
    20d0:	de b7       	in	r29, 0x3e	; 62
    20d2:	8c 01       	movw	r16, r24
    20d4:	49 83       	std	Y+1, r20	; 0x01
    20d6:	5a 83       	std	Y+2, r21	; 0x02
    20d8:	6b 83       	std	Y+3, r22	; 0x03
    20da:	7c 83       	std	Y+4, r23	; 0x04
    20dc:	fc 01       	movw	r30, r24
    20de:	14 82       	std	Z+4, r1	; 0x04
    20e0:	8f ef       	ldi	r24, 0xFF	; 255
    20e2:	9f ef       	ldi	r25, 0xFF	; 255
    20e4:	dc 01       	movw	r26, r24
    20e6:	82 a7       	std	Z+42, r24	; 0x2a
    20e8:	93 a7       	std	Z+43, r25	; 0x2b
    20ea:	a4 a7       	std	Z+44, r26	; 0x2c
    20ec:	b5 a7       	std	Z+45, r27	; 0x2d
    20ee:	49 81       	ldd	r20, Y+1	; 0x01
    20f0:	5a 81       	ldd	r21, Y+2	; 0x02
    20f2:	6b 81       	ldd	r22, Y+3	; 0x03
    20f4:	7c 81       	ldd	r23, Y+4	; 0x04
    20f6:	c8 01       	movw	r24, r16
    20f8:	9a df       	rcall	.-204    	; 0x202e <move_window>
    20fa:	81 11       	cpse	r24, r1
    20fc:	4f c0       	rjmp	.+158    	; 0x219c <check_fs+0xda>
    20fe:	f8 01       	movw	r30, r16
    2100:	e3 5d       	subi	r30, 0xD3	; 211
    2102:	fd 4f       	sbci	r31, 0xFD	; 253
    2104:	20 81       	ld	r18, Z
    2106:	31 97       	sbiw	r30, 0x01	; 1
    2108:	80 81       	ld	r24, Z
    210a:	90 e0       	ldi	r25, 0x00	; 0
    210c:	92 2b       	or	r25, r18
    210e:	85 35       	cpi	r24, 0x55	; 85
    2110:	9a 4a       	sbci	r25, 0xAA	; 170
    2112:	09 f0       	breq	.+2      	; 0x2116 <check_fs+0x54>
    2114:	45 c0       	rjmp	.+138    	; 0x21a0 <check_fs+0xde>
    2116:	f8 01       	movw	r30, r16
    2118:	e9 59       	subi	r30, 0x99	; 153
    211a:	ff 4f       	sbci	r31, 0xFF	; 255
    211c:	30 81       	ld	r19, Z
    211e:	31 97       	sbiw	r30, 0x01	; 1
    2120:	80 81       	ld	r24, Z
    2122:	31 97       	sbiw	r30, 0x01	; 1
    2124:	40 81       	ld	r20, Z
    2126:	31 97       	sbiw	r30, 0x01	; 1
    2128:	20 81       	ld	r18, Z
    212a:	90 e0       	ldi	r25, 0x00	; 0
    212c:	a0 e0       	ldi	r26, 0x00	; 0
    212e:	b0 e0       	ldi	r27, 0x00	; 0
    2130:	dc 01       	movw	r26, r24
    2132:	99 27       	eor	r25, r25
    2134:	88 27       	eor	r24, r24
    2136:	b3 2b       	or	r27, r19
    2138:	82 2b       	or	r24, r18
    213a:	50 e0       	ldi	r21, 0x00	; 0
    213c:	54 2f       	mov	r21, r20
    213e:	44 27       	eor	r20, r20
    2140:	60 e0       	ldi	r22, 0x00	; 0
    2142:	70 e0       	ldi	r23, 0x00	; 0
    2144:	84 2b       	or	r24, r20
    2146:	95 2b       	or	r25, r21
    2148:	a6 2b       	or	r26, r22
    214a:	b7 2b       	or	r27, r23
    214c:	bb 27       	eor	r27, r27
    214e:	86 34       	cpi	r24, 0x46	; 70
    2150:	91 44       	sbci	r25, 0x41	; 65
    2152:	a4 45       	sbci	r26, 0x54	; 84
    2154:	b1 05       	cpc	r27, r1
    2156:	31 f1       	breq	.+76     	; 0x21a4 <check_fs+0xe2>
    2158:	7f 96       	adiw	r30, 0x1f	; 31
    215a:	20 81       	ld	r18, Z
    215c:	31 97       	sbiw	r30, 0x01	; 1
    215e:	40 81       	ld	r20, Z
    2160:	31 97       	sbiw	r30, 0x01	; 1
    2162:	80 81       	ld	r24, Z
    2164:	31 97       	sbiw	r30, 0x01	; 1
    2166:	90 81       	ld	r25, Z
    2168:	50 e0       	ldi	r21, 0x00	; 0
    216a:	60 e0       	ldi	r22, 0x00	; 0
    216c:	70 e0       	ldi	r23, 0x00	; 0
    216e:	ba 01       	movw	r22, r20
    2170:	55 27       	eor	r21, r21
    2172:	44 27       	eor	r20, r20
    2174:	72 2b       	or	r23, r18
    2176:	49 2b       	or	r20, r25
    2178:	90 e0       	ldi	r25, 0x00	; 0
    217a:	98 2f       	mov	r25, r24
    217c:	88 27       	eor	r24, r24
    217e:	a0 e0       	ldi	r26, 0x00	; 0
    2180:	b0 e0       	ldi	r27, 0x00	; 0
    2182:	48 2b       	or	r20, r24
    2184:	59 2b       	or	r21, r25
    2186:	6a 2b       	or	r22, r26
    2188:	7b 2b       	or	r23, r27
    218a:	77 27       	eor	r23, r23
    218c:	81 e0       	ldi	r24, 0x01	; 1
    218e:	46 34       	cpi	r20, 0x46	; 70
    2190:	51 44       	sbci	r21, 0x41	; 65
    2192:	64 45       	sbci	r22, 0x54	; 84
    2194:	71 05       	cpc	r23, r1
    2196:	39 f4       	brne	.+14     	; 0x21a6 <check_fs+0xe4>
    2198:	80 e0       	ldi	r24, 0x00	; 0
    219a:	05 c0       	rjmp	.+10     	; 0x21a6 <check_fs+0xe4>
    219c:	83 e0       	ldi	r24, 0x03	; 3
    219e:	03 c0       	rjmp	.+6      	; 0x21a6 <check_fs+0xe4>
    21a0:	82 e0       	ldi	r24, 0x02	; 2
    21a2:	01 c0       	rjmp	.+2      	; 0x21a6 <check_fs+0xe4>
    21a4:	80 e0       	ldi	r24, 0x00	; 0
    21a6:	24 96       	adiw	r28, 0x04	; 4
    21a8:	cd bf       	out	0x3d, r28	; 61
    21aa:	de bf       	out	0x3e, r29	; 62
    21ac:	df 91       	pop	r29
    21ae:	cf 91       	pop	r28
    21b0:	1f 91       	pop	r17
    21b2:	0f 91       	pop	r16
    21b4:	08 95       	ret

000021b6 <validate>:
    21b6:	00 97       	sbiw	r24, 0x00	; 0
    21b8:	c9 f0       	breq	.+50     	; 0x21ec <validate+0x36>
    21ba:	dc 01       	movw	r26, r24
    21bc:	ed 91       	ld	r30, X+
    21be:	fc 91       	ld	r31, X
    21c0:	11 97       	sbiw	r26, 0x01	; 1
    21c2:	30 97       	sbiw	r30, 0x00	; 0
    21c4:	a9 f0       	breq	.+42     	; 0x21f0 <validate+0x3a>
    21c6:	20 81       	ld	r18, Z
    21c8:	22 23       	and	r18, r18
    21ca:	a1 f0       	breq	.+40     	; 0x21f4 <validate+0x3e>
    21cc:	26 81       	ldd	r18, Z+6	; 0x06
    21ce:	37 81       	ldd	r19, Z+7	; 0x07
    21d0:	12 96       	adiw	r26, 0x02	; 2
    21d2:	8d 91       	ld	r24, X+
    21d4:	9c 91       	ld	r25, X
    21d6:	13 97       	sbiw	r26, 0x03	; 3
    21d8:	28 17       	cp	r18, r24
    21da:	39 07       	cpc	r19, r25
    21dc:	69 f4       	brne	.+26     	; 0x21f8 <validate+0x42>
    21de:	81 81       	ldd	r24, Z+1	; 0x01
    21e0:	0e 94 74 35 	call	0x6ae8	; 0x6ae8 <disk_status>
    21e4:	80 ff       	sbrs	r24, 0
    21e6:	0a c0       	rjmp	.+20     	; 0x21fc <validate+0x46>
    21e8:	83 e0       	ldi	r24, 0x03	; 3
    21ea:	08 95       	ret
    21ec:	89 e0       	ldi	r24, 0x09	; 9
    21ee:	08 95       	ret
    21f0:	89 e0       	ldi	r24, 0x09	; 9
    21f2:	08 95       	ret
    21f4:	89 e0       	ldi	r24, 0x09	; 9
    21f6:	08 95       	ret
    21f8:	89 e0       	ldi	r24, 0x09	; 9
    21fa:	08 95       	ret
    21fc:	80 e0       	ldi	r24, 0x00	; 0
    21fe:	08 95       	ret

00002200 <find_volume>:
    2200:	cf 92       	push	r12
    2202:	df 92       	push	r13
    2204:	ef 92       	push	r14
    2206:	ff 92       	push	r15
    2208:	0f 93       	push	r16
    220a:	1f 93       	push	r17
    220c:	cf 93       	push	r28
    220e:	df 93       	push	r29
    2210:	cd b7       	in	r28, 0x3d	; 61
    2212:	de b7       	in	r29, 0x3e	; 62
    2214:	af 97       	sbiw	r28, 0x2f	; 47
    2216:	cd bf       	out	0x3d, r28	; 61
    2218:	de bf       	out	0x3e, r29	; 62
    221a:	6c 01       	movw	r12, r24
    221c:	cb 01       	movw	r24, r22
    221e:	4f a7       	std	Y+47, r20	; 0x2f
    2220:	f6 01       	movw	r30, r12
    2222:	10 82       	st	Z, r1
    2224:	11 82       	std	Z+1, r1	; 0x01
    2226:	33 de       	rcall	.-922    	; 0x1e8e <get_ldnumber>
    2228:	7c 01       	movw	r14, r24
    222a:	99 23       	and	r25, r25
    222c:	0c f4       	brge	.+2      	; 0x2230 <find_volume+0x30>
    222e:	71 c3       	rjmp	.+1762   	; 0x2912 <find_volume+0x712>
    2230:	fc 01       	movw	r30, r24
    2232:	ee 0f       	add	r30, r30
    2234:	ff 1f       	adc	r31, r31
    2236:	e4 58       	subi	r30, 0x84	; 132
    2238:	fe 4d       	sbci	r31, 0xDE	; 222
    223a:	00 81       	ld	r16, Z
    223c:	11 81       	ldd	r17, Z+1	; 0x01
    223e:	01 15       	cp	r16, r1
    2240:	11 05       	cpc	r17, r1
    2242:	09 f4       	brne	.+2      	; 0x2246 <find_volume+0x46>
    2244:	68 c3       	rjmp	.+1744   	; 0x2916 <find_volume+0x716>
    2246:	f6 01       	movw	r30, r12
    2248:	00 83       	st	Z, r16
    224a:	11 83       	std	Z+1, r17	; 0x01
    224c:	f8 01       	movw	r30, r16
    224e:	80 81       	ld	r24, Z
    2250:	88 23       	and	r24, r24
    2252:	81 f0       	breq	.+32     	; 0x2274 <find_volume+0x74>
    2254:	81 81       	ldd	r24, Z+1	; 0x01
    2256:	0e 94 74 35 	call	0x6ae8	; 0x6ae8 <disk_status>
    225a:	8a 83       	std	Y+2, r24	; 0x02
    225c:	8a 81       	ldd	r24, Y+2	; 0x02
    225e:	80 fd       	sbrc	r24, 0
    2260:	09 c0       	rjmp	.+18     	; 0x2274 <find_volume+0x74>
    2262:	8f a5       	ldd	r24, Y+47	; 0x2f
    2264:	88 23       	and	r24, r24
    2266:	09 f4       	brne	.+2      	; 0x226a <find_volume+0x6a>
    2268:	58 c3       	rjmp	.+1712   	; 0x291a <find_volume+0x71a>
    226a:	8a 81       	ldd	r24, Y+2	; 0x02
    226c:	82 fd       	sbrc	r24, 2
    226e:	57 c3       	rjmp	.+1710   	; 0x291e <find_volume+0x71e>
    2270:	80 e0       	ldi	r24, 0x00	; 0
    2272:	74 c3       	rjmp	.+1768   	; 0x295c <find_volume+0x75c>
    2274:	f8 01       	movw	r30, r16
    2276:	10 82       	st	Z, r1
    2278:	e1 82       	std	Z+1, r14	; 0x01
    227a:	81 81       	ldd	r24, Z+1	; 0x01
    227c:	0e 94 14 38 	call	0x7028	; 0x7028 <disk_initialize>
    2280:	8a 83       	std	Y+2, r24	; 0x02
    2282:	8a 81       	ldd	r24, Y+2	; 0x02
    2284:	80 fd       	sbrc	r24, 0
    2286:	4d c3       	rjmp	.+1690   	; 0x2922 <find_volume+0x722>
    2288:	8f a5       	ldd	r24, Y+47	; 0x2f
    228a:	88 23       	and	r24, r24
    228c:	19 f0       	breq	.+6      	; 0x2294 <find_volume+0x94>
    228e:	8a 81       	ldd	r24, Y+2	; 0x02
    2290:	82 fd       	sbrc	r24, 2
    2292:	49 c3       	rjmp	.+1682   	; 0x2926 <find_volume+0x726>
    2294:	1b 82       	std	Y+3, r1	; 0x03
    2296:	1c 82       	std	Y+4, r1	; 0x04
    2298:	1d 82       	std	Y+5, r1	; 0x05
    229a:	1e 82       	std	Y+6, r1	; 0x06
    229c:	4b 81       	ldd	r20, Y+3	; 0x03
    229e:	5c 81       	ldd	r21, Y+4	; 0x04
    22a0:	6d 81       	ldd	r22, Y+5	; 0x05
    22a2:	7e 81       	ldd	r23, Y+6	; 0x06
    22a4:	c8 01       	movw	r24, r16
    22a6:	0d df       	rcall	.-486    	; 0x20c2 <check_fs>
    22a8:	89 83       	std	Y+1, r24	; 0x01
    22aa:	89 81       	ldd	r24, Y+1	; 0x01
    22ac:	81 30       	cpi	r24, 0x01	; 1
    22ae:	11 f0       	breq	.+4      	; 0x22b4 <find_volume+0xb4>
    22b0:	89 81       	ldd	r24, Y+1	; 0x01
    22b2:	86 c0       	rjmp	.+268    	; 0x23c0 <find_volume+0x1c0>
    22b4:	1d a6       	std	Y+45, r1	; 0x2d
    22b6:	1e a6       	std	Y+46, r1	; 0x2e
    22b8:	8d a5       	ldd	r24, Y+45	; 0x2d
    22ba:	9e a5       	ldd	r25, Y+46	; 0x2e
    22bc:	04 97       	sbiw	r24, 0x04	; 4
    22be:	08 f0       	brcs	.+2      	; 0x22c2 <find_volume+0xc2>
    22c0:	44 c0       	rjmp	.+136    	; 0x234a <find_volume+0x14a>
    22c2:	ed a5       	ldd	r30, Y+45	; 0x2d
    22c4:	fe a5       	ldd	r31, Y+46	; 0x2e
    22c6:	e2 95       	swap	r30
    22c8:	f2 95       	swap	r31
    22ca:	f0 7f       	andi	r31, 0xF0	; 240
    22cc:	fe 27       	eor	r31, r30
    22ce:	e0 7f       	andi	r30, 0xF0	; 240
    22d0:	fe 27       	eor	r31, r30
    22d2:	e4 51       	subi	r30, 0x14	; 20
    22d4:	fe 4f       	sbci	r31, 0xFE	; 254
    22d6:	e0 0f       	add	r30, r16
    22d8:	f1 1f       	adc	r31, r17
    22da:	2d a5       	ldd	r18, Y+45	; 0x2d
    22dc:	3e a5       	ldd	r19, Y+46	; 0x2e
    22de:	84 81       	ldd	r24, Z+4	; 0x04
    22e0:	88 23       	and	r24, r24
    22e2:	b1 f0       	breq	.+44     	; 0x2310 <find_volume+0x110>
    22e4:	63 85       	ldd	r22, Z+11	; 0x0b
    22e6:	82 85       	ldd	r24, Z+10	; 0x0a
    22e8:	41 85       	ldd	r20, Z+9	; 0x09
    22ea:	50 85       	ldd	r21, Z+8	; 0x08
    22ec:	90 e0       	ldi	r25, 0x00	; 0
    22ee:	a0 e0       	ldi	r26, 0x00	; 0
    22f0:	b0 e0       	ldi	r27, 0x00	; 0
    22f2:	dc 01       	movw	r26, r24
    22f4:	99 27       	eor	r25, r25
    22f6:	88 27       	eor	r24, r24
    22f8:	b6 2b       	or	r27, r22
    22fa:	85 2b       	or	r24, r21
    22fc:	50 e0       	ldi	r21, 0x00	; 0
    22fe:	54 2f       	mov	r21, r20
    2300:	44 27       	eor	r20, r20
    2302:	60 e0       	ldi	r22, 0x00	; 0
    2304:	70 e0       	ldi	r23, 0x00	; 0
    2306:	84 2b       	or	r24, r20
    2308:	95 2b       	or	r25, r21
    230a:	a6 2b       	or	r26, r22
    230c:	b7 2b       	or	r27, r23
    230e:	03 c0       	rjmp	.+6      	; 0x2316 <find_volume+0x116>
    2310:	80 e0       	ldi	r24, 0x00	; 0
    2312:	90 e0       	ldi	r25, 0x00	; 0
    2314:	dc 01       	movw	r26, r24
    2316:	f9 01       	movw	r30, r18
    2318:	ee 0f       	add	r30, r30
    231a:	ff 1f       	adc	r31, r31
    231c:	ee 0f       	add	r30, r30
    231e:	ff 1f       	adc	r31, r31
    2320:	cc 24       	eor	r12, r12
    2322:	c3 94       	inc	r12
    2324:	d1 2c       	mov	r13, r1
    2326:	cc 0e       	add	r12, r28
    2328:	dd 1e       	adc	r13, r29
    232a:	ec 0d       	add	r30, r12
    232c:	fd 1d       	adc	r31, r13
    232e:	84 8f       	std	Z+28, r24	; 0x1c
    2330:	95 8f       	std	Z+29, r25	; 0x1d
    2332:	a6 8f       	std	Z+30, r26	; 0x1e
    2334:	b7 8f       	std	Z+31, r27	; 0x1f
    2336:	8d a5       	ldd	r24, Y+45	; 0x2d
    2338:	9e a5       	ldd	r25, Y+46	; 0x2e
    233a:	01 96       	adiw	r24, 0x01	; 1
    233c:	8d a7       	std	Y+45, r24	; 0x2d
    233e:	9e a7       	std	Y+46, r25	; 0x2e
    2340:	8d a5       	ldd	r24, Y+45	; 0x2d
    2342:	9e a5       	ldd	r25, Y+46	; 0x2e
    2344:	04 97       	sbiw	r24, 0x04	; 4
    2346:	08 f4       	brcc	.+2      	; 0x234a <find_volume+0x14a>
    2348:	bc cf       	rjmp	.-136    	; 0x22c2 <find_volume+0xc2>
    234a:	1d a6       	std	Y+45, r1	; 0x2d
    234c:	1e a6       	std	Y+46, r1	; 0x2e
    234e:	8d a5       	ldd	r24, Y+45	; 0x2d
    2350:	9e a5       	ldd	r25, Y+46	; 0x2e
    2352:	89 2b       	or	r24, r25
    2354:	29 f0       	breq	.+10     	; 0x2360 <find_volume+0x160>
    2356:	8d a5       	ldd	r24, Y+45	; 0x2d
    2358:	9e a5       	ldd	r25, Y+46	; 0x2e
    235a:	01 97       	sbiw	r24, 0x01	; 1
    235c:	8d a7       	std	Y+45, r24	; 0x2d
    235e:	9e a7       	std	Y+46, r25	; 0x2e
    2360:	ed a5       	ldd	r30, Y+45	; 0x2d
    2362:	fe a5       	ldd	r31, Y+46	; 0x2e
    2364:	ee 0f       	add	r30, r30
    2366:	ff 1f       	adc	r31, r31
    2368:	ee 0f       	add	r30, r30
    236a:	ff 1f       	adc	r31, r31
    236c:	ee 24       	eor	r14, r14
    236e:	e3 94       	inc	r14
    2370:	f1 2c       	mov	r15, r1
    2372:	ec 0e       	add	r14, r28
    2374:	fd 1e       	adc	r15, r29
    2376:	ee 0d       	add	r30, r14
    2378:	ff 1d       	adc	r31, r15
    237a:	84 8d       	ldd	r24, Z+28	; 0x1c
    237c:	95 8d       	ldd	r25, Z+29	; 0x1d
    237e:	a6 8d       	ldd	r26, Z+30	; 0x1e
    2380:	b7 8d       	ldd	r27, Z+31	; 0x1f
    2382:	8b 83       	std	Y+3, r24	; 0x03
    2384:	9c 83       	std	Y+4, r25	; 0x04
    2386:	ad 83       	std	Y+5, r26	; 0x05
    2388:	be 83       	std	Y+6, r27	; 0x06
    238a:	4b 81       	ldd	r20, Y+3	; 0x03
    238c:	5c 81       	ldd	r21, Y+4	; 0x04
    238e:	6d 81       	ldd	r22, Y+5	; 0x05
    2390:	7e 81       	ldd	r23, Y+6	; 0x06
    2392:	45 2b       	or	r20, r21
    2394:	46 2b       	or	r20, r22
    2396:	47 2b       	or	r20, r23
    2398:	39 f0       	breq	.+14     	; 0x23a8 <find_volume+0x1a8>
    239a:	4b 81       	ldd	r20, Y+3	; 0x03
    239c:	5c 81       	ldd	r21, Y+4	; 0x04
    239e:	6d 81       	ldd	r22, Y+5	; 0x05
    23a0:	7e 81       	ldd	r23, Y+6	; 0x06
    23a2:	c8 01       	movw	r24, r16
    23a4:	8e de       	rcall	.-740    	; 0x20c2 <check_fs>
    23a6:	01 c0       	rjmp	.+2      	; 0x23aa <find_volume+0x1aa>
    23a8:	82 e0       	ldi	r24, 0x02	; 2
    23aa:	89 83       	std	Y+1, r24	; 0x01
    23ac:	89 81       	ldd	r24, Y+1	; 0x01
    23ae:	88 23       	and	r24, r24
    23b0:	39 f0       	breq	.+14     	; 0x23c0 <find_volume+0x1c0>
    23b2:	8d a5       	ldd	r24, Y+45	; 0x2d
    23b4:	9e a5       	ldd	r25, Y+46	; 0x2e
    23b6:	01 96       	adiw	r24, 0x01	; 1
    23b8:	8d a7       	std	Y+45, r24	; 0x2d
    23ba:	9e a7       	std	Y+46, r25	; 0x2e
    23bc:	04 97       	sbiw	r24, 0x04	; 4
    23be:	80 f2       	brcs	.-96     	; 0x2360 <find_volume+0x160>
    23c0:	89 81       	ldd	r24, Y+1	; 0x01
    23c2:	83 30       	cpi	r24, 0x03	; 3
    23c4:	09 f4       	brne	.+2      	; 0x23c8 <find_volume+0x1c8>
    23c6:	b1 c2       	rjmp	.+1378   	; 0x292a <find_volume+0x72a>
    23c8:	89 81       	ldd	r24, Y+1	; 0x01
    23ca:	81 11       	cpse	r24, r1
    23cc:	b0 c2       	rjmp	.+1376   	; 0x292e <find_volume+0x72e>
    23ce:	f8 01       	movw	r30, r16
    23d0:	22 ad       	ldd	r18, Z+58	; 0x3a
    23d2:	81 ad       	ldd	r24, Z+57	; 0x39
    23d4:	90 e0       	ldi	r25, 0x00	; 0
    23d6:	92 2b       	or	r25, r18
    23d8:	81 15       	cp	r24, r1
    23da:	92 40       	sbci	r25, 0x02	; 2
    23dc:	09 f0       	breq	.+2      	; 0x23e0 <find_volume+0x1e0>
    23de:	a9 c2       	rjmp	.+1362   	; 0x2932 <find_volume+0x732>
    23e0:	f8 01       	movw	r30, r16
    23e2:	eb 5b       	subi	r30, 0xBB	; 187
    23e4:	ff 4f       	sbci	r31, 0xFF	; 255
    23e6:	20 81       	ld	r18, Z
    23e8:	31 97       	sbiw	r30, 0x01	; 1
    23ea:	80 81       	ld	r24, Z
    23ec:	90 e0       	ldi	r25, 0x00	; 0
    23ee:	92 2b       	or	r25, r18
    23f0:	a0 e0       	ldi	r26, 0x00	; 0
    23f2:	b0 e0       	ldi	r27, 0x00	; 0
    23f4:	8f 83       	std	Y+7, r24	; 0x07
    23f6:	98 87       	std	Y+8, r25	; 0x08
    23f8:	a9 87       	std	Y+9, r26	; 0x09
    23fa:	ba 87       	std	Y+10, r27	; 0x0a
    23fc:	8f 81       	ldd	r24, Y+7	; 0x07
    23fe:	98 85       	ldd	r25, Y+8	; 0x08
    2400:	a9 85       	ldd	r26, Y+9	; 0x09
    2402:	ba 85       	ldd	r27, Y+10	; 0x0a
    2404:	89 2b       	or	r24, r25
    2406:	8a 2b       	or	r24, r26
    2408:	8b 2b       	or	r24, r27
    240a:	e9 f4       	brne	.+58     	; 0x2446 <find_volume+0x246>
    240c:	71 96       	adiw	r30, 0x11	; 17
    240e:	30 81       	ld	r19, Z
    2410:	31 97       	sbiw	r30, 0x01	; 1
    2412:	80 81       	ld	r24, Z
    2414:	31 97       	sbiw	r30, 0x01	; 1
    2416:	40 81       	ld	r20, Z
    2418:	31 97       	sbiw	r30, 0x01	; 1
    241a:	20 81       	ld	r18, Z
    241c:	90 e0       	ldi	r25, 0x00	; 0
    241e:	a0 e0       	ldi	r26, 0x00	; 0
    2420:	b0 e0       	ldi	r27, 0x00	; 0
    2422:	dc 01       	movw	r26, r24
    2424:	99 27       	eor	r25, r25
    2426:	88 27       	eor	r24, r24
    2428:	b3 2b       	or	r27, r19
    242a:	82 2b       	or	r24, r18
    242c:	50 e0       	ldi	r21, 0x00	; 0
    242e:	54 2f       	mov	r21, r20
    2430:	44 27       	eor	r20, r20
    2432:	60 e0       	ldi	r22, 0x00	; 0
    2434:	70 e0       	ldi	r23, 0x00	; 0
    2436:	84 2b       	or	r24, r20
    2438:	95 2b       	or	r25, r21
    243a:	a6 2b       	or	r26, r22
    243c:	b7 2b       	or	r27, r23
    243e:	8f 83       	std	Y+7, r24	; 0x07
    2440:	98 87       	std	Y+8, r25	; 0x08
    2442:	a9 87       	std	Y+9, r26	; 0x09
    2444:	ba 87       	std	Y+10, r27	; 0x0a
    2446:	8f 81       	ldd	r24, Y+7	; 0x07
    2448:	98 85       	ldd	r25, Y+8	; 0x08
    244a:	a9 85       	ldd	r26, Y+9	; 0x09
    244c:	ba 85       	ldd	r27, Y+10	; 0x0a
    244e:	f8 01       	movw	r30, r16
    2450:	86 8b       	std	Z+22, r24	; 0x16
    2452:	97 8b       	std	Z+23, r25	; 0x17
    2454:	a0 8f       	std	Z+24, r26	; 0x18
    2456:	b1 8f       	std	Z+25, r27	; 0x19
    2458:	86 ad       	ldd	r24, Z+62	; 0x3e
    245a:	83 83       	std	Z+3, r24	; 0x03
    245c:	83 81       	ldd	r24, Z+3	; 0x03
    245e:	81 30       	cpi	r24, 0x01	; 1
    2460:	21 f0       	breq	.+8      	; 0x246a <find_volume+0x26a>
    2462:	83 81       	ldd	r24, Z+3	; 0x03
    2464:	82 30       	cpi	r24, 0x02	; 2
    2466:	09 f0       	breq	.+2      	; 0x246a <find_volume+0x26a>
    2468:	66 c2       	rjmp	.+1228   	; 0x2936 <find_volume+0x736>
    246a:	f8 01       	movw	r30, r16
    246c:	a3 81       	ldd	r26, Z+3	; 0x03
    246e:	2f 81       	ldd	r18, Y+7	; 0x07
    2470:	38 85       	ldd	r19, Y+8	; 0x08
    2472:	49 85       	ldd	r20, Y+9	; 0x09
    2474:	5a 85       	ldd	r21, Y+10	; 0x0a
    2476:	b0 e0       	ldi	r27, 0x00	; 0
    2478:	0e 94 73 3e 	call	0x7ce6	; 0x7ce6 <__muluhisi3>
    247c:	6f 83       	std	Y+7, r22	; 0x07
    247e:	78 87       	std	Y+8, r23	; 0x08
    2480:	89 87       	std	Y+9, r24	; 0x09
    2482:	9a 87       	std	Y+10, r25	; 0x0a
    2484:	83 ad       	ldd	r24, Z+59	; 0x3b
    2486:	82 83       	std	Z+2, r24	; 0x02
    2488:	82 81       	ldd	r24, Z+2	; 0x02
    248a:	88 23       	and	r24, r24
    248c:	09 f4       	brne	.+2      	; 0x2490 <find_volume+0x290>
    248e:	55 c2       	rjmp	.+1194   	; 0x293a <find_volume+0x73a>
    2490:	82 81       	ldd	r24, Z+2	; 0x02
    2492:	22 81       	ldd	r18, Z+2	; 0x02
    2494:	30 e0       	ldi	r19, 0x00	; 0
    2496:	21 50       	subi	r18, 0x01	; 1
    2498:	31 09       	sbc	r19, r1
    249a:	90 e0       	ldi	r25, 0x00	; 0
    249c:	82 23       	and	r24, r18
    249e:	93 23       	and	r25, r19
    24a0:	89 2b       	or	r24, r25
    24a2:	09 f0       	breq	.+2      	; 0x24a6 <find_volume+0x2a6>
    24a4:	4c c2       	rjmp	.+1176   	; 0x293e <find_volume+0x73e>
    24a6:	e0 5c       	subi	r30, 0xC0	; 192
    24a8:	ff 4f       	sbci	r31, 0xFF	; 255
    24aa:	20 81       	ld	r18, Z
    24ac:	f8 01       	movw	r30, r16
    24ae:	87 ad       	ldd	r24, Z+63	; 0x3f
    24b0:	90 e0       	ldi	r25, 0x00	; 0
    24b2:	92 2b       	or	r25, r18
    24b4:	80 87       	std	Z+8, r24	; 0x08
    24b6:	91 87       	std	Z+9, r25	; 0x09
    24b8:	80 85       	ldd	r24, Z+8	; 0x08
    24ba:	91 85       	ldd	r25, Z+9	; 0x09
    24bc:	8f 70       	andi	r24, 0x0F	; 15
    24be:	99 27       	eor	r25, r25
    24c0:	89 2b       	or	r24, r25
    24c2:	09 f0       	breq	.+2      	; 0x24c6 <find_volume+0x2c6>
    24c4:	3e c2       	rjmp	.+1148   	; 0x2942 <find_volume+0x742>
    24c6:	ee 5b       	subi	r30, 0xBE	; 190
    24c8:	ff 4f       	sbci	r31, 0xFF	; 255
    24ca:	20 81       	ld	r18, Z
    24cc:	31 97       	sbiw	r30, 0x01	; 1
    24ce:	80 81       	ld	r24, Z
    24d0:	90 e0       	ldi	r25, 0x00	; 0
    24d2:	92 2b       	or	r25, r18
    24d4:	a0 e0       	ldi	r26, 0x00	; 0
    24d6:	b0 e0       	ldi	r27, 0x00	; 0
    24d8:	8b 87       	std	Y+11, r24	; 0x0b
    24da:	9c 87       	std	Y+12, r25	; 0x0c
    24dc:	ad 87       	std	Y+13, r26	; 0x0d
    24de:	be 87       	std	Y+14, r27	; 0x0e
    24e0:	8b 85       	ldd	r24, Y+11	; 0x0b
    24e2:	9c 85       	ldd	r25, Y+12	; 0x0c
    24e4:	ad 85       	ldd	r26, Y+13	; 0x0d
    24e6:	be 85       	ldd	r27, Y+14	; 0x0e
    24e8:	89 2b       	or	r24, r25
    24ea:	8a 2b       	or	r24, r26
    24ec:	8b 2b       	or	r24, r27
    24ee:	e9 f4       	brne	.+58     	; 0x252a <find_volume+0x32a>
    24f0:	70 96       	adiw	r30, 0x10	; 16
    24f2:	30 81       	ld	r19, Z
    24f4:	31 97       	sbiw	r30, 0x01	; 1
    24f6:	80 81       	ld	r24, Z
    24f8:	31 97       	sbiw	r30, 0x01	; 1
    24fa:	40 81       	ld	r20, Z
    24fc:	31 97       	sbiw	r30, 0x01	; 1
    24fe:	20 81       	ld	r18, Z
    2500:	90 e0       	ldi	r25, 0x00	; 0
    2502:	a0 e0       	ldi	r26, 0x00	; 0
    2504:	b0 e0       	ldi	r27, 0x00	; 0
    2506:	dc 01       	movw	r26, r24
    2508:	99 27       	eor	r25, r25
    250a:	88 27       	eor	r24, r24
    250c:	b3 2b       	or	r27, r19
    250e:	82 2b       	or	r24, r18
    2510:	50 e0       	ldi	r21, 0x00	; 0
    2512:	54 2f       	mov	r21, r20
    2514:	44 27       	eor	r20, r20
    2516:	60 e0       	ldi	r22, 0x00	; 0
    2518:	70 e0       	ldi	r23, 0x00	; 0
    251a:	84 2b       	or	r24, r20
    251c:	95 2b       	or	r25, r21
    251e:	a6 2b       	or	r26, r22
    2520:	b7 2b       	or	r27, r23
    2522:	8b 87       	std	Y+11, r24	; 0x0b
    2524:	9c 87       	std	Y+12, r25	; 0x0c
    2526:	ad 87       	std	Y+13, r26	; 0x0d
    2528:	be 87       	std	Y+14, r27	; 0x0e
    252a:	f8 01       	movw	r30, r16
    252c:	25 ad       	ldd	r18, Z+61	; 0x3d
    252e:	84 ad       	ldd	r24, Z+60	; 0x3c
    2530:	90 e0       	ldi	r25, 0x00	; 0
    2532:	92 2b       	or	r25, r18
    2534:	8b 8f       	std	Y+27, r24	; 0x1b
    2536:	9c 8f       	std	Y+28, r25	; 0x1c
    2538:	8b 8d       	ldd	r24, Y+27	; 0x1b
    253a:	9c 8d       	ldd	r25, Y+28	; 0x1c
    253c:	89 2b       	or	r24, r25
    253e:	09 f4       	brne	.+2      	; 0x2542 <find_volume+0x342>
    2540:	02 c2       	rjmp	.+1028   	; 0x2946 <find_volume+0x746>
    2542:	4b 8d       	ldd	r20, Y+27	; 0x1b
    2544:	5c 8d       	ldd	r21, Y+28	; 0x1c
    2546:	8f 81       	ldd	r24, Y+7	; 0x07
    2548:	98 85       	ldd	r25, Y+8	; 0x08
    254a:	a9 85       	ldd	r26, Y+9	; 0x09
    254c:	ba 85       	ldd	r27, Y+10	; 0x0a
    254e:	20 85       	ldd	r18, Z+8	; 0x08
    2550:	31 85       	ldd	r19, Z+9	; 0x09
    2552:	84 0f       	add	r24, r20
    2554:	95 1f       	adc	r25, r21
    2556:	a1 1d       	adc	r26, r1
    2558:	b1 1d       	adc	r27, r1
    255a:	32 95       	swap	r19
    255c:	22 95       	swap	r18
    255e:	2f 70       	andi	r18, 0x0F	; 15
    2560:	23 27       	eor	r18, r19
    2562:	3f 70       	andi	r19, 0x0F	; 15
    2564:	23 27       	eor	r18, r19
    2566:	82 0f       	add	r24, r18
    2568:	93 1f       	adc	r25, r19
    256a:	a1 1d       	adc	r26, r1
    256c:	b1 1d       	adc	r27, r1
    256e:	8f 87       	std	Y+15, r24	; 0x0f
    2570:	98 8b       	std	Y+16, r25	; 0x10
    2572:	a9 8b       	std	Y+17, r26	; 0x11
    2574:	ba 8b       	std	Y+18, r27	; 0x12
    2576:	4b 85       	ldd	r20, Y+11	; 0x0b
    2578:	5c 85       	ldd	r21, Y+12	; 0x0c
    257a:	6d 85       	ldd	r22, Y+13	; 0x0d
    257c:	7e 85       	ldd	r23, Y+14	; 0x0e
    257e:	8f 85       	ldd	r24, Y+15	; 0x0f
    2580:	98 89       	ldd	r25, Y+16	; 0x10
    2582:	a9 89       	ldd	r26, Y+17	; 0x11
    2584:	ba 89       	ldd	r27, Y+18	; 0x12
    2586:	48 17       	cp	r20, r24
    2588:	59 07       	cpc	r21, r25
    258a:	6a 07       	cpc	r22, r26
    258c:	7b 07       	cpc	r23, r27
    258e:	08 f4       	brcc	.+2      	; 0x2592 <find_volume+0x392>
    2590:	dc c1       	rjmp	.+952    	; 0x294a <find_volume+0x74a>
    2592:	4b 85       	ldd	r20, Y+11	; 0x0b
    2594:	5c 85       	ldd	r21, Y+12	; 0x0c
    2596:	6d 85       	ldd	r22, Y+13	; 0x0d
    2598:	7e 85       	ldd	r23, Y+14	; 0x0e
    259a:	8f 85       	ldd	r24, Y+15	; 0x0f
    259c:	98 89       	ldd	r25, Y+16	; 0x10
    259e:	a9 89       	ldd	r26, Y+17	; 0x11
    25a0:	ba 89       	ldd	r27, Y+18	; 0x12
    25a2:	22 81       	ldd	r18, Z+2	; 0x02
    25a4:	6a 01       	movw	r12, r20
    25a6:	7b 01       	movw	r14, r22
    25a8:	c8 1a       	sub	r12, r24
    25aa:	d9 0a       	sbc	r13, r25
    25ac:	ea 0a       	sbc	r14, r26
    25ae:	fb 0a       	sbc	r15, r27
    25b0:	c7 01       	movw	r24, r14
    25b2:	b6 01       	movw	r22, r12
    25b4:	30 e0       	ldi	r19, 0x00	; 0
    25b6:	40 e0       	ldi	r20, 0x00	; 0
    25b8:	50 e0       	ldi	r21, 0x00	; 0
    25ba:	0e 94 3c 3e 	call	0x7c78	; 0x7c78 <__udivmodsi4>
    25be:	2b 8b       	std	Y+19, r18	; 0x13
    25c0:	3c 8b       	std	Y+20, r19	; 0x14
    25c2:	4d 8b       	std	Y+21, r20	; 0x15
    25c4:	5e 8b       	std	Y+22, r21	; 0x16
    25c6:	8b 89       	ldd	r24, Y+19	; 0x13
    25c8:	9c 89       	ldd	r25, Y+20	; 0x14
    25ca:	ad 89       	ldd	r26, Y+21	; 0x15
    25cc:	be 89       	ldd	r27, Y+22	; 0x16
    25ce:	89 2b       	or	r24, r25
    25d0:	8a 2b       	or	r24, r26
    25d2:	8b 2b       	or	r24, r27
    25d4:	09 f4       	brne	.+2      	; 0x25d8 <find_volume+0x3d8>
    25d6:	bb c1       	rjmp	.+886    	; 0x294e <find_volume+0x74e>
    25d8:	81 e0       	ldi	r24, 0x01	; 1
    25da:	89 83       	std	Y+1, r24	; 0x01
    25dc:	8b 89       	ldd	r24, Y+19	; 0x13
    25de:	9c 89       	ldd	r25, Y+20	; 0x14
    25e0:	ad 89       	ldd	r26, Y+21	; 0x15
    25e2:	be 89       	ldd	r27, Y+22	; 0x16
    25e4:	86 3f       	cpi	r24, 0xF6	; 246
    25e6:	9f 40       	sbci	r25, 0x0F	; 15
    25e8:	a1 05       	cpc	r26, r1
    25ea:	b1 05       	cpc	r27, r1
    25ec:	10 f0       	brcs	.+4      	; 0x25f2 <find_volume+0x3f2>
    25ee:	82 e0       	ldi	r24, 0x02	; 2
    25f0:	89 83       	std	Y+1, r24	; 0x01
    25f2:	8b 89       	ldd	r24, Y+19	; 0x13
    25f4:	9c 89       	ldd	r25, Y+20	; 0x14
    25f6:	ad 89       	ldd	r26, Y+21	; 0x15
    25f8:	be 89       	ldd	r27, Y+22	; 0x16
    25fa:	86 3f       	cpi	r24, 0xF6	; 246
    25fc:	9f 4f       	sbci	r25, 0xFF	; 255
    25fe:	a1 05       	cpc	r26, r1
    2600:	b1 05       	cpc	r27, r1
    2602:	10 f0       	brcs	.+4      	; 0x2608 <find_volume+0x408>
    2604:	83 e0       	ldi	r24, 0x03	; 3
    2606:	89 83       	std	Y+1, r24	; 0x01
    2608:	8b 89       	ldd	r24, Y+19	; 0x13
    260a:	9c 89       	ldd	r25, Y+20	; 0x14
    260c:	ad 89       	ldd	r26, Y+21	; 0x15
    260e:	be 89       	ldd	r27, Y+22	; 0x16
    2610:	02 96       	adiw	r24, 0x02	; 2
    2612:	a1 1d       	adc	r26, r1
    2614:	b1 1d       	adc	r27, r1
    2616:	f8 01       	movw	r30, r16
    2618:	82 8b       	std	Z+18, r24	; 0x12
    261a:	93 8b       	std	Z+19, r25	; 0x13
    261c:	a4 8b       	std	Z+20, r26	; 0x14
    261e:	b5 8b       	std	Z+21, r27	; 0x15
    2620:	8b 81       	ldd	r24, Y+3	; 0x03
    2622:	9c 81       	ldd	r25, Y+4	; 0x04
    2624:	ad 81       	ldd	r26, Y+5	; 0x05
    2626:	be 81       	ldd	r27, Y+6	; 0x06
    2628:	82 8f       	std	Z+26, r24	; 0x1a
    262a:	93 8f       	std	Z+27, r25	; 0x1b
    262c:	a4 8f       	std	Z+28, r26	; 0x1c
    262e:	b5 8f       	std	Z+29, r27	; 0x1d
    2630:	2b 8d       	ldd	r18, Y+27	; 0x1b
    2632:	3c 8d       	ldd	r19, Y+28	; 0x1c
    2634:	8b 81       	ldd	r24, Y+3	; 0x03
    2636:	9c 81       	ldd	r25, Y+4	; 0x04
    2638:	ad 81       	ldd	r26, Y+5	; 0x05
    263a:	be 81       	ldd	r27, Y+6	; 0x06
    263c:	82 0f       	add	r24, r18
    263e:	93 1f       	adc	r25, r19
    2640:	a1 1d       	adc	r26, r1
    2642:	b1 1d       	adc	r27, r1
    2644:	86 8f       	std	Z+30, r24	; 0x1e
    2646:	97 8f       	std	Z+31, r25	; 0x1f
    2648:	a0 a3       	std	Z+32, r26	; 0x20
    264a:	b1 a3       	std	Z+33, r27	; 0x21
    264c:	8b 81       	ldd	r24, Y+3	; 0x03
    264e:	9c 81       	ldd	r25, Y+4	; 0x04
    2650:	ad 81       	ldd	r26, Y+5	; 0x05
    2652:	be 81       	ldd	r27, Y+6	; 0x06
    2654:	4f 85       	ldd	r20, Y+15	; 0x0f
    2656:	58 89       	ldd	r21, Y+16	; 0x10
    2658:	69 89       	ldd	r22, Y+17	; 0x11
    265a:	7a 89       	ldd	r23, Y+18	; 0x12
    265c:	84 0f       	add	r24, r20
    265e:	95 1f       	adc	r25, r21
    2660:	a6 1f       	adc	r26, r22
    2662:	b7 1f       	adc	r27, r23
    2664:	86 a3       	std	Z+38, r24	; 0x26
    2666:	97 a3       	std	Z+39, r25	; 0x27
    2668:	a0 a7       	std	Z+40, r26	; 0x28
    266a:	b1 a7       	std	Z+41, r27	; 0x29
    266c:	89 81       	ldd	r24, Y+1	; 0x01
    266e:	83 30       	cpi	r24, 0x03	; 3
    2670:	a9 f5       	brne	.+106    	; 0x26dc <find_volume+0x4dc>
    2672:	80 85       	ldd	r24, Z+8	; 0x08
    2674:	91 85       	ldd	r25, Z+9	; 0x09
    2676:	89 2b       	or	r24, r25
    2678:	09 f0       	breq	.+2      	; 0x267c <find_volume+0x47c>
    267a:	6b c1       	rjmp	.+726    	; 0x2952 <find_volume+0x752>
    267c:	e3 5a       	subi	r30, 0xA3	; 163
    267e:	ff 4f       	sbci	r31, 0xFF	; 255
    2680:	30 81       	ld	r19, Z
    2682:	31 97       	sbiw	r30, 0x01	; 1
    2684:	80 81       	ld	r24, Z
    2686:	31 97       	sbiw	r30, 0x01	; 1
    2688:	40 81       	ld	r20, Z
    268a:	31 97       	sbiw	r30, 0x01	; 1
    268c:	20 81       	ld	r18, Z
    268e:	90 e0       	ldi	r25, 0x00	; 0
    2690:	a0 e0       	ldi	r26, 0x00	; 0
    2692:	b0 e0       	ldi	r27, 0x00	; 0
    2694:	dc 01       	movw	r26, r24
    2696:	99 27       	eor	r25, r25
    2698:	88 27       	eor	r24, r24
    269a:	b3 2b       	or	r27, r19
    269c:	82 2b       	or	r24, r18
    269e:	50 e0       	ldi	r21, 0x00	; 0
    26a0:	54 2f       	mov	r21, r20
    26a2:	44 27       	eor	r20, r20
    26a4:	60 e0       	ldi	r22, 0x00	; 0
    26a6:	70 e0       	ldi	r23, 0x00	; 0
    26a8:	84 2b       	or	r24, r20
    26aa:	95 2b       	or	r25, r21
    26ac:	a6 2b       	or	r26, r22
    26ae:	b7 2b       	or	r27, r23
    26b0:	f8 01       	movw	r30, r16
    26b2:	82 a3       	std	Z+34, r24	; 0x22
    26b4:	93 a3       	std	Z+35, r25	; 0x23
    26b6:	a4 a3       	std	Z+36, r26	; 0x24
    26b8:	b5 a3       	std	Z+37, r27	; 0x25
    26ba:	82 89       	ldd	r24, Z+18	; 0x12
    26bc:	93 89       	ldd	r25, Z+19	; 0x13
    26be:	a4 89       	ldd	r26, Z+20	; 0x14
    26c0:	b5 89       	ldd	r27, Z+21	; 0x15
    26c2:	88 0f       	add	r24, r24
    26c4:	99 1f       	adc	r25, r25
    26c6:	aa 1f       	adc	r26, r26
    26c8:	bb 1f       	adc	r27, r27
    26ca:	88 0f       	add	r24, r24
    26cc:	99 1f       	adc	r25, r25
    26ce:	aa 1f       	adc	r26, r26
    26d0:	bb 1f       	adc	r27, r27
    26d2:	8f 8b       	std	Y+23, r24	; 0x17
    26d4:	98 8f       	std	Y+24, r25	; 0x18
    26d6:	a9 8f       	std	Y+25, r26	; 0x19
    26d8:	ba 8f       	std	Y+26, r27	; 0x1a
    26da:	42 c0       	rjmp	.+132    	; 0x2760 <find_volume+0x560>
    26dc:	f8 01       	movw	r30, r16
    26de:	80 85       	ldd	r24, Z+8	; 0x08
    26e0:	91 85       	ldd	r25, Z+9	; 0x09
    26e2:	89 2b       	or	r24, r25
    26e4:	09 f4       	brne	.+2      	; 0x26e8 <find_volume+0x4e8>
    26e6:	37 c1       	rjmp	.+622    	; 0x2956 <find_volume+0x756>
    26e8:	86 8d       	ldd	r24, Z+30	; 0x1e
    26ea:	97 8d       	ldd	r25, Z+31	; 0x1f
    26ec:	a0 a1       	ldd	r26, Z+32	; 0x20
    26ee:	b1 a1       	ldd	r27, Z+33	; 0x21
    26f0:	4f 81       	ldd	r20, Y+7	; 0x07
    26f2:	58 85       	ldd	r21, Y+8	; 0x08
    26f4:	69 85       	ldd	r22, Y+9	; 0x09
    26f6:	7a 85       	ldd	r23, Y+10	; 0x0a
    26f8:	84 0f       	add	r24, r20
    26fa:	95 1f       	adc	r25, r21
    26fc:	a6 1f       	adc	r26, r22
    26fe:	b7 1f       	adc	r27, r23
    2700:	82 a3       	std	Z+34, r24	; 0x22
    2702:	93 a3       	std	Z+35, r25	; 0x23
    2704:	a4 a3       	std	Z+36, r26	; 0x24
    2706:	b5 a3       	std	Z+37, r27	; 0x25
    2708:	89 81       	ldd	r24, Y+1	; 0x01
    270a:	82 30       	cpi	r24, 0x02	; 2
    270c:	49 f4       	brne	.+18     	; 0x2720 <find_volume+0x520>
    270e:	82 89       	ldd	r24, Z+18	; 0x12
    2710:	93 89       	ldd	r25, Z+19	; 0x13
    2712:	a4 89       	ldd	r26, Z+20	; 0x14
    2714:	b5 89       	ldd	r27, Z+21	; 0x15
    2716:	88 0f       	add	r24, r24
    2718:	99 1f       	adc	r25, r25
    271a:	aa 1f       	adc	r26, r26
    271c:	bb 1f       	adc	r27, r27
    271e:	1c c0       	rjmp	.+56     	; 0x2758 <find_volume+0x558>
    2720:	f8 01       	movw	r30, r16
    2722:	22 89       	ldd	r18, Z+18	; 0x12
    2724:	33 89       	ldd	r19, Z+19	; 0x13
    2726:	44 89       	ldd	r20, Z+20	; 0x14
    2728:	55 89       	ldd	r21, Z+21	; 0x15
    272a:	c2 88       	ldd	r12, Z+18	; 0x12
    272c:	d3 88       	ldd	r13, Z+19	; 0x13
    272e:	e4 88       	ldd	r14, Z+20	; 0x14
    2730:	f5 88       	ldd	r15, Z+21	; 0x15
    2732:	a3 e0       	ldi	r26, 0x03	; 3
    2734:	b0 e0       	ldi	r27, 0x00	; 0
    2736:	0e 94 73 3e 	call	0x7ce6	; 0x7ce6 <__muluhisi3>
    273a:	dc 01       	movw	r26, r24
    273c:	cb 01       	movw	r24, r22
    273e:	b6 95       	lsr	r27
    2740:	a7 95       	ror	r26
    2742:	97 95       	ror	r25
    2744:	87 95       	ror	r24
    2746:	f1 e0       	ldi	r31, 0x01	; 1
    2748:	cf 22       	and	r12, r31
    274a:	dd 24       	eor	r13, r13
    274c:	ee 24       	eor	r14, r14
    274e:	ff 24       	eor	r15, r15
    2750:	8c 0d       	add	r24, r12
    2752:	9d 1d       	adc	r25, r13
    2754:	ae 1d       	adc	r26, r14
    2756:	bf 1d       	adc	r27, r15
    2758:	8f 8b       	std	Y+23, r24	; 0x17
    275a:	98 8f       	std	Y+24, r25	; 0x18
    275c:	a9 8f       	std	Y+25, r26	; 0x19
    275e:	ba 8f       	std	Y+26, r27	; 0x1a
    2760:	f8 01       	movw	r30, r16
    2762:	46 89       	ldd	r20, Z+22	; 0x16
    2764:	57 89       	ldd	r21, Z+23	; 0x17
    2766:	60 8d       	ldd	r22, Z+24	; 0x18
    2768:	71 8d       	ldd	r23, Z+25	; 0x19
    276a:	8f 89       	ldd	r24, Y+23	; 0x17
    276c:	98 8d       	ldd	r25, Y+24	; 0x18
    276e:	a9 8d       	ldd	r26, Y+25	; 0x19
    2770:	ba 8d       	ldd	r27, Y+26	; 0x1a
    2772:	81 50       	subi	r24, 0x01	; 1
    2774:	9e 4f       	sbci	r25, 0xFE	; 254
    2776:	af 4f       	sbci	r26, 0xFF	; 255
    2778:	bf 4f       	sbci	r27, 0xFF	; 255
    277a:	07 2e       	mov	r0, r23
    277c:	79 e0       	ldi	r23, 0x09	; 9
    277e:	b6 95       	lsr	r27
    2780:	a7 95       	ror	r26
    2782:	97 95       	ror	r25
    2784:	87 95       	ror	r24
    2786:	7a 95       	dec	r23
    2788:	d1 f7       	brne	.-12     	; 0x277e <find_volume+0x57e>
    278a:	70 2d       	mov	r23, r0
    278c:	48 17       	cp	r20, r24
    278e:	59 07       	cpc	r21, r25
    2790:	6a 07       	cpc	r22, r26
    2792:	7b 07       	cpc	r23, r27
    2794:	08 f4       	brcc	.+2      	; 0x2798 <find_volume+0x598>
    2796:	e1 c0       	rjmp	.+450    	; 0x295a <find_volume+0x75a>
    2798:	8f ef       	ldi	r24, 0xFF	; 255
    279a:	9f ef       	ldi	r25, 0xFF	; 255
    279c:	dc 01       	movw	r26, r24
    279e:	86 87       	std	Z+14, r24	; 0x0e
    27a0:	97 87       	std	Z+15, r25	; 0x0f
    27a2:	a0 8b       	std	Z+16, r26	; 0x10
    27a4:	b1 8b       	std	Z+17, r27	; 0x11
    27a6:	82 87       	std	Z+10, r24	; 0x0a
    27a8:	93 87       	std	Z+11, r25	; 0x0b
    27aa:	a4 87       	std	Z+12, r26	; 0x0c
    27ac:	b5 87       	std	Z+13, r27	; 0x0d
    27ae:	80 e8       	ldi	r24, 0x80	; 128
    27b0:	85 83       	std	Z+5, r24	; 0x05
    27b2:	89 81       	ldd	r24, Y+1	; 0x01
    27b4:	83 30       	cpi	r24, 0x03	; 3
    27b6:	09 f0       	breq	.+2      	; 0x27ba <find_volume+0x5ba>
    27b8:	9c c0       	rjmp	.+312    	; 0x28f2 <find_volume+0x6f2>
    27ba:	e1 5a       	subi	r30, 0xA1	; 161
    27bc:	ff 4f       	sbci	r31, 0xFF	; 255
    27be:	20 81       	ld	r18, Z
    27c0:	31 97       	sbiw	r30, 0x01	; 1
    27c2:	80 81       	ld	r24, Z
    27c4:	90 e0       	ldi	r25, 0x00	; 0
    27c6:	92 2b       	or	r25, r18
    27c8:	01 97       	sbiw	r24, 0x01	; 1
    27ca:	09 f0       	breq	.+2      	; 0x27ce <find_volume+0x5ce>
    27cc:	92 c0       	rjmp	.+292    	; 0x28f2 <find_volume+0x6f2>
    27ce:	4b 81       	ldd	r20, Y+3	; 0x03
    27d0:	5c 81       	ldd	r21, Y+4	; 0x04
    27d2:	6d 81       	ldd	r22, Y+5	; 0x05
    27d4:	7e 81       	ldd	r23, Y+6	; 0x06
    27d6:	4f 5f       	subi	r20, 0xFF	; 255
    27d8:	5f 4f       	sbci	r21, 0xFF	; 255
    27da:	6f 4f       	sbci	r22, 0xFF	; 255
    27dc:	7f 4f       	sbci	r23, 0xFF	; 255
    27de:	c8 01       	movw	r24, r16
    27e0:	26 dc       	rcall	.-1972   	; 0x202e <move_window>
    27e2:	81 11       	cpse	r24, r1
    27e4:	86 c0       	rjmp	.+268    	; 0x28f2 <find_volume+0x6f2>
    27e6:	f8 01       	movw	r30, r16
    27e8:	15 82       	std	Z+5, r1	; 0x05
    27ea:	e3 5d       	subi	r30, 0xD3	; 211
    27ec:	fd 4f       	sbci	r31, 0xFD	; 253
    27ee:	20 81       	ld	r18, Z
    27f0:	31 97       	sbiw	r30, 0x01	; 1
    27f2:	80 81       	ld	r24, Z
    27f4:	90 e0       	ldi	r25, 0x00	; 0
    27f6:	92 2b       	or	r25, r18
    27f8:	85 35       	cpi	r24, 0x55	; 85
    27fa:	9a 4a       	sbci	r25, 0xAA	; 170
    27fc:	09 f0       	breq	.+2      	; 0x2800 <find_volume+0x600>
    27fe:	79 c0       	rjmp	.+242    	; 0x28f2 <find_volume+0x6f2>
    2800:	f8 01       	movw	r30, r16
    2802:	31 a9       	ldd	r19, Z+49	; 0x31
    2804:	80 a9       	ldd	r24, Z+48	; 0x30
    2806:	47 a5       	ldd	r20, Z+47	; 0x2f
    2808:	26 a5       	ldd	r18, Z+46	; 0x2e
    280a:	90 e0       	ldi	r25, 0x00	; 0
    280c:	a0 e0       	ldi	r26, 0x00	; 0
    280e:	b0 e0       	ldi	r27, 0x00	; 0
    2810:	dc 01       	movw	r26, r24
    2812:	99 27       	eor	r25, r25
    2814:	88 27       	eor	r24, r24
    2816:	b3 2b       	or	r27, r19
    2818:	82 2b       	or	r24, r18
    281a:	50 e0       	ldi	r21, 0x00	; 0
    281c:	54 2f       	mov	r21, r20
    281e:	44 27       	eor	r20, r20
    2820:	60 e0       	ldi	r22, 0x00	; 0
    2822:	70 e0       	ldi	r23, 0x00	; 0
    2824:	84 2b       	or	r24, r20
    2826:	95 2b       	or	r25, r21
    2828:	a6 2b       	or	r26, r22
    282a:	b7 2b       	or	r27, r23
    282c:	82 35       	cpi	r24, 0x52	; 82
    282e:	92 45       	sbci	r25, 0x52	; 82
    2830:	a1 46       	sbci	r26, 0x61	; 97
    2832:	b1 44       	sbci	r27, 0x41	; 65
    2834:	09 f0       	breq	.+2      	; 0x2838 <find_volume+0x638>
    2836:	5d c0       	rjmp	.+186    	; 0x28f2 <find_volume+0x6f2>
    2838:	f8 01       	movw	r30, r16
    283a:	eb 5e       	subi	r30, 0xEB	; 235
    283c:	fd 4f       	sbci	r31, 0xFD	; 253
    283e:	30 81       	ld	r19, Z
    2840:	31 97       	sbiw	r30, 0x01	; 1
    2842:	80 81       	ld	r24, Z
    2844:	31 97       	sbiw	r30, 0x01	; 1
    2846:	40 81       	ld	r20, Z
    2848:	31 97       	sbiw	r30, 0x01	; 1
    284a:	20 81       	ld	r18, Z
    284c:	90 e0       	ldi	r25, 0x00	; 0
    284e:	a0 e0       	ldi	r26, 0x00	; 0
    2850:	b0 e0       	ldi	r27, 0x00	; 0
    2852:	dc 01       	movw	r26, r24
    2854:	99 27       	eor	r25, r25
    2856:	88 27       	eor	r24, r24
    2858:	b3 2b       	or	r27, r19
    285a:	82 2b       	or	r24, r18
    285c:	50 e0       	ldi	r21, 0x00	; 0
    285e:	54 2f       	mov	r21, r20
    2860:	44 27       	eor	r20, r20
    2862:	60 e0       	ldi	r22, 0x00	; 0
    2864:	70 e0       	ldi	r23, 0x00	; 0
    2866:	84 2b       	or	r24, r20
    2868:	95 2b       	or	r25, r21
    286a:	a6 2b       	or	r26, r22
    286c:	b7 2b       	or	r27, r23
    286e:	82 37       	cpi	r24, 0x72	; 114
    2870:	92 47       	sbci	r25, 0x72	; 114
    2872:	a1 44       	sbci	r26, 0x41	; 65
    2874:	b1 46       	sbci	r27, 0x61	; 97
    2876:	e9 f5       	brne	.+122    	; 0x28f2 <find_volume+0x6f2>
    2878:	37 96       	adiw	r30, 0x07	; 7
    287a:	30 81       	ld	r19, Z
    287c:	31 97       	sbiw	r30, 0x01	; 1
    287e:	80 81       	ld	r24, Z
    2880:	31 97       	sbiw	r30, 0x01	; 1
    2882:	40 81       	ld	r20, Z
    2884:	31 97       	sbiw	r30, 0x01	; 1
    2886:	20 81       	ld	r18, Z
    2888:	90 e0       	ldi	r25, 0x00	; 0
    288a:	a0 e0       	ldi	r26, 0x00	; 0
    288c:	b0 e0       	ldi	r27, 0x00	; 0
    288e:	dc 01       	movw	r26, r24
    2890:	99 27       	eor	r25, r25
    2892:	88 27       	eor	r24, r24
    2894:	b3 2b       	or	r27, r19
    2896:	82 2b       	or	r24, r18
    2898:	50 e0       	ldi	r21, 0x00	; 0
    289a:	54 2f       	mov	r21, r20
    289c:	44 27       	eor	r20, r20
    289e:	60 e0       	ldi	r22, 0x00	; 0
    28a0:	70 e0       	ldi	r23, 0x00	; 0
    28a2:	84 2b       	or	r24, r20
    28a4:	95 2b       	or	r25, r21
    28a6:	a6 2b       	or	r26, r22
    28a8:	b7 2b       	or	r27, r23
    28aa:	f8 01       	movw	r30, r16
    28ac:	86 87       	std	Z+14, r24	; 0x0e
    28ae:	97 87       	std	Z+15, r25	; 0x0f
    28b0:	a0 8b       	std	Z+16, r26	; 0x10
    28b2:	b1 8b       	std	Z+17, r27	; 0x11
    28b4:	e3 5e       	subi	r30, 0xE3	; 227
    28b6:	fd 4f       	sbci	r31, 0xFD	; 253
    28b8:	30 81       	ld	r19, Z
    28ba:	31 97       	sbiw	r30, 0x01	; 1
    28bc:	80 81       	ld	r24, Z
    28be:	31 97       	sbiw	r30, 0x01	; 1
    28c0:	40 81       	ld	r20, Z
    28c2:	31 97       	sbiw	r30, 0x01	; 1
    28c4:	20 81       	ld	r18, Z
    28c6:	90 e0       	ldi	r25, 0x00	; 0
    28c8:	a0 e0       	ldi	r26, 0x00	; 0
    28ca:	b0 e0       	ldi	r27, 0x00	; 0
    28cc:	dc 01       	movw	r26, r24
    28ce:	99 27       	eor	r25, r25
    28d0:	88 27       	eor	r24, r24
    28d2:	b3 2b       	or	r27, r19
    28d4:	82 2b       	or	r24, r18
    28d6:	50 e0       	ldi	r21, 0x00	; 0
    28d8:	54 2f       	mov	r21, r20
    28da:	44 27       	eor	r20, r20
    28dc:	60 e0       	ldi	r22, 0x00	; 0
    28de:	70 e0       	ldi	r23, 0x00	; 0
    28e0:	84 2b       	or	r24, r20
    28e2:	95 2b       	or	r25, r21
    28e4:	a6 2b       	or	r26, r22
    28e6:	b7 2b       	or	r27, r23
    28e8:	f8 01       	movw	r30, r16
    28ea:	82 87       	std	Z+10, r24	; 0x0a
    28ec:	93 87       	std	Z+11, r25	; 0x0b
    28ee:	a4 87       	std	Z+12, r26	; 0x0c
    28f0:	b5 87       	std	Z+13, r27	; 0x0d
    28f2:	89 81       	ldd	r24, Y+1	; 0x01
    28f4:	f8 01       	movw	r30, r16
    28f6:	80 83       	st	Z, r24
    28f8:	80 91 7a 21 	lds	r24, 0x217A
    28fc:	90 91 7b 21 	lds	r25, 0x217B
    2900:	01 96       	adiw	r24, 0x01	; 1
    2902:	80 93 7a 21 	sts	0x217A, r24
    2906:	90 93 7b 21 	sts	0x217B, r25
    290a:	86 83       	std	Z+6, r24	; 0x06
    290c:	97 83       	std	Z+7, r25	; 0x07
    290e:	80 e0       	ldi	r24, 0x00	; 0
    2910:	25 c0       	rjmp	.+74     	; 0x295c <find_volume+0x75c>
    2912:	8b e0       	ldi	r24, 0x0B	; 11
    2914:	23 c0       	rjmp	.+70     	; 0x295c <find_volume+0x75c>
    2916:	8c e0       	ldi	r24, 0x0C	; 12
    2918:	21 c0       	rjmp	.+66     	; 0x295c <find_volume+0x75c>
    291a:	80 e0       	ldi	r24, 0x00	; 0
    291c:	1f c0       	rjmp	.+62     	; 0x295c <find_volume+0x75c>
    291e:	8a e0       	ldi	r24, 0x0A	; 10
    2920:	1d c0       	rjmp	.+58     	; 0x295c <find_volume+0x75c>
    2922:	83 e0       	ldi	r24, 0x03	; 3
    2924:	1b c0       	rjmp	.+54     	; 0x295c <find_volume+0x75c>
    2926:	8a e0       	ldi	r24, 0x0A	; 10
    2928:	19 c0       	rjmp	.+50     	; 0x295c <find_volume+0x75c>
    292a:	81 e0       	ldi	r24, 0x01	; 1
    292c:	17 c0       	rjmp	.+46     	; 0x295c <find_volume+0x75c>
    292e:	8d e0       	ldi	r24, 0x0D	; 13
    2930:	15 c0       	rjmp	.+42     	; 0x295c <find_volume+0x75c>
    2932:	8d e0       	ldi	r24, 0x0D	; 13
    2934:	13 c0       	rjmp	.+38     	; 0x295c <find_volume+0x75c>
    2936:	8d e0       	ldi	r24, 0x0D	; 13
    2938:	11 c0       	rjmp	.+34     	; 0x295c <find_volume+0x75c>
    293a:	8d e0       	ldi	r24, 0x0D	; 13
    293c:	0f c0       	rjmp	.+30     	; 0x295c <find_volume+0x75c>
    293e:	8d e0       	ldi	r24, 0x0D	; 13
    2940:	0d c0       	rjmp	.+26     	; 0x295c <find_volume+0x75c>
    2942:	8d e0       	ldi	r24, 0x0D	; 13
    2944:	0b c0       	rjmp	.+22     	; 0x295c <find_volume+0x75c>
    2946:	8d e0       	ldi	r24, 0x0D	; 13
    2948:	09 c0       	rjmp	.+18     	; 0x295c <find_volume+0x75c>
    294a:	8d e0       	ldi	r24, 0x0D	; 13
    294c:	07 c0       	rjmp	.+14     	; 0x295c <find_volume+0x75c>
    294e:	8d e0       	ldi	r24, 0x0D	; 13
    2950:	05 c0       	rjmp	.+10     	; 0x295c <find_volume+0x75c>
    2952:	8d e0       	ldi	r24, 0x0D	; 13
    2954:	03 c0       	rjmp	.+6      	; 0x295c <find_volume+0x75c>
    2956:	8d e0       	ldi	r24, 0x0D	; 13
    2958:	01 c0       	rjmp	.+2      	; 0x295c <find_volume+0x75c>
    295a:	8d e0       	ldi	r24, 0x0D	; 13
    295c:	af 96       	adiw	r28, 0x2f	; 47
    295e:	cd bf       	out	0x3d, r28	; 61
    2960:	de bf       	out	0x3e, r29	; 62
    2962:	df 91       	pop	r29
    2964:	cf 91       	pop	r28
    2966:	1f 91       	pop	r17
    2968:	0f 91       	pop	r16
    296a:	ff 90       	pop	r15
    296c:	ef 90       	pop	r14
    296e:	df 90       	pop	r13
    2970:	cf 90       	pop	r12
    2972:	08 95       	ret

00002974 <sync_fs>:
    2974:	ef 92       	push	r14
    2976:	ff 92       	push	r15
    2978:	0f 93       	push	r16
    297a:	1f 93       	push	r17
    297c:	cf 93       	push	r28
    297e:	df 93       	push	r29
    2980:	ec 01       	movw	r28, r24
    2982:	d1 da       	rcall	.-2654   	; 0x1f26 <sync_window>
    2984:	98 2f       	mov	r25, r24
    2986:	81 11       	cpse	r24, r1
    2988:	8c c0       	rjmp	.+280    	; 0x2aa2 <sync_fs+0x12e>
    298a:	88 81       	ld	r24, Y
    298c:	83 30       	cpi	r24, 0x03	; 3
    298e:	09 f0       	breq	.+2      	; 0x2992 <sync_fs+0x1e>
    2990:	7e c0       	rjmp	.+252    	; 0x2a8e <sync_fs+0x11a>
    2992:	8d 81       	ldd	r24, Y+5	; 0x05
    2994:	81 30       	cpi	r24, 0x01	; 1
    2996:	09 f0       	breq	.+2      	; 0x299a <sync_fs+0x26>
    2998:	7a c0       	rjmp	.+244    	; 0x2a8e <sync_fs+0x11a>
    299a:	40 e0       	ldi	r20, 0x00	; 0
    299c:	52 e0       	ldi	r21, 0x02	; 2
    299e:	60 e0       	ldi	r22, 0x00	; 0
    29a0:	70 e0       	ldi	r23, 0x00	; 0
    29a2:	7e 01       	movw	r14, r28
    29a4:	8e e2       	ldi	r24, 0x2E	; 46
    29a6:	e8 0e       	add	r14, r24
    29a8:	f1 1c       	adc	r15, r1
    29aa:	c7 01       	movw	r24, r14
    29ac:	ea d9       	rcall	.-3116   	; 0x1d82 <mem_set>
    29ae:	85 e5       	ldi	r24, 0x55	; 85
    29b0:	fe 01       	movw	r30, r28
    29b2:	e4 5d       	subi	r30, 0xD4	; 212
    29b4:	fd 4f       	sbci	r31, 0xFD	; 253
    29b6:	80 83       	st	Z, r24
    29b8:	8a ea       	ldi	r24, 0xAA	; 170
    29ba:	31 96       	adiw	r30, 0x01	; 1
    29bc:	80 83       	st	Z, r24
    29be:	82 e5       	ldi	r24, 0x52	; 82
    29c0:	8e a7       	std	Y+46, r24	; 0x2e
    29c2:	8f a7       	std	Y+47, r24	; 0x2f
    29c4:	81 e6       	ldi	r24, 0x61	; 97
    29c6:	88 ab       	std	Y+48, r24	; 0x30
    29c8:	91 e4       	ldi	r25, 0x41	; 65
    29ca:	99 ab       	std	Y+49, r25	; 0x31
    29cc:	22 e7       	ldi	r18, 0x72	; 114
    29ce:	7b 97       	sbiw	r30, 0x1b	; 27
    29d0:	20 83       	st	Z, r18
    29d2:	31 96       	adiw	r30, 0x01	; 1
    29d4:	20 83       	st	Z, r18
    29d6:	31 96       	adiw	r30, 0x01	; 1
    29d8:	90 83       	st	Z, r25
    29da:	31 96       	adiw	r30, 0x01	; 1
    29dc:	80 83       	st	Z, r24
    29de:	8e 85       	ldd	r24, Y+14	; 0x0e
    29e0:	9f 85       	ldd	r25, Y+15	; 0x0f
    29e2:	a8 89       	ldd	r26, Y+16	; 0x10
    29e4:	b9 89       	ldd	r27, Y+17	; 0x11
    29e6:	31 96       	adiw	r30, 0x01	; 1
    29e8:	80 83       	st	Z, r24
    29ea:	8e 85       	ldd	r24, Y+14	; 0x0e
    29ec:	9f 85       	ldd	r25, Y+15	; 0x0f
    29ee:	a8 89       	ldd	r26, Y+16	; 0x10
    29f0:	b9 89       	ldd	r27, Y+17	; 0x11
    29f2:	89 2f       	mov	r24, r25
    29f4:	99 27       	eor	r25, r25
    29f6:	31 96       	adiw	r30, 0x01	; 1
    29f8:	80 83       	st	Z, r24
    29fa:	8e 85       	ldd	r24, Y+14	; 0x0e
    29fc:	9f 85       	ldd	r25, Y+15	; 0x0f
    29fe:	a8 89       	ldd	r26, Y+16	; 0x10
    2a00:	b9 89       	ldd	r27, Y+17	; 0x11
    2a02:	cd 01       	movw	r24, r26
    2a04:	aa 27       	eor	r26, r26
    2a06:	bb 27       	eor	r27, r27
    2a08:	31 96       	adiw	r30, 0x01	; 1
    2a0a:	80 83       	st	Z, r24
    2a0c:	8e 85       	ldd	r24, Y+14	; 0x0e
    2a0e:	9f 85       	ldd	r25, Y+15	; 0x0f
    2a10:	a8 89       	ldd	r26, Y+16	; 0x10
    2a12:	b9 89       	ldd	r27, Y+17	; 0x11
    2a14:	8b 2f       	mov	r24, r27
    2a16:	99 27       	eor	r25, r25
    2a18:	aa 27       	eor	r26, r26
    2a1a:	bb 27       	eor	r27, r27
    2a1c:	31 96       	adiw	r30, 0x01	; 1
    2a1e:	80 83       	st	Z, r24
    2a20:	8a 85       	ldd	r24, Y+10	; 0x0a
    2a22:	9b 85       	ldd	r25, Y+11	; 0x0b
    2a24:	ac 85       	ldd	r26, Y+12	; 0x0c
    2a26:	bd 85       	ldd	r27, Y+13	; 0x0d
    2a28:	31 96       	adiw	r30, 0x01	; 1
    2a2a:	80 83       	st	Z, r24
    2a2c:	8a 85       	ldd	r24, Y+10	; 0x0a
    2a2e:	9b 85       	ldd	r25, Y+11	; 0x0b
    2a30:	ac 85       	ldd	r26, Y+12	; 0x0c
    2a32:	bd 85       	ldd	r27, Y+13	; 0x0d
    2a34:	89 2f       	mov	r24, r25
    2a36:	99 27       	eor	r25, r25
    2a38:	31 96       	adiw	r30, 0x01	; 1
    2a3a:	80 83       	st	Z, r24
    2a3c:	8a 85       	ldd	r24, Y+10	; 0x0a
    2a3e:	9b 85       	ldd	r25, Y+11	; 0x0b
    2a40:	ac 85       	ldd	r26, Y+12	; 0x0c
    2a42:	bd 85       	ldd	r27, Y+13	; 0x0d
    2a44:	cd 01       	movw	r24, r26
    2a46:	aa 27       	eor	r26, r26
    2a48:	bb 27       	eor	r27, r27
    2a4a:	31 96       	adiw	r30, 0x01	; 1
    2a4c:	80 83       	st	Z, r24
    2a4e:	8a 85       	ldd	r24, Y+10	; 0x0a
    2a50:	9b 85       	ldd	r25, Y+11	; 0x0b
    2a52:	ac 85       	ldd	r26, Y+12	; 0x0c
    2a54:	bd 85       	ldd	r27, Y+13	; 0x0d
    2a56:	8b 2f       	mov	r24, r27
    2a58:	99 27       	eor	r25, r25
    2a5a:	aa 27       	eor	r26, r26
    2a5c:	bb 27       	eor	r27, r27
    2a5e:	31 96       	adiw	r30, 0x01	; 1
    2a60:	80 83       	st	Z, r24
    2a62:	8a 8d       	ldd	r24, Y+26	; 0x1a
    2a64:	9b 8d       	ldd	r25, Y+27	; 0x1b
    2a66:	ac 8d       	ldd	r26, Y+28	; 0x1c
    2a68:	bd 8d       	ldd	r27, Y+29	; 0x1d
    2a6a:	01 96       	adiw	r24, 0x01	; 1
    2a6c:	a1 1d       	adc	r26, r1
    2a6e:	b1 1d       	adc	r27, r1
    2a70:	8a a7       	std	Y+42, r24	; 0x2a
    2a72:	9b a7       	std	Y+43, r25	; 0x2b
    2a74:	ac a7       	std	Y+44, r26	; 0x2c
    2a76:	bd a7       	std	Y+45, r27	; 0x2d
    2a78:	2a a5       	ldd	r18, Y+42	; 0x2a
    2a7a:	3b a5       	ldd	r19, Y+43	; 0x2b
    2a7c:	4c a5       	ldd	r20, Y+44	; 0x2c
    2a7e:	5d a5       	ldd	r21, Y+45	; 0x2d
    2a80:	89 81       	ldd	r24, Y+1	; 0x01
    2a82:	01 e0       	ldi	r16, 0x01	; 1
    2a84:	10 e0       	ldi	r17, 0x00	; 0
    2a86:	b7 01       	movw	r22, r14
    2a88:	0e 94 5b 39 	call	0x72b6	; 0x72b6 <disk_write>
    2a8c:	1d 82       	std	Y+5, r1	; 0x05
    2a8e:	89 81       	ldd	r24, Y+1	; 0x01
    2a90:	40 e0       	ldi	r20, 0x00	; 0
    2a92:	50 e0       	ldi	r21, 0x00	; 0
    2a94:	60 e0       	ldi	r22, 0x00	; 0
    2a96:	0e 94 7d 3b 	call	0x76fa	; 0x76fa <disk_ioctl>
    2a9a:	91 e0       	ldi	r25, 0x01	; 1
    2a9c:	81 11       	cpse	r24, r1
    2a9e:	01 c0       	rjmp	.+2      	; 0x2aa2 <sync_fs+0x12e>
    2aa0:	90 e0       	ldi	r25, 0x00	; 0
    2aa2:	89 2f       	mov	r24, r25
    2aa4:	df 91       	pop	r29
    2aa6:	cf 91       	pop	r28
    2aa8:	1f 91       	pop	r17
    2aaa:	0f 91       	pop	r16
    2aac:	ff 90       	pop	r15
    2aae:	ef 90       	pop	r14
    2ab0:	08 95       	ret

00002ab2 <clust2sect>:
    2ab2:	cf 92       	push	r12
    2ab4:	df 92       	push	r13
    2ab6:	ef 92       	push	r14
    2ab8:	ff 92       	push	r15
    2aba:	0f 93       	push	r16
    2abc:	1f 93       	push	r17
    2abe:	cf 93       	push	r28
    2ac0:	df 93       	push	r29
    2ac2:	00 d0       	rcall	.+0      	; 0x2ac4 <clust2sect+0x12>
    2ac4:	1f 92       	push	r1
    2ac6:	cd b7       	in	r28, 0x3d	; 61
    2ac8:	de b7       	in	r29, 0x3e	; 62
    2aca:	fc 01       	movw	r30, r24
    2acc:	49 83       	std	Y+1, r20	; 0x01
    2ace:	5a 83       	std	Y+2, r21	; 0x02
    2ad0:	6b 83       	std	Y+3, r22	; 0x03
    2ad2:	7c 83       	std	Y+4, r23	; 0x04
    2ad4:	49 81       	ldd	r20, Y+1	; 0x01
    2ad6:	5a 81       	ldd	r21, Y+2	; 0x02
    2ad8:	6b 81       	ldd	r22, Y+3	; 0x03
    2ada:	7c 81       	ldd	r23, Y+4	; 0x04
    2adc:	42 50       	subi	r20, 0x02	; 2
    2ade:	51 09       	sbc	r21, r1
    2ae0:	61 09       	sbc	r22, r1
    2ae2:	71 09       	sbc	r23, r1
    2ae4:	49 83       	std	Y+1, r20	; 0x01
    2ae6:	5a 83       	std	Y+2, r21	; 0x02
    2ae8:	6b 83       	std	Y+3, r22	; 0x03
    2aea:	7c 83       	std	Y+4, r23	; 0x04
    2aec:	02 89       	ldd	r16, Z+18	; 0x12
    2aee:	13 89       	ldd	r17, Z+19	; 0x13
    2af0:	24 89       	ldd	r18, Z+20	; 0x14
    2af2:	35 89       	ldd	r19, Z+21	; 0x15
    2af4:	49 81       	ldd	r20, Y+1	; 0x01
    2af6:	5a 81       	ldd	r21, Y+2	; 0x02
    2af8:	6b 81       	ldd	r22, Y+3	; 0x03
    2afa:	7c 81       	ldd	r23, Y+4	; 0x04
    2afc:	02 50       	subi	r16, 0x02	; 2
    2afe:	11 09       	sbc	r17, r1
    2b00:	21 09       	sbc	r18, r1
    2b02:	31 09       	sbc	r19, r1
    2b04:	40 17       	cp	r20, r16
    2b06:	51 07       	cpc	r21, r17
    2b08:	62 07       	cpc	r22, r18
    2b0a:	73 07       	cpc	r23, r19
    2b0c:	88 f4       	brcc	.+34     	; 0x2b30 <clust2sect+0x7e>
    2b0e:	a2 81       	ldd	r26, Z+2	; 0x02
    2b10:	29 81       	ldd	r18, Y+1	; 0x01
    2b12:	3a 81       	ldd	r19, Y+2	; 0x02
    2b14:	4b 81       	ldd	r20, Y+3	; 0x03
    2b16:	5c 81       	ldd	r21, Y+4	; 0x04
    2b18:	c6 a0       	ldd	r12, Z+38	; 0x26
    2b1a:	d7 a0       	ldd	r13, Z+39	; 0x27
    2b1c:	e0 a4       	ldd	r14, Z+40	; 0x28
    2b1e:	f1 a4       	ldd	r15, Z+41	; 0x29
    2b20:	b0 e0       	ldi	r27, 0x00	; 0
    2b22:	0e 94 73 3e 	call	0x7ce6	; 0x7ce6 <__muluhisi3>
    2b26:	6c 0d       	add	r22, r12
    2b28:	7d 1d       	adc	r23, r13
    2b2a:	8e 1d       	adc	r24, r14
    2b2c:	9f 1d       	adc	r25, r15
    2b2e:	03 c0       	rjmp	.+6      	; 0x2b36 <clust2sect+0x84>
    2b30:	60 e0       	ldi	r22, 0x00	; 0
    2b32:	70 e0       	ldi	r23, 0x00	; 0
    2b34:	cb 01       	movw	r24, r22
    2b36:	24 96       	adiw	r28, 0x04	; 4
    2b38:	cd bf       	out	0x3d, r28	; 61
    2b3a:	de bf       	out	0x3e, r29	; 62
    2b3c:	df 91       	pop	r29
    2b3e:	cf 91       	pop	r28
    2b40:	1f 91       	pop	r17
    2b42:	0f 91       	pop	r16
    2b44:	ff 90       	pop	r15
    2b46:	ef 90       	pop	r14
    2b48:	df 90       	pop	r13
    2b4a:	cf 90       	pop	r12
    2b4c:	08 95       	ret

00002b4e <get_fat>:
    2b4e:	ff 92       	push	r15
    2b50:	0f 93       	push	r16
    2b52:	1f 93       	push	r17
    2b54:	cf 93       	push	r28
    2b56:	df 93       	push	r29
    2b58:	cd b7       	in	r28, 0x3d	; 61
    2b5a:	de b7       	in	r29, 0x3e	; 62
    2b5c:	28 97       	sbiw	r28, 0x08	; 8
    2b5e:	cd bf       	out	0x3d, r28	; 61
    2b60:	de bf       	out	0x3e, r29	; 62
    2b62:	8c 01       	movw	r16, r24
    2b64:	4d 83       	std	Y+5, r20	; 0x05
    2b66:	5e 83       	std	Y+6, r21	; 0x06
    2b68:	6f 83       	std	Y+7, r22	; 0x07
    2b6a:	78 87       	std	Y+8, r23	; 0x08
    2b6c:	4d 81       	ldd	r20, Y+5	; 0x05
    2b6e:	5e 81       	ldd	r21, Y+6	; 0x06
    2b70:	6f 81       	ldd	r22, Y+7	; 0x07
    2b72:	78 85       	ldd	r23, Y+8	; 0x08
    2b74:	42 30       	cpi	r20, 0x02	; 2
    2b76:	51 05       	cpc	r21, r1
    2b78:	61 05       	cpc	r22, r1
    2b7a:	71 05       	cpc	r23, r1
    2b7c:	08 f4       	brcc	.+2      	; 0x2b80 <get_fat+0x32>
    2b7e:	f6 c0       	rjmp	.+492    	; 0x2d6c <get_fat+0x21e>
    2b80:	fc 01       	movw	r30, r24
    2b82:	42 89       	ldd	r20, Z+18	; 0x12
    2b84:	53 89       	ldd	r21, Z+19	; 0x13
    2b86:	64 89       	ldd	r22, Z+20	; 0x14
    2b88:	75 89       	ldd	r23, Z+21	; 0x15
    2b8a:	8d 81       	ldd	r24, Y+5	; 0x05
    2b8c:	9e 81       	ldd	r25, Y+6	; 0x06
    2b8e:	af 81       	ldd	r26, Y+7	; 0x07
    2b90:	b8 85       	ldd	r27, Y+8	; 0x08
    2b92:	84 17       	cp	r24, r20
    2b94:	95 07       	cpc	r25, r21
    2b96:	a6 07       	cpc	r26, r22
    2b98:	b7 07       	cpc	r27, r23
    2b9a:	08 f0       	brcs	.+2      	; 0x2b9e <get_fat+0x50>
    2b9c:	ec c0       	rjmp	.+472    	; 0x2d76 <get_fat+0x228>
    2b9e:	80 81       	ld	r24, Z
    2ba0:	82 30       	cpi	r24, 0x02	; 2
    2ba2:	09 f4       	brne	.+2      	; 0x2ba6 <get_fat+0x58>
    2ba4:	69 c0       	rjmp	.+210    	; 0x2c78 <get_fat+0x12a>
    2ba6:	83 30       	cpi	r24, 0x03	; 3
    2ba8:	09 f4       	brne	.+2      	; 0x2bac <get_fat+0x5e>
    2baa:	95 c0       	rjmp	.+298    	; 0x2cd6 <get_fat+0x188>
    2bac:	81 30       	cpi	r24, 0x01	; 1
    2bae:	09 f0       	breq	.+2      	; 0x2bb2 <get_fat+0x64>
    2bb0:	e7 c0       	rjmp	.+462    	; 0x2d80 <get_fat+0x232>
    2bb2:	8d 81       	ldd	r24, Y+5	; 0x05
    2bb4:	9e 81       	ldd	r25, Y+6	; 0x06
    2bb6:	af 81       	ldd	r26, Y+7	; 0x07
    2bb8:	b8 85       	ldd	r27, Y+8	; 0x08
    2bba:	8b 83       	std	Y+3, r24	; 0x03
    2bbc:	9c 83       	std	Y+4, r25	; 0x04
    2bbe:	8b 81       	ldd	r24, Y+3	; 0x03
    2bc0:	9c 81       	ldd	r25, Y+4	; 0x04
    2bc2:	2b 81       	ldd	r18, Y+3	; 0x03
    2bc4:	3c 81       	ldd	r19, Y+4	; 0x04
    2bc6:	96 95       	lsr	r25
    2bc8:	87 95       	ror	r24
    2bca:	82 0f       	add	r24, r18
    2bcc:	93 1f       	adc	r25, r19
    2bce:	8b 83       	std	Y+3, r24	; 0x03
    2bd0:	9c 83       	std	Y+4, r25	; 0x04
    2bd2:	46 8d       	ldd	r20, Z+30	; 0x1e
    2bd4:	57 8d       	ldd	r21, Z+31	; 0x1f
    2bd6:	60 a1       	ldd	r22, Z+32	; 0x20
    2bd8:	71 a1       	ldd	r23, Z+33	; 0x21
    2bda:	8b 81       	ldd	r24, Y+3	; 0x03
    2bdc:	9c 81       	ldd	r25, Y+4	; 0x04
    2bde:	89 2f       	mov	r24, r25
    2be0:	99 27       	eor	r25, r25
    2be2:	86 95       	lsr	r24
    2be4:	48 0f       	add	r20, r24
    2be6:	59 1f       	adc	r21, r25
    2be8:	61 1d       	adc	r22, r1
    2bea:	71 1d       	adc	r23, r1
    2bec:	c8 01       	movw	r24, r16
    2bee:	1f da       	rcall	.-3010   	; 0x202e <move_window>
    2bf0:	81 11       	cpse	r24, r1
    2bf2:	cb c0       	rjmp	.+406    	; 0x2d8a <get_fat+0x23c>
    2bf4:	eb 81       	ldd	r30, Y+3	; 0x03
    2bf6:	fc 81       	ldd	r31, Y+4	; 0x04
    2bf8:	f1 70       	andi	r31, 0x01	; 1
    2bfa:	e0 0f       	add	r30, r16
    2bfc:	f1 1f       	adc	r31, r17
    2bfe:	86 a5       	ldd	r24, Z+46	; 0x2e
    2c00:	90 e0       	ldi	r25, 0x00	; 0
    2c02:	89 83       	std	Y+1, r24	; 0x01
    2c04:	9a 83       	std	Y+2, r25	; 0x02
    2c06:	8b 81       	ldd	r24, Y+3	; 0x03
    2c08:	9c 81       	ldd	r25, Y+4	; 0x04
    2c0a:	01 96       	adiw	r24, 0x01	; 1
    2c0c:	8b 83       	std	Y+3, r24	; 0x03
    2c0e:	9c 83       	std	Y+4, r25	; 0x04
    2c10:	f8 01       	movw	r30, r16
    2c12:	46 8d       	ldd	r20, Z+30	; 0x1e
    2c14:	57 8d       	ldd	r21, Z+31	; 0x1f
    2c16:	60 a1       	ldd	r22, Z+32	; 0x20
    2c18:	71 a1       	ldd	r23, Z+33	; 0x21
    2c1a:	8b 81       	ldd	r24, Y+3	; 0x03
    2c1c:	9c 81       	ldd	r25, Y+4	; 0x04
    2c1e:	89 2f       	mov	r24, r25
    2c20:	99 27       	eor	r25, r25
    2c22:	86 95       	lsr	r24
    2c24:	48 0f       	add	r20, r24
    2c26:	59 1f       	adc	r21, r25
    2c28:	61 1d       	adc	r22, r1
    2c2a:	71 1d       	adc	r23, r1
    2c2c:	c8 01       	movw	r24, r16
    2c2e:	ff d9       	rcall	.-3074   	; 0x202e <move_window>
    2c30:	81 11       	cpse	r24, r1
    2c32:	af c0       	rjmp	.+350    	; 0x2d92 <get_fat+0x244>
    2c34:	eb 81       	ldd	r30, Y+3	; 0x03
    2c36:	fc 81       	ldd	r31, Y+4	; 0x04
    2c38:	f1 70       	andi	r31, 0x01	; 1
    2c3a:	e0 0f       	add	r30, r16
    2c3c:	f1 1f       	adc	r31, r17
    2c3e:	26 a5       	ldd	r18, Z+46	; 0x2e
    2c40:	89 81       	ldd	r24, Y+1	; 0x01
    2c42:	9a 81       	ldd	r25, Y+2	; 0x02
    2c44:	92 2b       	or	r25, r18
    2c46:	89 83       	std	Y+1, r24	; 0x01
    2c48:	9a 83       	std	Y+2, r25	; 0x02
    2c4a:	8d 81       	ldd	r24, Y+5	; 0x05
    2c4c:	9e 81       	ldd	r25, Y+6	; 0x06
    2c4e:	af 81       	ldd	r26, Y+7	; 0x07
    2c50:	b8 85       	ldd	r27, Y+8	; 0x08
    2c52:	80 ff       	sbrs	r24, 0
    2c54:	0b c0       	rjmp	.+22     	; 0x2c6c <get_fat+0x11e>
    2c56:	69 81       	ldd	r22, Y+1	; 0x01
    2c58:	7a 81       	ldd	r23, Y+2	; 0x02
    2c5a:	72 95       	swap	r23
    2c5c:	62 95       	swap	r22
    2c5e:	6f 70       	andi	r22, 0x0F	; 15
    2c60:	67 27       	eor	r22, r23
    2c62:	7f 70       	andi	r23, 0x0F	; 15
    2c64:	67 27       	eor	r22, r23
    2c66:	80 e0       	ldi	r24, 0x00	; 0
    2c68:	90 e0       	ldi	r25, 0x00	; 0
    2c6a:	9e c0       	rjmp	.+316    	; 0x2da8 <get_fat+0x25a>
    2c6c:	69 81       	ldd	r22, Y+1	; 0x01
    2c6e:	7a 81       	ldd	r23, Y+2	; 0x02
    2c70:	7f 70       	andi	r23, 0x0F	; 15
    2c72:	80 e0       	ldi	r24, 0x00	; 0
    2c74:	90 e0       	ldi	r25, 0x00	; 0
    2c76:	98 c0       	rjmp	.+304    	; 0x2da8 <get_fat+0x25a>
    2c78:	f8 01       	movw	r30, r16
    2c7a:	86 8d       	ldd	r24, Z+30	; 0x1e
    2c7c:	97 8d       	ldd	r25, Z+31	; 0x1f
    2c7e:	a0 a1       	ldd	r26, Z+32	; 0x20
    2c80:	b1 a1       	ldd	r27, Z+33	; 0x21
    2c82:	4d 81       	ldd	r20, Y+5	; 0x05
    2c84:	5e 81       	ldd	r21, Y+6	; 0x06
    2c86:	6f 81       	ldd	r22, Y+7	; 0x07
    2c88:	78 85       	ldd	r23, Y+8	; 0x08
    2c8a:	45 2f       	mov	r20, r21
    2c8c:	56 2f       	mov	r21, r22
    2c8e:	67 2f       	mov	r22, r23
    2c90:	77 27       	eor	r23, r23
    2c92:	48 0f       	add	r20, r24
    2c94:	59 1f       	adc	r21, r25
    2c96:	6a 1f       	adc	r22, r26
    2c98:	7b 1f       	adc	r23, r27
    2c9a:	c8 01       	movw	r24, r16
    2c9c:	c8 d9       	rcall	.-3184   	; 0x202e <move_window>
    2c9e:	81 11       	cpse	r24, r1
    2ca0:	7c c0       	rjmp	.+248    	; 0x2d9a <get_fat+0x24c>
    2ca2:	8d 81       	ldd	r24, Y+5	; 0x05
    2ca4:	9e 81       	ldd	r25, Y+6	; 0x06
    2ca6:	af 81       	ldd	r26, Y+7	; 0x07
    2ca8:	b8 85       	ldd	r27, Y+8	; 0x08
    2caa:	88 0f       	add	r24, r24
    2cac:	99 1f       	adc	r25, r25
    2cae:	aa 1f       	adc	r26, r26
    2cb0:	bb 1f       	adc	r27, r27
    2cb2:	8e 7f       	andi	r24, 0xFE	; 254
    2cb4:	91 70       	andi	r25, 0x01	; 1
    2cb6:	aa 27       	eor	r26, r26
    2cb8:	bb 27       	eor	r27, r27
    2cba:	fc 01       	movw	r30, r24
    2cbc:	be 96       	adiw	r30, 0x2e	; 46
    2cbe:	e0 0f       	add	r30, r16
    2cc0:	f1 1f       	adc	r31, r17
    2cc2:	21 81       	ldd	r18, Z+1	; 0x01
    2cc4:	f8 01       	movw	r30, r16
    2cc6:	e8 0f       	add	r30, r24
    2cc8:	f9 1f       	adc	r31, r25
    2cca:	66 a5       	ldd	r22, Z+46	; 0x2e
    2ccc:	70 e0       	ldi	r23, 0x00	; 0
    2cce:	72 2b       	or	r23, r18
    2cd0:	80 e0       	ldi	r24, 0x00	; 0
    2cd2:	90 e0       	ldi	r25, 0x00	; 0
    2cd4:	69 c0       	rjmp	.+210    	; 0x2da8 <get_fat+0x25a>
    2cd6:	f8 01       	movw	r30, r16
    2cd8:	86 8d       	ldd	r24, Z+30	; 0x1e
    2cda:	97 8d       	ldd	r25, Z+31	; 0x1f
    2cdc:	a0 a1       	ldd	r26, Z+32	; 0x20
    2cde:	b1 a1       	ldd	r27, Z+33	; 0x21
    2ce0:	4d 81       	ldd	r20, Y+5	; 0x05
    2ce2:	5e 81       	ldd	r21, Y+6	; 0x06
    2ce4:	6f 81       	ldd	r22, Y+7	; 0x07
    2ce6:	78 85       	ldd	r23, Y+8	; 0x08
    2ce8:	68 94       	set
    2cea:	16 f8       	bld	r1, 6
    2cec:	76 95       	lsr	r23
    2cee:	67 95       	ror	r22
    2cf0:	57 95       	ror	r21
    2cf2:	47 95       	ror	r20
    2cf4:	16 94       	lsr	r1
    2cf6:	d1 f7       	brne	.-12     	; 0x2cec <get_fat+0x19e>
    2cf8:	48 0f       	add	r20, r24
    2cfa:	59 1f       	adc	r21, r25
    2cfc:	6a 1f       	adc	r22, r26
    2cfe:	7b 1f       	adc	r23, r27
    2d00:	c8 01       	movw	r24, r16
    2d02:	95 d9       	rcall	.-3286   	; 0x202e <move_window>
    2d04:	81 11       	cpse	r24, r1
    2d06:	4d c0       	rjmp	.+154    	; 0x2da2 <get_fat+0x254>
    2d08:	8d 81       	ldd	r24, Y+5	; 0x05
    2d0a:	9e 81       	ldd	r25, Y+6	; 0x06
    2d0c:	af 81       	ldd	r26, Y+7	; 0x07
    2d0e:	b8 85       	ldd	r27, Y+8	; 0x08
    2d10:	88 0f       	add	r24, r24
    2d12:	99 1f       	adc	r25, r25
    2d14:	aa 1f       	adc	r26, r26
    2d16:	bb 1f       	adc	r27, r27
    2d18:	88 0f       	add	r24, r24
    2d1a:	99 1f       	adc	r25, r25
    2d1c:	aa 1f       	adc	r26, r26
    2d1e:	bb 1f       	adc	r27, r27
    2d20:	8c 7f       	andi	r24, 0xFC	; 252
    2d22:	91 70       	andi	r25, 0x01	; 1
    2d24:	aa 27       	eor	r26, r26
    2d26:	bb 27       	eor	r27, r27
    2d28:	fc 01       	movw	r30, r24
    2d2a:	be 96       	adiw	r30, 0x2e	; 46
    2d2c:	e0 0f       	add	r30, r16
    2d2e:	f1 1f       	adc	r31, r17
    2d30:	43 81       	ldd	r20, Z+3	; 0x03
    2d32:	f2 80       	ldd	r15, Z+2	; 0x02
    2d34:	31 81       	ldd	r19, Z+1	; 0x01
    2d36:	f8 01       	movw	r30, r16
    2d38:	e8 0f       	add	r30, r24
    2d3a:	f9 1f       	adc	r31, r25
    2d3c:	26 a5       	ldd	r18, Z+46	; 0x2e
    2d3e:	50 e0       	ldi	r21, 0x00	; 0
    2d40:	60 e0       	ldi	r22, 0x00	; 0
    2d42:	70 e0       	ldi	r23, 0x00	; 0
    2d44:	74 2f       	mov	r23, r20
    2d46:	66 27       	eor	r22, r22
    2d48:	55 27       	eor	r21, r21
    2d4a:	44 27       	eor	r20, r20
    2d4c:	6f 29       	or	r22, r15
    2d4e:	83 2f       	mov	r24, r19
    2d50:	90 e0       	ldi	r25, 0x00	; 0
    2d52:	98 2f       	mov	r25, r24
    2d54:	88 27       	eor	r24, r24
    2d56:	a0 e0       	ldi	r26, 0x00	; 0
    2d58:	b0 e0       	ldi	r27, 0x00	; 0
    2d5a:	84 2b       	or	r24, r20
    2d5c:	95 2b       	or	r25, r21
    2d5e:	a6 2b       	or	r26, r22
    2d60:	b7 2b       	or	r27, r23
    2d62:	82 2b       	or	r24, r18
    2d64:	bc 01       	movw	r22, r24
    2d66:	cd 01       	movw	r24, r26
    2d68:	9f 70       	andi	r25, 0x0F	; 15
    2d6a:	1e c0       	rjmp	.+60     	; 0x2da8 <get_fat+0x25a>
    2d6c:	61 e0       	ldi	r22, 0x01	; 1
    2d6e:	70 e0       	ldi	r23, 0x00	; 0
    2d70:	80 e0       	ldi	r24, 0x00	; 0
    2d72:	90 e0       	ldi	r25, 0x00	; 0
    2d74:	19 c0       	rjmp	.+50     	; 0x2da8 <get_fat+0x25a>
    2d76:	61 e0       	ldi	r22, 0x01	; 1
    2d78:	70 e0       	ldi	r23, 0x00	; 0
    2d7a:	80 e0       	ldi	r24, 0x00	; 0
    2d7c:	90 e0       	ldi	r25, 0x00	; 0
    2d7e:	14 c0       	rjmp	.+40     	; 0x2da8 <get_fat+0x25a>
    2d80:	61 e0       	ldi	r22, 0x01	; 1
    2d82:	70 e0       	ldi	r23, 0x00	; 0
    2d84:	80 e0       	ldi	r24, 0x00	; 0
    2d86:	90 e0       	ldi	r25, 0x00	; 0
    2d88:	0f c0       	rjmp	.+30     	; 0x2da8 <get_fat+0x25a>
    2d8a:	6f ef       	ldi	r22, 0xFF	; 255
    2d8c:	7f ef       	ldi	r23, 0xFF	; 255
    2d8e:	cb 01       	movw	r24, r22
    2d90:	0b c0       	rjmp	.+22     	; 0x2da8 <get_fat+0x25a>
    2d92:	6f ef       	ldi	r22, 0xFF	; 255
    2d94:	7f ef       	ldi	r23, 0xFF	; 255
    2d96:	cb 01       	movw	r24, r22
    2d98:	07 c0       	rjmp	.+14     	; 0x2da8 <get_fat+0x25a>
    2d9a:	6f ef       	ldi	r22, 0xFF	; 255
    2d9c:	7f ef       	ldi	r23, 0xFF	; 255
    2d9e:	cb 01       	movw	r24, r22
    2da0:	03 c0       	rjmp	.+6      	; 0x2da8 <get_fat+0x25a>
    2da2:	6f ef       	ldi	r22, 0xFF	; 255
    2da4:	7f ef       	ldi	r23, 0xFF	; 255
    2da6:	cb 01       	movw	r24, r22
    2da8:	28 96       	adiw	r28, 0x08	; 8
    2daa:	cd bf       	out	0x3d, r28	; 61
    2dac:	de bf       	out	0x3e, r29	; 62
    2dae:	df 91       	pop	r29
    2db0:	cf 91       	pop	r28
    2db2:	1f 91       	pop	r17
    2db4:	0f 91       	pop	r16
    2db6:	ff 90       	pop	r15
    2db8:	08 95       	ret

00002dba <dir_sdi>:
    2dba:	0f 93       	push	r16
    2dbc:	1f 93       	push	r17
    2dbe:	cf 93       	push	r28
    2dc0:	df 93       	push	r29
    2dc2:	cd b7       	in	r28, 0x3d	; 61
    2dc4:	de b7       	in	r29, 0x3e	; 62
    2dc6:	2c 97       	sbiw	r28, 0x0c	; 12
    2dc8:	cd bf       	out	0x3d, r28	; 61
    2dca:	de bf       	out	0x3e, r29	; 62
    2dcc:	8c 01       	movw	r16, r24
    2dce:	6b 87       	std	Y+11, r22	; 0x0b
    2dd0:	7c 87       	std	Y+12, r23	; 0x0c
    2dd2:	8b 85       	ldd	r24, Y+11	; 0x0b
    2dd4:	9c 85       	ldd	r25, Y+12	; 0x0c
    2dd6:	d8 01       	movw	r26, r16
    2dd8:	14 96       	adiw	r26, 0x04	; 4
    2dda:	8d 93       	st	X+, r24
    2ddc:	9c 93       	st	X, r25
    2dde:	15 97       	sbiw	r26, 0x05	; 5
    2de0:	16 96       	adiw	r26, 0x06	; 6
    2de2:	8d 91       	ld	r24, X+
    2de4:	9d 91       	ld	r25, X+
    2de6:	0d 90       	ld	r0, X+
    2de8:	bc 91       	ld	r27, X
    2dea:	a0 2d       	mov	r26, r0
    2dec:	89 83       	std	Y+1, r24	; 0x01
    2dee:	9a 83       	std	Y+2, r25	; 0x02
    2df0:	ab 83       	std	Y+3, r26	; 0x03
    2df2:	bc 83       	std	Y+4, r27	; 0x04
    2df4:	89 81       	ldd	r24, Y+1	; 0x01
    2df6:	9a 81       	ldd	r25, Y+2	; 0x02
    2df8:	ab 81       	ldd	r26, Y+3	; 0x03
    2dfa:	bc 81       	ldd	r27, Y+4	; 0x04
    2dfc:	01 97       	sbiw	r24, 0x01	; 1
    2dfe:	a1 05       	cpc	r26, r1
    2e00:	b1 05       	cpc	r27, r1
    2e02:	09 f4       	brne	.+2      	; 0x2e06 <dir_sdi+0x4c>
    2e04:	d2 c0       	rjmp	.+420    	; 0x2faa <dir_sdi+0x1f0>
    2e06:	d8 01       	movw	r26, r16
    2e08:	ed 91       	ld	r30, X+
    2e0a:	fc 91       	ld	r31, X
    2e0c:	42 89       	ldd	r20, Z+18	; 0x12
    2e0e:	53 89       	ldd	r21, Z+19	; 0x13
    2e10:	64 89       	ldd	r22, Z+20	; 0x14
    2e12:	75 89       	ldd	r23, Z+21	; 0x15
    2e14:	89 81       	ldd	r24, Y+1	; 0x01
    2e16:	9a 81       	ldd	r25, Y+2	; 0x02
    2e18:	ab 81       	ldd	r26, Y+3	; 0x03
    2e1a:	bc 81       	ldd	r27, Y+4	; 0x04
    2e1c:	84 17       	cp	r24, r20
    2e1e:	95 07       	cpc	r25, r21
    2e20:	a6 07       	cpc	r26, r22
    2e22:	b7 07       	cpc	r27, r23
    2e24:	08 f0       	brcs	.+2      	; 0x2e28 <dir_sdi+0x6e>
    2e26:	c3 c0       	rjmp	.+390    	; 0x2fae <dir_sdi+0x1f4>
    2e28:	89 81       	ldd	r24, Y+1	; 0x01
    2e2a:	9a 81       	ldd	r25, Y+2	; 0x02
    2e2c:	ab 81       	ldd	r26, Y+3	; 0x03
    2e2e:	bc 81       	ldd	r27, Y+4	; 0x04
    2e30:	89 2b       	or	r24, r25
    2e32:	8a 2b       	or	r24, r26
    2e34:	8b 2b       	or	r24, r27
    2e36:	59 f4       	brne	.+22     	; 0x2e4e <dir_sdi+0x94>
    2e38:	80 81       	ld	r24, Z
    2e3a:	83 30       	cpi	r24, 0x03	; 3
    2e3c:	41 f4       	brne	.+16     	; 0x2e4e <dir_sdi+0x94>
    2e3e:	82 a1       	ldd	r24, Z+34	; 0x22
    2e40:	93 a1       	ldd	r25, Z+35	; 0x23
    2e42:	a4 a1       	ldd	r26, Z+36	; 0x24
    2e44:	b5 a1       	ldd	r27, Z+37	; 0x25
    2e46:	89 83       	std	Y+1, r24	; 0x01
    2e48:	9a 83       	std	Y+2, r25	; 0x02
    2e4a:	ab 83       	std	Y+3, r26	; 0x03
    2e4c:	bc 83       	std	Y+4, r27	; 0x04
    2e4e:	89 81       	ldd	r24, Y+1	; 0x01
    2e50:	9a 81       	ldd	r25, Y+2	; 0x02
    2e52:	ab 81       	ldd	r26, Y+3	; 0x03
    2e54:	bc 81       	ldd	r27, Y+4	; 0x04
    2e56:	89 2b       	or	r24, r25
    2e58:	8a 2b       	or	r24, r26
    2e5a:	8b 2b       	or	r24, r27
    2e5c:	89 f4       	brne	.+34     	; 0x2e80 <dir_sdi+0xc6>
    2e5e:	20 85       	ldd	r18, Z+8	; 0x08
    2e60:	31 85       	ldd	r19, Z+9	; 0x09
    2e62:	8b 85       	ldd	r24, Y+11	; 0x0b
    2e64:	9c 85       	ldd	r25, Y+12	; 0x0c
    2e66:	82 17       	cp	r24, r18
    2e68:	93 07       	cpc	r25, r19
    2e6a:	08 f0       	brcs	.+2      	; 0x2e6e <dir_sdi+0xb4>
    2e6c:	a2 c0       	rjmp	.+324    	; 0x2fb2 <dir_sdi+0x1f8>
    2e6e:	82 a1       	ldd	r24, Z+34	; 0x22
    2e70:	93 a1       	ldd	r25, Z+35	; 0x23
    2e72:	a4 a1       	ldd	r26, Z+36	; 0x24
    2e74:	b5 a1       	ldd	r27, Z+37	; 0x25
    2e76:	8d 83       	std	Y+5, r24	; 0x05
    2e78:	9e 83       	std	Y+6, r25	; 0x06
    2e7a:	af 83       	std	Y+7, r26	; 0x07
    2e7c:	b8 87       	std	Y+8, r27	; 0x08
    2e7e:	5b c0       	rjmp	.+182    	; 0x2f36 <dir_sdi+0x17c>
    2e80:	82 81       	ldd	r24, Z+2	; 0x02
    2e82:	b0 e1       	ldi	r27, 0x10	; 16
    2e84:	8b 9f       	mul	r24, r27
    2e86:	c0 01       	movw	r24, r0
    2e88:	11 24       	eor	r1, r1
    2e8a:	89 87       	std	Y+9, r24	; 0x09
    2e8c:	9a 87       	std	Y+10, r25	; 0x0a
    2e8e:	2b 85       	ldd	r18, Y+11	; 0x0b
    2e90:	3c 85       	ldd	r19, Y+12	; 0x0c
    2e92:	89 85       	ldd	r24, Y+9	; 0x09
    2e94:	9a 85       	ldd	r25, Y+10	; 0x0a
    2e96:	28 17       	cp	r18, r24
    2e98:	39 07       	cpc	r19, r25
    2e9a:	08 f4       	brcc	.+2      	; 0x2e9e <dir_sdi+0xe4>
    2e9c:	40 c0       	rjmp	.+128    	; 0x2f1e <dir_sdi+0x164>
    2e9e:	49 81       	ldd	r20, Y+1	; 0x01
    2ea0:	5a 81       	ldd	r21, Y+2	; 0x02
    2ea2:	6b 81       	ldd	r22, Y+3	; 0x03
    2ea4:	7c 81       	ldd	r23, Y+4	; 0x04
    2ea6:	f8 01       	movw	r30, r16
    2ea8:	80 81       	ld	r24, Z
    2eaa:	91 81       	ldd	r25, Z+1	; 0x01
    2eac:	50 de       	rcall	.-864    	; 0x2b4e <get_fat>
    2eae:	69 83       	std	Y+1, r22	; 0x01
    2eb0:	7a 83       	std	Y+2, r23	; 0x02
    2eb2:	8b 83       	std	Y+3, r24	; 0x03
    2eb4:	9c 83       	std	Y+4, r25	; 0x04
    2eb6:	49 81       	ldd	r20, Y+1	; 0x01
    2eb8:	5a 81       	ldd	r21, Y+2	; 0x02
    2eba:	6b 81       	ldd	r22, Y+3	; 0x03
    2ebc:	7c 81       	ldd	r23, Y+4	; 0x04
    2ebe:	4f 3f       	cpi	r20, 0xFF	; 255
    2ec0:	5f 4f       	sbci	r21, 0xFF	; 255
    2ec2:	6f 4f       	sbci	r22, 0xFF	; 255
    2ec4:	7f 4f       	sbci	r23, 0xFF	; 255
    2ec6:	09 f4       	brne	.+2      	; 0x2eca <dir_sdi+0x110>
    2ec8:	76 c0       	rjmp	.+236    	; 0x2fb6 <dir_sdi+0x1fc>
    2eca:	89 81       	ldd	r24, Y+1	; 0x01
    2ecc:	9a 81       	ldd	r25, Y+2	; 0x02
    2ece:	ab 81       	ldd	r26, Y+3	; 0x03
    2ed0:	bc 81       	ldd	r27, Y+4	; 0x04
    2ed2:	02 97       	sbiw	r24, 0x02	; 2
    2ed4:	a1 05       	cpc	r26, r1
    2ed6:	b1 05       	cpc	r27, r1
    2ed8:	08 f4       	brcc	.+2      	; 0x2edc <dir_sdi+0x122>
    2eda:	6f c0       	rjmp	.+222    	; 0x2fba <dir_sdi+0x200>
    2edc:	d8 01       	movw	r26, r16
    2ede:	ed 91       	ld	r30, X+
    2ee0:	fc 91       	ld	r31, X
    2ee2:	42 89       	ldd	r20, Z+18	; 0x12
    2ee4:	53 89       	ldd	r21, Z+19	; 0x13
    2ee6:	64 89       	ldd	r22, Z+20	; 0x14
    2ee8:	75 89       	ldd	r23, Z+21	; 0x15
    2eea:	89 81       	ldd	r24, Y+1	; 0x01
    2eec:	9a 81       	ldd	r25, Y+2	; 0x02
    2eee:	ab 81       	ldd	r26, Y+3	; 0x03
    2ef0:	bc 81       	ldd	r27, Y+4	; 0x04
    2ef2:	84 17       	cp	r24, r20
    2ef4:	95 07       	cpc	r25, r21
    2ef6:	a6 07       	cpc	r26, r22
    2ef8:	b7 07       	cpc	r27, r23
    2efa:	08 f0       	brcs	.+2      	; 0x2efe <dir_sdi+0x144>
    2efc:	60 c0       	rjmp	.+192    	; 0x2fbe <dir_sdi+0x204>
    2efe:	8b 85       	ldd	r24, Y+11	; 0x0b
    2f00:	9c 85       	ldd	r25, Y+12	; 0x0c
    2f02:	29 85       	ldd	r18, Y+9	; 0x09
    2f04:	3a 85       	ldd	r19, Y+10	; 0x0a
    2f06:	82 1b       	sub	r24, r18
    2f08:	93 0b       	sbc	r25, r19
    2f0a:	8b 87       	std	Y+11, r24	; 0x0b
    2f0c:	9c 87       	std	Y+12, r25	; 0x0c
    2f0e:	2b 85       	ldd	r18, Y+11	; 0x0b
    2f10:	3c 85       	ldd	r19, Y+12	; 0x0c
    2f12:	89 85       	ldd	r24, Y+9	; 0x09
    2f14:	9a 85       	ldd	r25, Y+10	; 0x0a
    2f16:	28 17       	cp	r18, r24
    2f18:	39 07       	cpc	r19, r25
    2f1a:	08 f0       	brcs	.+2      	; 0x2f1e <dir_sdi+0x164>
    2f1c:	c0 cf       	rjmp	.-128    	; 0x2e9e <dir_sdi+0xe4>
    2f1e:	49 81       	ldd	r20, Y+1	; 0x01
    2f20:	5a 81       	ldd	r21, Y+2	; 0x02
    2f22:	6b 81       	ldd	r22, Y+3	; 0x03
    2f24:	7c 81       	ldd	r23, Y+4	; 0x04
    2f26:	f8 01       	movw	r30, r16
    2f28:	80 81       	ld	r24, Z
    2f2a:	91 81       	ldd	r25, Z+1	; 0x01
    2f2c:	c2 dd       	rcall	.-1148   	; 0x2ab2 <clust2sect>
    2f2e:	6d 83       	std	Y+5, r22	; 0x05
    2f30:	7e 83       	std	Y+6, r23	; 0x06
    2f32:	8f 83       	std	Y+7, r24	; 0x07
    2f34:	98 87       	std	Y+8, r25	; 0x08
    2f36:	89 81       	ldd	r24, Y+1	; 0x01
    2f38:	9a 81       	ldd	r25, Y+2	; 0x02
    2f3a:	ab 81       	ldd	r26, Y+3	; 0x03
    2f3c:	bc 81       	ldd	r27, Y+4	; 0x04
    2f3e:	f8 01       	movw	r30, r16
    2f40:	82 87       	std	Z+10, r24	; 0x0a
    2f42:	93 87       	std	Z+11, r25	; 0x0b
    2f44:	a4 87       	std	Z+12, r26	; 0x0c
    2f46:	b5 87       	std	Z+13, r27	; 0x0d
    2f48:	8d 81       	ldd	r24, Y+5	; 0x05
    2f4a:	9e 81       	ldd	r25, Y+6	; 0x06
    2f4c:	af 81       	ldd	r26, Y+7	; 0x07
    2f4e:	b8 85       	ldd	r27, Y+8	; 0x08
    2f50:	89 2b       	or	r24, r25
    2f52:	8a 2b       	or	r24, r26
    2f54:	8b 2b       	or	r24, r27
    2f56:	a9 f1       	breq	.+106    	; 0x2fc2 <dir_sdi+0x208>
    2f58:	2b 85       	ldd	r18, Y+11	; 0x0b
    2f5a:	3c 85       	ldd	r19, Y+12	; 0x0c
    2f5c:	8d 81       	ldd	r24, Y+5	; 0x05
    2f5e:	9e 81       	ldd	r25, Y+6	; 0x06
    2f60:	af 81       	ldd	r26, Y+7	; 0x07
    2f62:	b8 85       	ldd	r27, Y+8	; 0x08
    2f64:	32 95       	swap	r19
    2f66:	22 95       	swap	r18
    2f68:	2f 70       	andi	r18, 0x0F	; 15
    2f6a:	23 27       	eor	r18, r19
    2f6c:	3f 70       	andi	r19, 0x0F	; 15
    2f6e:	23 27       	eor	r18, r19
    2f70:	82 0f       	add	r24, r18
    2f72:	93 1f       	adc	r25, r19
    2f74:	a1 1d       	adc	r26, r1
    2f76:	b1 1d       	adc	r27, r1
    2f78:	86 87       	std	Z+14, r24	; 0x0e
    2f7a:	97 87       	std	Z+15, r25	; 0x0f
    2f7c:	a0 8b       	std	Z+16, r26	; 0x10
    2f7e:	b1 8b       	std	Z+17, r27	; 0x11
    2f80:	8b 85       	ldd	r24, Y+11	; 0x0b
    2f82:	9c 85       	ldd	r25, Y+12	; 0x0c
    2f84:	8f 70       	andi	r24, 0x0F	; 15
    2f86:	99 27       	eor	r25, r25
    2f88:	88 0f       	add	r24, r24
    2f8a:	99 1f       	adc	r25, r25
    2f8c:	82 95       	swap	r24
    2f8e:	92 95       	swap	r25
    2f90:	90 7f       	andi	r25, 0xF0	; 240
    2f92:	98 27       	eor	r25, r24
    2f94:	80 7f       	andi	r24, 0xF0	; 240
    2f96:	98 27       	eor	r25, r24
    2f98:	8e 96       	adiw	r24, 0x2e	; 46
    2f9a:	20 81       	ld	r18, Z
    2f9c:	31 81       	ldd	r19, Z+1	; 0x01
    2f9e:	82 0f       	add	r24, r18
    2fa0:	93 1f       	adc	r25, r19
    2fa2:	82 8b       	std	Z+18, r24	; 0x12
    2fa4:	93 8b       	std	Z+19, r25	; 0x13
    2fa6:	80 e0       	ldi	r24, 0x00	; 0
    2fa8:	0d c0       	rjmp	.+26     	; 0x2fc4 <dir_sdi+0x20a>
    2faa:	82 e0       	ldi	r24, 0x02	; 2
    2fac:	0b c0       	rjmp	.+22     	; 0x2fc4 <dir_sdi+0x20a>
    2fae:	82 e0       	ldi	r24, 0x02	; 2
    2fb0:	09 c0       	rjmp	.+18     	; 0x2fc4 <dir_sdi+0x20a>
    2fb2:	82 e0       	ldi	r24, 0x02	; 2
    2fb4:	07 c0       	rjmp	.+14     	; 0x2fc4 <dir_sdi+0x20a>
    2fb6:	81 e0       	ldi	r24, 0x01	; 1
    2fb8:	05 c0       	rjmp	.+10     	; 0x2fc4 <dir_sdi+0x20a>
    2fba:	82 e0       	ldi	r24, 0x02	; 2
    2fbc:	03 c0       	rjmp	.+6      	; 0x2fc4 <dir_sdi+0x20a>
    2fbe:	82 e0       	ldi	r24, 0x02	; 2
    2fc0:	01 c0       	rjmp	.+2      	; 0x2fc4 <dir_sdi+0x20a>
    2fc2:	82 e0       	ldi	r24, 0x02	; 2
    2fc4:	2c 96       	adiw	r28, 0x0c	; 12
    2fc6:	cd bf       	out	0x3d, r28	; 61
    2fc8:	de bf       	out	0x3e, r29	; 62
    2fca:	df 91       	pop	r29
    2fcc:	cf 91       	pop	r28
    2fce:	1f 91       	pop	r17
    2fd0:	0f 91       	pop	r16
    2fd2:	08 95       	ret

00002fd4 <put_fat>:
    2fd4:	8f 92       	push	r8
    2fd6:	9f 92       	push	r9
    2fd8:	af 92       	push	r10
    2fda:	bf 92       	push	r11
    2fdc:	ef 92       	push	r14
    2fde:	ff 92       	push	r15
    2fe0:	0f 93       	push	r16
    2fe2:	1f 93       	push	r17
    2fe4:	cf 93       	push	r28
    2fe6:	df 93       	push	r29
    2fe8:	cd b7       	in	r28, 0x3d	; 61
    2fea:	de b7       	in	r29, 0x3e	; 62
    2fec:	2a 97       	sbiw	r28, 0x0a	; 10
    2fee:	cd bf       	out	0x3d, r28	; 61
    2ff0:	de bf       	out	0x3e, r29	; 62
    2ff2:	7c 01       	movw	r14, r24
    2ff4:	4b 83       	std	Y+3, r20	; 0x03
    2ff6:	5c 83       	std	Y+4, r21	; 0x04
    2ff8:	6d 83       	std	Y+5, r22	; 0x05
    2ffa:	7e 83       	std	Y+6, r23	; 0x06
    2ffc:	0f 83       	std	Y+7, r16	; 0x07
    2ffe:	18 87       	std	Y+8, r17	; 0x08
    3000:	29 87       	std	Y+9, r18	; 0x09
    3002:	3a 87       	std	Y+10, r19	; 0x0a
    3004:	4b 81       	ldd	r20, Y+3	; 0x03
    3006:	5c 81       	ldd	r21, Y+4	; 0x04
    3008:	6d 81       	ldd	r22, Y+5	; 0x05
    300a:	7e 81       	ldd	r23, Y+6	; 0x06
    300c:	42 30       	cpi	r20, 0x02	; 2
    300e:	51 05       	cpc	r21, r1
    3010:	61 05       	cpc	r22, r1
    3012:	71 05       	cpc	r23, r1
    3014:	08 f4       	brcc	.+2      	; 0x3018 <put_fat+0x44>
    3016:	46 c1       	rjmp	.+652    	; 0x32a4 <put_fat+0x2d0>
    3018:	fc 01       	movw	r30, r24
    301a:	42 89       	ldd	r20, Z+18	; 0x12
    301c:	53 89       	ldd	r21, Z+19	; 0x13
    301e:	64 89       	ldd	r22, Z+20	; 0x14
    3020:	75 89       	ldd	r23, Z+21	; 0x15
    3022:	8b 81       	ldd	r24, Y+3	; 0x03
    3024:	9c 81       	ldd	r25, Y+4	; 0x04
    3026:	ad 81       	ldd	r26, Y+5	; 0x05
    3028:	be 81       	ldd	r27, Y+6	; 0x06
    302a:	84 17       	cp	r24, r20
    302c:	95 07       	cpc	r25, r21
    302e:	a6 07       	cpc	r26, r22
    3030:	b7 07       	cpc	r27, r23
    3032:	08 f0       	brcs	.+2      	; 0x3036 <put_fat+0x62>
    3034:	39 c1       	rjmp	.+626    	; 0x32a8 <put_fat+0x2d4>
    3036:	80 81       	ld	r24, Z
    3038:	82 30       	cpi	r24, 0x02	; 2
    303a:	09 f4       	brne	.+2      	; 0x303e <put_fat+0x6a>
    303c:	8a c0       	rjmp	.+276    	; 0x3152 <put_fat+0x17e>
    303e:	83 30       	cpi	r24, 0x03	; 3
    3040:	09 f4       	brne	.+2      	; 0x3044 <put_fat+0x70>
    3042:	be c0       	rjmp	.+380    	; 0x31c0 <put_fat+0x1ec>
    3044:	81 30       	cpi	r24, 0x01	; 1
    3046:	09 f0       	breq	.+2      	; 0x304a <put_fat+0x76>
    3048:	28 c1       	rjmp	.+592    	; 0x329a <put_fat+0x2c6>
    304a:	8b 81       	ldd	r24, Y+3	; 0x03
    304c:	9c 81       	ldd	r25, Y+4	; 0x04
    304e:	ad 81       	ldd	r26, Y+5	; 0x05
    3050:	be 81       	ldd	r27, Y+6	; 0x06
    3052:	89 83       	std	Y+1, r24	; 0x01
    3054:	9a 83       	std	Y+2, r25	; 0x02
    3056:	89 81       	ldd	r24, Y+1	; 0x01
    3058:	9a 81       	ldd	r25, Y+2	; 0x02
    305a:	29 81       	ldd	r18, Y+1	; 0x01
    305c:	3a 81       	ldd	r19, Y+2	; 0x02
    305e:	96 95       	lsr	r25
    3060:	87 95       	ror	r24
    3062:	82 0f       	add	r24, r18
    3064:	93 1f       	adc	r25, r19
    3066:	89 83       	std	Y+1, r24	; 0x01
    3068:	9a 83       	std	Y+2, r25	; 0x02
    306a:	46 8d       	ldd	r20, Z+30	; 0x1e
    306c:	57 8d       	ldd	r21, Z+31	; 0x1f
    306e:	60 a1       	ldd	r22, Z+32	; 0x20
    3070:	71 a1       	ldd	r23, Z+33	; 0x21
    3072:	89 81       	ldd	r24, Y+1	; 0x01
    3074:	9a 81       	ldd	r25, Y+2	; 0x02
    3076:	89 2f       	mov	r24, r25
    3078:	99 27       	eor	r25, r25
    307a:	86 95       	lsr	r24
    307c:	48 0f       	add	r20, r24
    307e:	59 1f       	adc	r21, r25
    3080:	61 1d       	adc	r22, r1
    3082:	71 1d       	adc	r23, r1
    3084:	c7 01       	movw	r24, r14
    3086:	0e 94 17 10 	call	0x202e	; 0x202e <move_window>
    308a:	81 11       	cpse	r24, r1
    308c:	07 c1       	rjmp	.+526    	; 0x329c <put_fat+0x2c8>
    308e:	29 81       	ldd	r18, Y+1	; 0x01
    3090:	3a 81       	ldd	r19, Y+2	; 0x02
    3092:	31 70       	andi	r19, 0x01	; 1
    3094:	8b 81       	ldd	r24, Y+3	; 0x03
    3096:	9c 81       	ldd	r25, Y+4	; 0x04
    3098:	ad 81       	ldd	r26, Y+5	; 0x05
    309a:	be 81       	ldd	r27, Y+6	; 0x06
    309c:	80 ff       	sbrs	r24, 0
    309e:	0f c0       	rjmp	.+30     	; 0x30be <put_fat+0xea>
    30a0:	f7 01       	movw	r30, r14
    30a2:	e2 0f       	add	r30, r18
    30a4:	f3 1f       	adc	r31, r19
    30a6:	86 a5       	ldd	r24, Z+46	; 0x2e
    30a8:	4f 81       	ldd	r20, Y+7	; 0x07
    30aa:	58 85       	ldd	r21, Y+8	; 0x08
    30ac:	69 85       	ldd	r22, Y+9	; 0x09
    30ae:	7a 85       	ldd	r23, Y+10	; 0x0a
    30b0:	f0 e1       	ldi	r31, 0x10	; 16
    30b2:	4f 9f       	mul	r20, r31
    30b4:	a0 01       	movw	r20, r0
    30b6:	11 24       	eor	r1, r1
    30b8:	8f 70       	andi	r24, 0x0F	; 15
    30ba:	84 2b       	or	r24, r20
    30bc:	04 c0       	rjmp	.+8      	; 0x30c6 <put_fat+0xf2>
    30be:	8f 81       	ldd	r24, Y+7	; 0x07
    30c0:	98 85       	ldd	r25, Y+8	; 0x08
    30c2:	a9 85       	ldd	r26, Y+9	; 0x09
    30c4:	ba 85       	ldd	r27, Y+10	; 0x0a
    30c6:	f7 01       	movw	r30, r14
    30c8:	e2 0f       	add	r30, r18
    30ca:	f3 1f       	adc	r31, r19
    30cc:	86 a7       	std	Z+46, r24	; 0x2e
    30ce:	89 81       	ldd	r24, Y+1	; 0x01
    30d0:	9a 81       	ldd	r25, Y+2	; 0x02
    30d2:	01 96       	adiw	r24, 0x01	; 1
    30d4:	89 83       	std	Y+1, r24	; 0x01
    30d6:	9a 83       	std	Y+2, r25	; 0x02
    30d8:	81 e0       	ldi	r24, 0x01	; 1
    30da:	f7 01       	movw	r30, r14
    30dc:	84 83       	std	Z+4, r24	; 0x04
    30de:	46 8d       	ldd	r20, Z+30	; 0x1e
    30e0:	57 8d       	ldd	r21, Z+31	; 0x1f
    30e2:	60 a1       	ldd	r22, Z+32	; 0x20
    30e4:	71 a1       	ldd	r23, Z+33	; 0x21
    30e6:	89 81       	ldd	r24, Y+1	; 0x01
    30e8:	9a 81       	ldd	r25, Y+2	; 0x02
    30ea:	89 2f       	mov	r24, r25
    30ec:	99 27       	eor	r25, r25
    30ee:	86 95       	lsr	r24
    30f0:	48 0f       	add	r20, r24
    30f2:	59 1f       	adc	r21, r25
    30f4:	61 1d       	adc	r22, r1
    30f6:	71 1d       	adc	r23, r1
    30f8:	c7 01       	movw	r24, r14
    30fa:	0e 94 17 10 	call	0x202e	; 0x202e <move_window>
    30fe:	81 11       	cpse	r24, r1
    3100:	cd c0       	rjmp	.+410    	; 0x329c <put_fat+0x2c8>
    3102:	29 81       	ldd	r18, Y+1	; 0x01
    3104:	3a 81       	ldd	r19, Y+2	; 0x02
    3106:	31 70       	andi	r19, 0x01	; 1
    3108:	4b 81       	ldd	r20, Y+3	; 0x03
    310a:	5c 81       	ldd	r21, Y+4	; 0x04
    310c:	6d 81       	ldd	r22, Y+5	; 0x05
    310e:	7e 81       	ldd	r23, Y+6	; 0x06
    3110:	40 ff       	sbrs	r20, 0
    3112:	0d c0       	rjmp	.+26     	; 0x312e <put_fat+0x15a>
    3114:	4f 81       	ldd	r20, Y+7	; 0x07
    3116:	58 85       	ldd	r21, Y+8	; 0x08
    3118:	69 85       	ldd	r22, Y+9	; 0x09
    311a:	7a 85       	ldd	r23, Y+10	; 0x0a
    311c:	68 94       	set
    311e:	13 f8       	bld	r1, 3
    3120:	76 95       	lsr	r23
    3122:	67 95       	ror	r22
    3124:	57 95       	ror	r21
    3126:	47 95       	ror	r20
    3128:	16 94       	lsr	r1
    312a:	d1 f7       	brne	.-12     	; 0x3120 <put_fat+0x14c>
    312c:	0d c0       	rjmp	.+26     	; 0x3148 <put_fat+0x174>
    312e:	f7 01       	movw	r30, r14
    3130:	e2 0f       	add	r30, r18
    3132:	f3 1f       	adc	r31, r19
    3134:	e6 a5       	ldd	r30, Z+46	; 0x2e
    3136:	4f 81       	ldd	r20, Y+7	; 0x07
    3138:	58 85       	ldd	r21, Y+8	; 0x08
    313a:	69 85       	ldd	r22, Y+9	; 0x09
    313c:	7a 85       	ldd	r23, Y+10	; 0x0a
    313e:	e0 7f       	andi	r30, 0xF0	; 240
    3140:	95 2f       	mov	r25, r21
    3142:	9f 70       	andi	r25, 0x0F	; 15
    3144:	4e 2f       	mov	r20, r30
    3146:	49 2b       	or	r20, r25
    3148:	f7 01       	movw	r30, r14
    314a:	e2 0f       	add	r30, r18
    314c:	f3 1f       	adc	r31, r19
    314e:	46 a7       	std	Z+46, r20	; 0x2e
    3150:	a5 c0       	rjmp	.+330    	; 0x329c <put_fat+0x2c8>
    3152:	f7 01       	movw	r30, r14
    3154:	86 8d       	ldd	r24, Z+30	; 0x1e
    3156:	97 8d       	ldd	r25, Z+31	; 0x1f
    3158:	a0 a1       	ldd	r26, Z+32	; 0x20
    315a:	b1 a1       	ldd	r27, Z+33	; 0x21
    315c:	4b 81       	ldd	r20, Y+3	; 0x03
    315e:	5c 81       	ldd	r21, Y+4	; 0x04
    3160:	6d 81       	ldd	r22, Y+5	; 0x05
    3162:	7e 81       	ldd	r23, Y+6	; 0x06
    3164:	45 2f       	mov	r20, r21
    3166:	56 2f       	mov	r21, r22
    3168:	67 2f       	mov	r22, r23
    316a:	77 27       	eor	r23, r23
    316c:	48 0f       	add	r20, r24
    316e:	59 1f       	adc	r21, r25
    3170:	6a 1f       	adc	r22, r26
    3172:	7b 1f       	adc	r23, r27
    3174:	c7 01       	movw	r24, r14
    3176:	0e 94 17 10 	call	0x202e	; 0x202e <move_window>
    317a:	81 11       	cpse	r24, r1
    317c:	8f c0       	rjmp	.+286    	; 0x329c <put_fat+0x2c8>
    317e:	4b 81       	ldd	r20, Y+3	; 0x03
    3180:	5c 81       	ldd	r21, Y+4	; 0x04
    3182:	6d 81       	ldd	r22, Y+5	; 0x05
    3184:	7e 81       	ldd	r23, Y+6	; 0x06
    3186:	44 0f       	add	r20, r20
    3188:	55 1f       	adc	r21, r21
    318a:	66 1f       	adc	r22, r22
    318c:	77 1f       	adc	r23, r23
    318e:	4e 7f       	andi	r20, 0xFE	; 254
    3190:	51 70       	andi	r21, 0x01	; 1
    3192:	66 27       	eor	r22, r22
    3194:	77 27       	eor	r23, r23
    3196:	fa 01       	movw	r30, r20
    3198:	be 96       	adiw	r30, 0x2e	; 46
    319a:	ee 0d       	add	r30, r14
    319c:	ff 1d       	adc	r31, r15
    319e:	0f 81       	ldd	r16, Y+7	; 0x07
    31a0:	18 85       	ldd	r17, Y+8	; 0x08
    31a2:	29 85       	ldd	r18, Y+9	; 0x09
    31a4:	3a 85       	ldd	r19, Y+10	; 0x0a
    31a6:	d7 01       	movw	r26, r14
    31a8:	a4 0f       	add	r26, r20
    31aa:	b5 1f       	adc	r27, r21
    31ac:	9e 96       	adiw	r26, 0x2e	; 46
    31ae:	0c 93       	st	X, r16
    31b0:	4f 81       	ldd	r20, Y+7	; 0x07
    31b2:	58 85       	ldd	r21, Y+8	; 0x08
    31b4:	69 85       	ldd	r22, Y+9	; 0x09
    31b6:	7a 85       	ldd	r23, Y+10	; 0x0a
    31b8:	45 2f       	mov	r20, r21
    31ba:	55 27       	eor	r21, r21
    31bc:	41 83       	std	Z+1, r20	; 0x01
    31be:	6e c0       	rjmp	.+220    	; 0x329c <put_fat+0x2c8>
    31c0:	f7 01       	movw	r30, r14
    31c2:	86 8d       	ldd	r24, Z+30	; 0x1e
    31c4:	97 8d       	ldd	r25, Z+31	; 0x1f
    31c6:	a0 a1       	ldd	r26, Z+32	; 0x20
    31c8:	b1 a1       	ldd	r27, Z+33	; 0x21
    31ca:	4b 81       	ldd	r20, Y+3	; 0x03
    31cc:	5c 81       	ldd	r21, Y+4	; 0x04
    31ce:	6d 81       	ldd	r22, Y+5	; 0x05
    31d0:	7e 81       	ldd	r23, Y+6	; 0x06
    31d2:	68 94       	set
    31d4:	16 f8       	bld	r1, 6
    31d6:	76 95       	lsr	r23
    31d8:	67 95       	ror	r22
    31da:	57 95       	ror	r21
    31dc:	47 95       	ror	r20
    31de:	16 94       	lsr	r1
    31e0:	d1 f7       	brne	.-12     	; 0x31d6 <put_fat+0x202>
    31e2:	48 0f       	add	r20, r24
    31e4:	59 1f       	adc	r21, r25
    31e6:	6a 1f       	adc	r22, r26
    31e8:	7b 1f       	adc	r23, r27
    31ea:	c7 01       	movw	r24, r14
    31ec:	0e 94 17 10 	call	0x202e	; 0x202e <move_window>
    31f0:	81 11       	cpse	r24, r1
    31f2:	54 c0       	rjmp	.+168    	; 0x329c <put_fat+0x2c8>
    31f4:	4b 81       	ldd	r20, Y+3	; 0x03
    31f6:	5c 81       	ldd	r21, Y+4	; 0x04
    31f8:	6d 81       	ldd	r22, Y+5	; 0x05
    31fa:	7e 81       	ldd	r23, Y+6	; 0x06
    31fc:	44 0f       	add	r20, r20
    31fe:	55 1f       	adc	r21, r21
    3200:	66 1f       	adc	r22, r22
    3202:	77 1f       	adc	r23, r23
    3204:	44 0f       	add	r20, r20
    3206:	55 1f       	adc	r21, r21
    3208:	66 1f       	adc	r22, r22
    320a:	77 1f       	adc	r23, r23
    320c:	4c 7f       	andi	r20, 0xFC	; 252
    320e:	51 70       	andi	r21, 0x01	; 1
    3210:	66 27       	eor	r22, r22
    3212:	77 27       	eor	r23, r23
    3214:	fa 01       	movw	r30, r20
    3216:	be 96       	adiw	r30, 0x2e	; 46
    3218:	ee 0d       	add	r30, r14
    321a:	ff 1d       	adc	r31, r15
    321c:	03 81       	ldd	r16, Z+3	; 0x03
    321e:	92 81       	ldd	r25, Z+2	; 0x02
    3220:	91 81       	ldd	r25, Z+1	; 0x01
    3222:	d7 01       	movw	r26, r14
    3224:	a4 0f       	add	r26, r20
    3226:	b5 1f       	adc	r27, r21
    3228:	9e 96       	adiw	r26, 0x2e	; 46
    322a:	9c 91       	ld	r25, X
    322c:	9e 97       	sbiw	r26, 0x2e	; 46
    322e:	8f 80       	ldd	r8, Y+7	; 0x07
    3230:	98 84       	ldd	r9, Y+8	; 0x08
    3232:	a9 84       	ldd	r10, Y+9	; 0x09
    3234:	ba 84       	ldd	r11, Y+10	; 0x0a
    3236:	10 e0       	ldi	r17, 0x00	; 0
    3238:	20 e0       	ldi	r18, 0x00	; 0
    323a:	30 e0       	ldi	r19, 0x00	; 0
    323c:	30 2f       	mov	r19, r16
    323e:	22 27       	eor	r18, r18
    3240:	11 27       	eor	r17, r17
    3242:	00 27       	eor	r16, r16
    3244:	00 27       	eor	r16, r16
    3246:	11 27       	eor	r17, r17
    3248:	22 27       	eor	r18, r18
    324a:	30 7f       	andi	r19, 0xF0	; 240
    324c:	08 29       	or	r16, r8
    324e:	19 29       	or	r17, r9
    3250:	2a 29       	or	r18, r10
    3252:	3b 29       	or	r19, r11
    3254:	0f 83       	std	Y+7, r16	; 0x07
    3256:	18 87       	std	Y+8, r17	; 0x08
    3258:	29 87       	std	Y+9, r18	; 0x09
    325a:	3a 87       	std	Y+10, r19	; 0x0a
    325c:	0f 81       	ldd	r16, Y+7	; 0x07
    325e:	18 85       	ldd	r17, Y+8	; 0x08
    3260:	29 85       	ldd	r18, Y+9	; 0x09
    3262:	3a 85       	ldd	r19, Y+10	; 0x0a
    3264:	9e 96       	adiw	r26, 0x2e	; 46
    3266:	0c 93       	st	X, r16
    3268:	4f 81       	ldd	r20, Y+7	; 0x07
    326a:	58 85       	ldd	r21, Y+8	; 0x08
    326c:	69 85       	ldd	r22, Y+9	; 0x09
    326e:	7a 85       	ldd	r23, Y+10	; 0x0a
    3270:	45 2f       	mov	r20, r21
    3272:	55 27       	eor	r21, r21
    3274:	41 83       	std	Z+1, r20	; 0x01
    3276:	4f 81       	ldd	r20, Y+7	; 0x07
    3278:	58 85       	ldd	r21, Y+8	; 0x08
    327a:	69 85       	ldd	r22, Y+9	; 0x09
    327c:	7a 85       	ldd	r23, Y+10	; 0x0a
    327e:	ab 01       	movw	r20, r22
    3280:	66 27       	eor	r22, r22
    3282:	77 27       	eor	r23, r23
    3284:	42 83       	std	Z+2, r20	; 0x02
    3286:	4f 81       	ldd	r20, Y+7	; 0x07
    3288:	58 85       	ldd	r21, Y+8	; 0x08
    328a:	69 85       	ldd	r22, Y+9	; 0x09
    328c:	7a 85       	ldd	r23, Y+10	; 0x0a
    328e:	47 2f       	mov	r20, r23
    3290:	55 27       	eor	r21, r21
    3292:	66 27       	eor	r22, r22
    3294:	77 27       	eor	r23, r23
    3296:	43 83       	std	Z+3, r20	; 0x03
    3298:	01 c0       	rjmp	.+2      	; 0x329c <put_fat+0x2c8>
    329a:	82 e0       	ldi	r24, 0x02	; 2
    329c:	91 e0       	ldi	r25, 0x01	; 1
    329e:	f7 01       	movw	r30, r14
    32a0:	94 83       	std	Z+4, r25	; 0x04
    32a2:	03 c0       	rjmp	.+6      	; 0x32aa <put_fat+0x2d6>
    32a4:	82 e0       	ldi	r24, 0x02	; 2
    32a6:	01 c0       	rjmp	.+2      	; 0x32aa <put_fat+0x2d6>
    32a8:	82 e0       	ldi	r24, 0x02	; 2
    32aa:	2a 96       	adiw	r28, 0x0a	; 10
    32ac:	cd bf       	out	0x3d, r28	; 61
    32ae:	de bf       	out	0x3e, r29	; 62
    32b0:	df 91       	pop	r29
    32b2:	cf 91       	pop	r28
    32b4:	1f 91       	pop	r17
    32b6:	0f 91       	pop	r16
    32b8:	ff 90       	pop	r15
    32ba:	ef 90       	pop	r14
    32bc:	bf 90       	pop	r11
    32be:	af 90       	pop	r10
    32c0:	9f 90       	pop	r9
    32c2:	8f 90       	pop	r8
    32c4:	08 95       	ret

000032c6 <create_chain>:
    32c6:	8f 92       	push	r8
    32c8:	9f 92       	push	r9
    32ca:	af 92       	push	r10
    32cc:	bf 92       	push	r11
    32ce:	ef 92       	push	r14
    32d0:	ff 92       	push	r15
    32d2:	0f 93       	push	r16
    32d4:	1f 93       	push	r17
    32d6:	cf 93       	push	r28
    32d8:	df 93       	push	r29
    32da:	cd b7       	in	r28, 0x3d	; 61
    32dc:	de b7       	in	r29, 0x3e	; 62
    32de:	60 97       	sbiw	r28, 0x10	; 16
    32e0:	cd bf       	out	0x3d, r28	; 61
    32e2:	de bf       	out	0x3e, r29	; 62
    32e4:	7c 01       	movw	r14, r24
    32e6:	4d 87       	std	Y+13, r20	; 0x0d
    32e8:	5e 87       	std	Y+14, r21	; 0x0e
    32ea:	6f 87       	std	Y+15, r22	; 0x0f
    32ec:	78 8b       	std	Y+16, r23	; 0x10
    32ee:	8d 85       	ldd	r24, Y+13	; 0x0d
    32f0:	9e 85       	ldd	r25, Y+14	; 0x0e
    32f2:	af 85       	ldd	r26, Y+15	; 0x0f
    32f4:	b8 89       	ldd	r27, Y+16	; 0x10
    32f6:	89 2b       	or	r24, r25
    32f8:	8a 2b       	or	r24, r26
    32fa:	8b 2b       	or	r24, r27
    32fc:	41 f5       	brne	.+80     	; 0x334e <create_chain+0x88>
    32fe:	f7 01       	movw	r30, r14
    3300:	82 85       	ldd	r24, Z+10	; 0x0a
    3302:	93 85       	ldd	r25, Z+11	; 0x0b
    3304:	a4 85       	ldd	r26, Z+12	; 0x0c
    3306:	b5 85       	ldd	r27, Z+13	; 0x0d
    3308:	89 87       	std	Y+9, r24	; 0x09
    330a:	9a 87       	std	Y+10, r25	; 0x0a
    330c:	ab 87       	std	Y+11, r26	; 0x0b
    330e:	bc 87       	std	Y+12, r27	; 0x0c
    3310:	89 85       	ldd	r24, Y+9	; 0x09
    3312:	9a 85       	ldd	r25, Y+10	; 0x0a
    3314:	ab 85       	ldd	r26, Y+11	; 0x0b
    3316:	bc 85       	ldd	r27, Y+12	; 0x0c
    3318:	89 2b       	or	r24, r25
    331a:	8a 2b       	or	r24, r26
    331c:	8b 2b       	or	r24, r27
    331e:	71 f0       	breq	.+28     	; 0x333c <create_chain+0x76>
    3320:	42 89       	ldd	r20, Z+18	; 0x12
    3322:	53 89       	ldd	r21, Z+19	; 0x13
    3324:	64 89       	ldd	r22, Z+20	; 0x14
    3326:	75 89       	ldd	r23, Z+21	; 0x15
    3328:	89 85       	ldd	r24, Y+9	; 0x09
    332a:	9a 85       	ldd	r25, Y+10	; 0x0a
    332c:	ab 85       	ldd	r26, Y+11	; 0x0b
    332e:	bc 85       	ldd	r27, Y+12	; 0x0c
    3330:	84 17       	cp	r24, r20
    3332:	95 07       	cpc	r25, r21
    3334:	a6 07       	cpc	r26, r22
    3336:	b7 07       	cpc	r27, r23
    3338:	08 f4       	brcc	.+2      	; 0x333c <create_chain+0x76>
    333a:	45 c0       	rjmp	.+138    	; 0x33c6 <create_chain+0x100>
    333c:	81 e0       	ldi	r24, 0x01	; 1
    333e:	90 e0       	ldi	r25, 0x00	; 0
    3340:	a0 e0       	ldi	r26, 0x00	; 0
    3342:	b0 e0       	ldi	r27, 0x00	; 0
    3344:	89 87       	std	Y+9, r24	; 0x09
    3346:	9a 87       	std	Y+10, r25	; 0x0a
    3348:	ab 87       	std	Y+11, r26	; 0x0b
    334a:	bc 87       	std	Y+12, r27	; 0x0c
    334c:	3c c0       	rjmp	.+120    	; 0x33c6 <create_chain+0x100>
    334e:	4d 85       	ldd	r20, Y+13	; 0x0d
    3350:	5e 85       	ldd	r21, Y+14	; 0x0e
    3352:	6f 85       	ldd	r22, Y+15	; 0x0f
    3354:	78 89       	ldd	r23, Y+16	; 0x10
    3356:	c7 01       	movw	r24, r14
    3358:	fa db       	rcall	.-2060   	; 0x2b4e <get_fat>
    335a:	69 83       	std	Y+1, r22	; 0x01
    335c:	7a 83       	std	Y+2, r23	; 0x02
    335e:	8b 83       	std	Y+3, r24	; 0x03
    3360:	9c 83       	std	Y+4, r25	; 0x04
    3362:	89 81       	ldd	r24, Y+1	; 0x01
    3364:	9a 81       	ldd	r25, Y+2	; 0x02
    3366:	ab 81       	ldd	r26, Y+3	; 0x03
    3368:	bc 81       	ldd	r27, Y+4	; 0x04
    336a:	02 97       	sbiw	r24, 0x02	; 2
    336c:	a1 05       	cpc	r26, r1
    336e:	b1 05       	cpc	r27, r1
    3370:	08 f4       	brcc	.+2      	; 0x3374 <create_chain+0xae>
    3372:	ed c0       	rjmp	.+474    	; 0x354e <create_chain+0x288>
    3374:	89 81       	ldd	r24, Y+1	; 0x01
    3376:	9a 81       	ldd	r25, Y+2	; 0x02
    3378:	ab 81       	ldd	r26, Y+3	; 0x03
    337a:	bc 81       	ldd	r27, Y+4	; 0x04
    337c:	8f 3f       	cpi	r24, 0xFF	; 255
    337e:	9f 4f       	sbci	r25, 0xFF	; 255
    3380:	af 4f       	sbci	r26, 0xFF	; 255
    3382:	bf 4f       	sbci	r27, 0xFF	; 255
    3384:	29 f4       	brne	.+10     	; 0x3390 <create_chain+0xca>
    3386:	69 81       	ldd	r22, Y+1	; 0x01
    3388:	7a 81       	ldd	r23, Y+2	; 0x02
    338a:	8b 81       	ldd	r24, Y+3	; 0x03
    338c:	9c 81       	ldd	r25, Y+4	; 0x04
    338e:	eb c0       	rjmp	.+470    	; 0x3566 <create_chain+0x2a0>
    3390:	f7 01       	movw	r30, r14
    3392:	42 89       	ldd	r20, Z+18	; 0x12
    3394:	53 89       	ldd	r21, Z+19	; 0x13
    3396:	64 89       	ldd	r22, Z+20	; 0x14
    3398:	75 89       	ldd	r23, Z+21	; 0x15
    339a:	89 81       	ldd	r24, Y+1	; 0x01
    339c:	9a 81       	ldd	r25, Y+2	; 0x02
    339e:	ab 81       	ldd	r26, Y+3	; 0x03
    33a0:	bc 81       	ldd	r27, Y+4	; 0x04
    33a2:	84 17       	cp	r24, r20
    33a4:	95 07       	cpc	r25, r21
    33a6:	a6 07       	cpc	r26, r22
    33a8:	b7 07       	cpc	r27, r23
    33aa:	28 f4       	brcc	.+10     	; 0x33b6 <create_chain+0xf0>
    33ac:	69 81       	ldd	r22, Y+1	; 0x01
    33ae:	7a 81       	ldd	r23, Y+2	; 0x02
    33b0:	8b 81       	ldd	r24, Y+3	; 0x03
    33b2:	9c 81       	ldd	r25, Y+4	; 0x04
    33b4:	d8 c0       	rjmp	.+432    	; 0x3566 <create_chain+0x2a0>
    33b6:	8d 85       	ldd	r24, Y+13	; 0x0d
    33b8:	9e 85       	ldd	r25, Y+14	; 0x0e
    33ba:	af 85       	ldd	r26, Y+15	; 0x0f
    33bc:	b8 89       	ldd	r27, Y+16	; 0x10
    33be:	89 87       	std	Y+9, r24	; 0x09
    33c0:	9a 87       	std	Y+10, r25	; 0x0a
    33c2:	ab 87       	std	Y+11, r26	; 0x0b
    33c4:	bc 87       	std	Y+12, r27	; 0x0c
    33c6:	89 85       	ldd	r24, Y+9	; 0x09
    33c8:	9a 85       	ldd	r25, Y+10	; 0x0a
    33ca:	ab 85       	ldd	r26, Y+11	; 0x0b
    33cc:	bc 85       	ldd	r27, Y+12	; 0x0c
    33ce:	8d 83       	std	Y+5, r24	; 0x05
    33d0:	9e 83       	std	Y+6, r25	; 0x06
    33d2:	af 83       	std	Y+7, r26	; 0x07
    33d4:	b8 87       	std	Y+8, r27	; 0x08
    33d6:	81 2c       	mov	r8, r1
    33d8:	91 2c       	mov	r9, r1
    33da:	54 01       	movw	r10, r8
    33dc:	68 94       	set
    33de:	81 f8       	bld	r8, 1
    33e0:	8d 81       	ldd	r24, Y+5	; 0x05
    33e2:	9e 81       	ldd	r25, Y+6	; 0x06
    33e4:	af 81       	ldd	r26, Y+7	; 0x07
    33e6:	b8 85       	ldd	r27, Y+8	; 0x08
    33e8:	01 96       	adiw	r24, 0x01	; 1
    33ea:	a1 1d       	adc	r26, r1
    33ec:	b1 1d       	adc	r27, r1
    33ee:	8d 83       	std	Y+5, r24	; 0x05
    33f0:	9e 83       	std	Y+6, r25	; 0x06
    33f2:	af 83       	std	Y+7, r26	; 0x07
    33f4:	b8 87       	std	Y+8, r27	; 0x08
    33f6:	f7 01       	movw	r30, r14
    33f8:	82 89       	ldd	r24, Z+18	; 0x12
    33fa:	93 89       	ldd	r25, Z+19	; 0x13
    33fc:	a4 89       	ldd	r26, Z+20	; 0x14
    33fe:	b5 89       	ldd	r27, Z+21	; 0x15
    3400:	4d 81       	ldd	r20, Y+5	; 0x05
    3402:	5e 81       	ldd	r21, Y+6	; 0x06
    3404:	6f 81       	ldd	r22, Y+7	; 0x07
    3406:	78 85       	ldd	r23, Y+8	; 0x08
    3408:	48 17       	cp	r20, r24
    340a:	59 07       	cpc	r21, r25
    340c:	6a 07       	cpc	r22, r26
    340e:	7b 07       	cpc	r23, r27
    3410:	90 f0       	brcs	.+36     	; 0x3436 <create_chain+0x170>
    3412:	8d 82       	std	Y+5, r8	; 0x05
    3414:	9e 82       	std	Y+6, r9	; 0x06
    3416:	af 82       	std	Y+7, r10	; 0x07
    3418:	b8 86       	std	Y+8, r11	; 0x08
    341a:	4d 81       	ldd	r20, Y+5	; 0x05
    341c:	5e 81       	ldd	r21, Y+6	; 0x06
    341e:	6f 81       	ldd	r22, Y+7	; 0x07
    3420:	78 85       	ldd	r23, Y+8	; 0x08
    3422:	89 85       	ldd	r24, Y+9	; 0x09
    3424:	9a 85       	ldd	r25, Y+10	; 0x0a
    3426:	ab 85       	ldd	r26, Y+11	; 0x0b
    3428:	bc 85       	ldd	r27, Y+12	; 0x0c
    342a:	84 17       	cp	r24, r20
    342c:	95 07       	cpc	r25, r21
    342e:	a6 07       	cpc	r26, r22
    3430:	b7 07       	cpc	r27, r23
    3432:	08 f4       	brcc	.+2      	; 0x3436 <create_chain+0x170>
    3434:	91 c0       	rjmp	.+290    	; 0x3558 <create_chain+0x292>
    3436:	4d 81       	ldd	r20, Y+5	; 0x05
    3438:	5e 81       	ldd	r21, Y+6	; 0x06
    343a:	6f 81       	ldd	r22, Y+7	; 0x07
    343c:	78 85       	ldd	r23, Y+8	; 0x08
    343e:	c7 01       	movw	r24, r14
    3440:	86 db       	rcall	.-2292   	; 0x2b4e <get_fat>
    3442:	69 83       	std	Y+1, r22	; 0x01
    3444:	7a 83       	std	Y+2, r23	; 0x02
    3446:	8b 83       	std	Y+3, r24	; 0x03
    3448:	9c 83       	std	Y+4, r25	; 0x04
    344a:	89 81       	ldd	r24, Y+1	; 0x01
    344c:	9a 81       	ldd	r25, Y+2	; 0x02
    344e:	ab 81       	ldd	r26, Y+3	; 0x03
    3450:	bc 81       	ldd	r27, Y+4	; 0x04
    3452:	89 2b       	or	r24, r25
    3454:	8a 2b       	or	r24, r26
    3456:	8b 2b       	or	r24, r27
    3458:	29 f1       	breq	.+74     	; 0x34a4 <create_chain+0x1de>
    345a:	89 81       	ldd	r24, Y+1	; 0x01
    345c:	9a 81       	ldd	r25, Y+2	; 0x02
    345e:	ab 81       	ldd	r26, Y+3	; 0x03
    3460:	bc 81       	ldd	r27, Y+4	; 0x04
    3462:	8f 3f       	cpi	r24, 0xFF	; 255
    3464:	9f 4f       	sbci	r25, 0xFF	; 255
    3466:	af 4f       	sbci	r26, 0xFF	; 255
    3468:	bf 4f       	sbci	r27, 0xFF	; 255
    346a:	41 f0       	breq	.+16     	; 0x347c <create_chain+0x1b6>
    346c:	89 81       	ldd	r24, Y+1	; 0x01
    346e:	9a 81       	ldd	r25, Y+2	; 0x02
    3470:	ab 81       	ldd	r26, Y+3	; 0x03
    3472:	bc 81       	ldd	r27, Y+4	; 0x04
    3474:	01 97       	sbiw	r24, 0x01	; 1
    3476:	a1 05       	cpc	r26, r1
    3478:	b1 05       	cpc	r27, r1
    347a:	29 f4       	brne	.+10     	; 0x3486 <create_chain+0x1c0>
    347c:	69 81       	ldd	r22, Y+1	; 0x01
    347e:	7a 81       	ldd	r23, Y+2	; 0x02
    3480:	8b 81       	ldd	r24, Y+3	; 0x03
    3482:	9c 81       	ldd	r25, Y+4	; 0x04
    3484:	70 c0       	rjmp	.+224    	; 0x3566 <create_chain+0x2a0>
    3486:	4d 81       	ldd	r20, Y+5	; 0x05
    3488:	5e 81       	ldd	r21, Y+6	; 0x06
    348a:	6f 81       	ldd	r22, Y+7	; 0x07
    348c:	78 85       	ldd	r23, Y+8	; 0x08
    348e:	89 85       	ldd	r24, Y+9	; 0x09
    3490:	9a 85       	ldd	r25, Y+10	; 0x0a
    3492:	ab 85       	ldd	r26, Y+11	; 0x0b
    3494:	bc 85       	ldd	r27, Y+12	; 0x0c
    3496:	48 17       	cp	r20, r24
    3498:	59 07       	cpc	r21, r25
    349a:	6a 07       	cpc	r22, r26
    349c:	7b 07       	cpc	r23, r27
    349e:	09 f0       	breq	.+2      	; 0x34a2 <create_chain+0x1dc>
    34a0:	9f cf       	rjmp	.-194    	; 0x33e0 <create_chain+0x11a>
    34a2:	5e c0       	rjmp	.+188    	; 0x3560 <create_chain+0x29a>
    34a4:	4d 81       	ldd	r20, Y+5	; 0x05
    34a6:	5e 81       	ldd	r21, Y+6	; 0x06
    34a8:	6f 81       	ldd	r22, Y+7	; 0x07
    34aa:	78 85       	ldd	r23, Y+8	; 0x08
    34ac:	0f ef       	ldi	r16, 0xFF	; 255
    34ae:	1f ef       	ldi	r17, 0xFF	; 255
    34b0:	2f ef       	ldi	r18, 0xFF	; 255
    34b2:	3f e0       	ldi	r19, 0x0F	; 15
    34b4:	c7 01       	movw	r24, r14
    34b6:	8e dd       	rcall	.-1252   	; 0x2fd4 <put_fat>
    34b8:	81 11       	cpse	r24, r1
    34ba:	36 c0       	rjmp	.+108    	; 0x3528 <create_chain+0x262>
    34bc:	8d 85       	ldd	r24, Y+13	; 0x0d
    34be:	9e 85       	ldd	r25, Y+14	; 0x0e
    34c0:	af 85       	ldd	r26, Y+15	; 0x0f
    34c2:	b8 89       	ldd	r27, Y+16	; 0x10
    34c4:	89 2b       	or	r24, r25
    34c6:	8a 2b       	or	r24, r26
    34c8:	8b 2b       	or	r24, r27
    34ca:	61 f0       	breq	.+24     	; 0x34e4 <create_chain+0x21e>
    34cc:	0d 81       	ldd	r16, Y+5	; 0x05
    34ce:	1e 81       	ldd	r17, Y+6	; 0x06
    34d0:	2f 81       	ldd	r18, Y+7	; 0x07
    34d2:	38 85       	ldd	r19, Y+8	; 0x08
    34d4:	4d 85       	ldd	r20, Y+13	; 0x0d
    34d6:	5e 85       	ldd	r21, Y+14	; 0x0e
    34d8:	6f 85       	ldd	r22, Y+15	; 0x0f
    34da:	78 89       	ldd	r23, Y+16	; 0x10
    34dc:	c7 01       	movw	r24, r14
    34de:	7a dd       	rcall	.-1292   	; 0x2fd4 <put_fat>
    34e0:	81 11       	cpse	r24, r1
    34e2:	22 c0       	rjmp	.+68     	; 0x3528 <create_chain+0x262>
    34e4:	8d 81       	ldd	r24, Y+5	; 0x05
    34e6:	9e 81       	ldd	r25, Y+6	; 0x06
    34e8:	af 81       	ldd	r26, Y+7	; 0x07
    34ea:	b8 85       	ldd	r27, Y+8	; 0x08
    34ec:	f7 01       	movw	r30, r14
    34ee:	82 87       	std	Z+10, r24	; 0x0a
    34f0:	93 87       	std	Z+11, r25	; 0x0b
    34f2:	a4 87       	std	Z+12, r26	; 0x0c
    34f4:	b5 87       	std	Z+13, r27	; 0x0d
    34f6:	86 85       	ldd	r24, Z+14	; 0x0e
    34f8:	97 85       	ldd	r25, Z+15	; 0x0f
    34fa:	a0 89       	ldd	r26, Z+16	; 0x10
    34fc:	b1 89       	ldd	r27, Z+17	; 0x11
    34fe:	8f 3f       	cpi	r24, 0xFF	; 255
    3500:	9f 4f       	sbci	r25, 0xFF	; 255
    3502:	af 4f       	sbci	r26, 0xFF	; 255
    3504:	bf 4f       	sbci	r27, 0xFF	; 255
    3506:	f1 f0       	breq	.+60     	; 0x3544 <create_chain+0x27e>
    3508:	f7 01       	movw	r30, r14
    350a:	86 85       	ldd	r24, Z+14	; 0x0e
    350c:	97 85       	ldd	r25, Z+15	; 0x0f
    350e:	a0 89       	ldd	r26, Z+16	; 0x10
    3510:	b1 89       	ldd	r27, Z+17	; 0x11
    3512:	01 97       	sbiw	r24, 0x01	; 1
    3514:	a1 09       	sbc	r26, r1
    3516:	b1 09       	sbc	r27, r1
    3518:	86 87       	std	Z+14, r24	; 0x0e
    351a:	97 87       	std	Z+15, r25	; 0x0f
    351c:	a0 8b       	std	Z+16, r26	; 0x10
    351e:	b1 8b       	std	Z+17, r27	; 0x11
    3520:	85 81       	ldd	r24, Z+5	; 0x05
    3522:	81 60       	ori	r24, 0x01	; 1
    3524:	85 83       	std	Z+5, r24	; 0x05
    3526:	0e c0       	rjmp	.+28     	; 0x3544 <create_chain+0x27e>
    3528:	81 30       	cpi	r24, 0x01	; 1
    352a:	21 f4       	brne	.+8      	; 0x3534 <create_chain+0x26e>
    352c:	8f ef       	ldi	r24, 0xFF	; 255
    352e:	9f ef       	ldi	r25, 0xFF	; 255
    3530:	dc 01       	movw	r26, r24
    3532:	04 c0       	rjmp	.+8      	; 0x353c <create_chain+0x276>
    3534:	81 e0       	ldi	r24, 0x01	; 1
    3536:	90 e0       	ldi	r25, 0x00	; 0
    3538:	a0 e0       	ldi	r26, 0x00	; 0
    353a:	b0 e0       	ldi	r27, 0x00	; 0
    353c:	8d 83       	std	Y+5, r24	; 0x05
    353e:	9e 83       	std	Y+6, r25	; 0x06
    3540:	af 83       	std	Y+7, r26	; 0x07
    3542:	b8 87       	std	Y+8, r27	; 0x08
    3544:	6d 81       	ldd	r22, Y+5	; 0x05
    3546:	7e 81       	ldd	r23, Y+6	; 0x06
    3548:	8f 81       	ldd	r24, Y+7	; 0x07
    354a:	98 85       	ldd	r25, Y+8	; 0x08
    354c:	0c c0       	rjmp	.+24     	; 0x3566 <create_chain+0x2a0>
    354e:	61 e0       	ldi	r22, 0x01	; 1
    3550:	70 e0       	ldi	r23, 0x00	; 0
    3552:	80 e0       	ldi	r24, 0x00	; 0
    3554:	90 e0       	ldi	r25, 0x00	; 0
    3556:	07 c0       	rjmp	.+14     	; 0x3566 <create_chain+0x2a0>
    3558:	60 e0       	ldi	r22, 0x00	; 0
    355a:	70 e0       	ldi	r23, 0x00	; 0
    355c:	cb 01       	movw	r24, r22
    355e:	03 c0       	rjmp	.+6      	; 0x3566 <create_chain+0x2a0>
    3560:	60 e0       	ldi	r22, 0x00	; 0
    3562:	70 e0       	ldi	r23, 0x00	; 0
    3564:	cb 01       	movw	r24, r22
    3566:	60 96       	adiw	r28, 0x10	; 16
    3568:	cd bf       	out	0x3d, r28	; 61
    356a:	de bf       	out	0x3e, r29	; 62
    356c:	df 91       	pop	r29
    356e:	cf 91       	pop	r28
    3570:	1f 91       	pop	r17
    3572:	0f 91       	pop	r16
    3574:	ff 90       	pop	r15
    3576:	ef 90       	pop	r14
    3578:	bf 90       	pop	r11
    357a:	af 90       	pop	r10
    357c:	9f 90       	pop	r9
    357e:	8f 90       	pop	r8
    3580:	08 95       	ret

00003582 <dir_next>:
    3582:	ef 92       	push	r14
    3584:	ff 92       	push	r15
    3586:	0f 93       	push	r16
    3588:	1f 93       	push	r17
    358a:	cf 93       	push	r28
    358c:	df 93       	push	r29
    358e:	cd b7       	in	r28, 0x3d	; 61
    3590:	de b7       	in	r29, 0x3e	; 62
    3592:	28 97       	sbiw	r28, 0x08	; 8
    3594:	cd bf       	out	0x3d, r28	; 61
    3596:	de bf       	out	0x3e, r29	; 62
    3598:	8c 01       	movw	r16, r24
    359a:	7b 01       	movw	r14, r22
    359c:	dc 01       	movw	r26, r24
    359e:	14 96       	adiw	r26, 0x04	; 4
    35a0:	8d 91       	ld	r24, X+
    35a2:	9c 91       	ld	r25, X
    35a4:	15 97       	sbiw	r26, 0x05	; 5
    35a6:	01 96       	adiw	r24, 0x01	; 1
    35a8:	8d 83       	std	Y+5, r24	; 0x05
    35aa:	9e 83       	std	Y+6, r25	; 0x06
    35ac:	8d 81       	ldd	r24, Y+5	; 0x05
    35ae:	9e 81       	ldd	r25, Y+6	; 0x06
    35b0:	89 2b       	or	r24, r25
    35b2:	09 f4       	brne	.+2      	; 0x35b6 <dir_next+0x34>
    35b4:	2c c1       	rjmp	.+600    	; 0x380e <dir_next+0x28c>
    35b6:	1e 96       	adiw	r26, 0x0e	; 14
    35b8:	4d 91       	ld	r20, X+
    35ba:	5d 91       	ld	r21, X+
    35bc:	6d 91       	ld	r22, X+
    35be:	7c 91       	ld	r23, X
    35c0:	51 97       	sbiw	r26, 0x11	; 17
    35c2:	45 2b       	or	r20, r21
    35c4:	46 2b       	or	r20, r22
    35c6:	47 2b       	or	r20, r23
    35c8:	09 f4       	brne	.+2      	; 0x35cc <dir_next+0x4a>
    35ca:	23 c1       	rjmp	.+582    	; 0x3812 <dir_next+0x290>
    35cc:	8d 81       	ldd	r24, Y+5	; 0x05
    35ce:	9e 81       	ldd	r25, Y+6	; 0x06
    35d0:	8f 70       	andi	r24, 0x0F	; 15
    35d2:	99 27       	eor	r25, r25
    35d4:	89 2b       	or	r24, r25
    35d6:	09 f0       	breq	.+2      	; 0x35da <dir_next+0x58>
    35d8:	00 c1       	rjmp	.+512    	; 0x37da <dir_next+0x258>
    35da:	1e 96       	adiw	r26, 0x0e	; 14
    35dc:	8d 91       	ld	r24, X+
    35de:	9d 91       	ld	r25, X+
    35e0:	0d 90       	ld	r0, X+
    35e2:	bc 91       	ld	r27, X
    35e4:	a0 2d       	mov	r26, r0
    35e6:	01 96       	adiw	r24, 0x01	; 1
    35e8:	a1 1d       	adc	r26, r1
    35ea:	b1 1d       	adc	r27, r1
    35ec:	f8 01       	movw	r30, r16
    35ee:	86 87       	std	Z+14, r24	; 0x0e
    35f0:	97 87       	std	Z+15, r25	; 0x0f
    35f2:	a0 8b       	std	Z+16, r26	; 0x10
    35f4:	b1 8b       	std	Z+17, r27	; 0x11
    35f6:	82 85       	ldd	r24, Z+10	; 0x0a
    35f8:	93 85       	ldd	r25, Z+11	; 0x0b
    35fa:	a4 85       	ldd	r26, Z+12	; 0x0c
    35fc:	b5 85       	ldd	r27, Z+13	; 0x0d
    35fe:	89 2b       	or	r24, r25
    3600:	8a 2b       	or	r24, r26
    3602:	8b 2b       	or	r24, r27
    3604:	61 f4       	brne	.+24     	; 0x361e <dir_next+0x9c>
    3606:	01 90       	ld	r0, Z+
    3608:	f0 81       	ld	r31, Z
    360a:	e0 2d       	mov	r30, r0
    360c:	20 85       	ldd	r18, Z+8	; 0x08
    360e:	31 85       	ldd	r19, Z+9	; 0x09
    3610:	8d 81       	ldd	r24, Y+5	; 0x05
    3612:	9e 81       	ldd	r25, Y+6	; 0x06
    3614:	82 17       	cp	r24, r18
    3616:	93 07       	cpc	r25, r19
    3618:	08 f0       	brcs	.+2      	; 0x361c <dir_next+0x9a>
    361a:	fd c0       	rjmp	.+506    	; 0x3816 <dir_next+0x294>
    361c:	de c0       	rjmp	.+444    	; 0x37da <dir_next+0x258>
    361e:	2d 81       	ldd	r18, Y+5	; 0x05
    3620:	3e 81       	ldd	r19, Y+6	; 0x06
    3622:	d8 01       	movw	r26, r16
    3624:	01 90       	ld	r0, Z+
    3626:	f0 81       	ld	r31, Z
    3628:	e0 2d       	mov	r30, r0
    362a:	82 81       	ldd	r24, Z+2	; 0x02
    362c:	90 e0       	ldi	r25, 0x00	; 0
    362e:	01 97       	sbiw	r24, 0x01	; 1
    3630:	32 95       	swap	r19
    3632:	22 95       	swap	r18
    3634:	2f 70       	andi	r18, 0x0F	; 15
    3636:	23 27       	eor	r18, r19
    3638:	3f 70       	andi	r19, 0x0F	; 15
    363a:	23 27       	eor	r18, r19
    363c:	82 23       	and	r24, r18
    363e:	93 23       	and	r25, r19
    3640:	89 2b       	or	r24, r25
    3642:	09 f0       	breq	.+2      	; 0x3646 <dir_next+0xc4>
    3644:	ca c0       	rjmp	.+404    	; 0x37da <dir_next+0x258>
    3646:	1a 96       	adiw	r26, 0x0a	; 10
    3648:	4d 91       	ld	r20, X+
    364a:	5d 91       	ld	r21, X+
    364c:	6d 91       	ld	r22, X+
    364e:	7c 91       	ld	r23, X
    3650:	1d 97       	sbiw	r26, 0x0d	; 13
    3652:	cf 01       	movw	r24, r30
    3654:	7c da       	rcall	.-2824   	; 0x2b4e <get_fat>
    3656:	69 83       	std	Y+1, r22	; 0x01
    3658:	7a 83       	std	Y+2, r23	; 0x02
    365a:	8b 83       	std	Y+3, r24	; 0x03
    365c:	9c 83       	std	Y+4, r25	; 0x04
    365e:	89 81       	ldd	r24, Y+1	; 0x01
    3660:	9a 81       	ldd	r25, Y+2	; 0x02
    3662:	ab 81       	ldd	r26, Y+3	; 0x03
    3664:	bc 81       	ldd	r27, Y+4	; 0x04
    3666:	02 97       	sbiw	r24, 0x02	; 2
    3668:	a1 05       	cpc	r26, r1
    366a:	b1 05       	cpc	r27, r1
    366c:	08 f4       	brcc	.+2      	; 0x3670 <dir_next+0xee>
    366e:	d5 c0       	rjmp	.+426    	; 0x381a <dir_next+0x298>
    3670:	89 81       	ldd	r24, Y+1	; 0x01
    3672:	9a 81       	ldd	r25, Y+2	; 0x02
    3674:	ab 81       	ldd	r26, Y+3	; 0x03
    3676:	bc 81       	ldd	r27, Y+4	; 0x04
    3678:	8f 3f       	cpi	r24, 0xFF	; 255
    367a:	9f 4f       	sbci	r25, 0xFF	; 255
    367c:	af 4f       	sbci	r26, 0xFF	; 255
    367e:	bf 4f       	sbci	r27, 0xFF	; 255
    3680:	09 f4       	brne	.+2      	; 0x3684 <dir_next+0x102>
    3682:	cd c0       	rjmp	.+410    	; 0x381e <dir_next+0x29c>
    3684:	d8 01       	movw	r26, r16
    3686:	ed 91       	ld	r30, X+
    3688:	fc 91       	ld	r31, X
    368a:	82 89       	ldd	r24, Z+18	; 0x12
    368c:	93 89       	ldd	r25, Z+19	; 0x13
    368e:	a4 89       	ldd	r26, Z+20	; 0x14
    3690:	b5 89       	ldd	r27, Z+21	; 0x15
    3692:	49 81       	ldd	r20, Y+1	; 0x01
    3694:	5a 81       	ldd	r21, Y+2	; 0x02
    3696:	6b 81       	ldd	r22, Y+3	; 0x03
    3698:	7c 81       	ldd	r23, Y+4	; 0x04
    369a:	48 17       	cp	r20, r24
    369c:	59 07       	cpc	r21, r25
    369e:	6a 07       	cpc	r22, r26
    36a0:	7b 07       	cpc	r23, r27
    36a2:	08 f4       	brcc	.+2      	; 0x36a6 <dir_next+0x124>
    36a4:	83 c0       	rjmp	.+262    	; 0x37ac <dir_next+0x22a>
    36a6:	ef 28       	or	r14, r15
    36a8:	09 f4       	brne	.+2      	; 0x36ac <dir_next+0x12a>
    36aa:	bb c0       	rjmp	.+374    	; 0x3822 <dir_next+0x2a0>
    36ac:	d8 01       	movw	r26, r16
    36ae:	1a 96       	adiw	r26, 0x0a	; 10
    36b0:	4d 91       	ld	r20, X+
    36b2:	5d 91       	ld	r21, X+
    36b4:	6d 91       	ld	r22, X+
    36b6:	7c 91       	ld	r23, X
    36b8:	1d 97       	sbiw	r26, 0x0d	; 13
    36ba:	cf 01       	movw	r24, r30
    36bc:	04 de       	rcall	.-1016   	; 0x32c6 <create_chain>
    36be:	69 83       	std	Y+1, r22	; 0x01
    36c0:	7a 83       	std	Y+2, r23	; 0x02
    36c2:	8b 83       	std	Y+3, r24	; 0x03
    36c4:	9c 83       	std	Y+4, r25	; 0x04
    36c6:	89 81       	ldd	r24, Y+1	; 0x01
    36c8:	9a 81       	ldd	r25, Y+2	; 0x02
    36ca:	ab 81       	ldd	r26, Y+3	; 0x03
    36cc:	bc 81       	ldd	r27, Y+4	; 0x04
    36ce:	89 2b       	or	r24, r25
    36d0:	8a 2b       	or	r24, r26
    36d2:	8b 2b       	or	r24, r27
    36d4:	09 f4       	brne	.+2      	; 0x36d8 <dir_next+0x156>
    36d6:	a7 c0       	rjmp	.+334    	; 0x3826 <dir_next+0x2a4>
    36d8:	89 81       	ldd	r24, Y+1	; 0x01
    36da:	9a 81       	ldd	r25, Y+2	; 0x02
    36dc:	ab 81       	ldd	r26, Y+3	; 0x03
    36de:	bc 81       	ldd	r27, Y+4	; 0x04
    36e0:	01 97       	sbiw	r24, 0x01	; 1
    36e2:	a1 05       	cpc	r26, r1
    36e4:	b1 05       	cpc	r27, r1
    36e6:	09 f4       	brne	.+2      	; 0x36ea <dir_next+0x168>
    36e8:	a0 c0       	rjmp	.+320    	; 0x382a <dir_next+0x2a8>
    36ea:	89 81       	ldd	r24, Y+1	; 0x01
    36ec:	9a 81       	ldd	r25, Y+2	; 0x02
    36ee:	ab 81       	ldd	r26, Y+3	; 0x03
    36f0:	bc 81       	ldd	r27, Y+4	; 0x04
    36f2:	8f 3f       	cpi	r24, 0xFF	; 255
    36f4:	9f 4f       	sbci	r25, 0xFF	; 255
    36f6:	af 4f       	sbci	r26, 0xFF	; 255
    36f8:	bf 4f       	sbci	r27, 0xFF	; 255
    36fa:	09 f4       	brne	.+2      	; 0x36fe <dir_next+0x17c>
    36fc:	98 c0       	rjmp	.+304    	; 0x382e <dir_next+0x2ac>
    36fe:	d8 01       	movw	r26, r16
    3700:	8d 91       	ld	r24, X+
    3702:	9c 91       	ld	r25, X
    3704:	0e 94 93 0f 	call	0x1f26	; 0x1f26 <sync_window>
    3708:	81 11       	cpse	r24, r1
    370a:	93 c0       	rjmp	.+294    	; 0x3832 <dir_next+0x2b0>
    370c:	f8 01       	movw	r30, r16
    370e:	80 81       	ld	r24, Z
    3710:	91 81       	ldd	r25, Z+1	; 0x01
    3712:	40 e0       	ldi	r20, 0x00	; 0
    3714:	52 e0       	ldi	r21, 0x02	; 2
    3716:	60 e0       	ldi	r22, 0x00	; 0
    3718:	70 e0       	ldi	r23, 0x00	; 0
    371a:	8e 96       	adiw	r24, 0x2e	; 46
    371c:	0e 94 c1 0e 	call	0x1d82	; 0x1d82 <mem_set>
    3720:	49 81       	ldd	r20, Y+1	; 0x01
    3722:	5a 81       	ldd	r21, Y+2	; 0x02
    3724:	6b 81       	ldd	r22, Y+3	; 0x03
    3726:	7c 81       	ldd	r23, Y+4	; 0x04
    3728:	d8 01       	movw	r26, r16
    372a:	ed 90       	ld	r14, X+
    372c:	fc 90       	ld	r15, X
    372e:	c7 01       	movw	r24, r14
    3730:	c0 d9       	rcall	.-3200   	; 0x2ab2 <clust2sect>
    3732:	f7 01       	movw	r30, r14
    3734:	62 a7       	std	Z+42, r22	; 0x2a
    3736:	73 a7       	std	Z+43, r23	; 0x2b
    3738:	84 a7       	std	Z+44, r24	; 0x2c
    373a:	95 a7       	std	Z+45, r25	; 0x2d
    373c:	1f 82       	std	Y+7, r1	; 0x07
    373e:	18 86       	std	Y+8, r1	; 0x08
    3740:	ff 24       	eor	r15, r15
    3742:	f3 94       	inc	r15
    3744:	1b c0       	rjmp	.+54     	; 0x377c <dir_next+0x1fa>
    3746:	f4 82       	std	Z+4, r15	; 0x04
    3748:	d8 01       	movw	r26, r16
    374a:	8d 91       	ld	r24, X+
    374c:	9c 91       	ld	r25, X
    374e:	0e 94 93 0f 	call	0x1f26	; 0x1f26 <sync_window>
    3752:	81 11       	cpse	r24, r1
    3754:	70 c0       	rjmp	.+224    	; 0x3836 <dir_next+0x2b4>
    3756:	d8 01       	movw	r26, r16
    3758:	ed 91       	ld	r30, X+
    375a:	fc 91       	ld	r31, X
    375c:	82 a5       	ldd	r24, Z+42	; 0x2a
    375e:	93 a5       	ldd	r25, Z+43	; 0x2b
    3760:	a4 a5       	ldd	r26, Z+44	; 0x2c
    3762:	b5 a5       	ldd	r27, Z+45	; 0x2d
    3764:	01 96       	adiw	r24, 0x01	; 1
    3766:	a1 1d       	adc	r26, r1
    3768:	b1 1d       	adc	r27, r1
    376a:	82 a7       	std	Z+42, r24	; 0x2a
    376c:	93 a7       	std	Z+43, r25	; 0x2b
    376e:	a4 a7       	std	Z+44, r26	; 0x2c
    3770:	b5 a7       	std	Z+45, r27	; 0x2d
    3772:	8f 81       	ldd	r24, Y+7	; 0x07
    3774:	98 85       	ldd	r25, Y+8	; 0x08
    3776:	01 96       	adiw	r24, 0x01	; 1
    3778:	8f 83       	std	Y+7, r24	; 0x07
    377a:	98 87       	std	Y+8, r25	; 0x08
    377c:	d8 01       	movw	r26, r16
    377e:	ed 91       	ld	r30, X+
    3780:	fc 91       	ld	r31, X
    3782:	22 81       	ldd	r18, Z+2	; 0x02
    3784:	8f 81       	ldd	r24, Y+7	; 0x07
    3786:	98 85       	ldd	r25, Y+8	; 0x08
    3788:	30 e0       	ldi	r19, 0x00	; 0
    378a:	82 17       	cp	r24, r18
    378c:	93 07       	cpc	r25, r19
    378e:	d8 f2       	brcs	.-74     	; 0x3746 <dir_next+0x1c4>
    3790:	82 a5       	ldd	r24, Z+42	; 0x2a
    3792:	93 a5       	ldd	r25, Z+43	; 0x2b
    3794:	a4 a5       	ldd	r26, Z+44	; 0x2c
    3796:	b5 a5       	ldd	r27, Z+45	; 0x2d
    3798:	2f 81       	ldd	r18, Y+7	; 0x07
    379a:	38 85       	ldd	r19, Y+8	; 0x08
    379c:	82 1b       	sub	r24, r18
    379e:	93 0b       	sbc	r25, r19
    37a0:	a1 09       	sbc	r26, r1
    37a2:	b1 09       	sbc	r27, r1
    37a4:	82 a7       	std	Z+42, r24	; 0x2a
    37a6:	93 a7       	std	Z+43, r25	; 0x2b
    37a8:	a4 a7       	std	Z+44, r26	; 0x2c
    37aa:	b5 a7       	std	Z+45, r27	; 0x2d
    37ac:	89 81       	ldd	r24, Y+1	; 0x01
    37ae:	9a 81       	ldd	r25, Y+2	; 0x02
    37b0:	ab 81       	ldd	r26, Y+3	; 0x03
    37b2:	bc 81       	ldd	r27, Y+4	; 0x04
    37b4:	f8 01       	movw	r30, r16
    37b6:	82 87       	std	Z+10, r24	; 0x0a
    37b8:	93 87       	std	Z+11, r25	; 0x0b
    37ba:	a4 87       	std	Z+12, r26	; 0x0c
    37bc:	b5 87       	std	Z+13, r27	; 0x0d
    37be:	49 81       	ldd	r20, Y+1	; 0x01
    37c0:	5a 81       	ldd	r21, Y+2	; 0x02
    37c2:	6b 81       	ldd	r22, Y+3	; 0x03
    37c4:	7c 81       	ldd	r23, Y+4	; 0x04
    37c6:	80 81       	ld	r24, Z
    37c8:	91 81       	ldd	r25, Z+1	; 0x01
    37ca:	73 d9       	rcall	.-3354   	; 0x2ab2 <clust2sect>
    37cc:	d8 01       	movw	r26, r16
    37ce:	1e 96       	adiw	r26, 0x0e	; 14
    37d0:	6d 93       	st	X+, r22
    37d2:	7d 93       	st	X+, r23
    37d4:	8d 93       	st	X+, r24
    37d6:	9c 93       	st	X, r25
    37d8:	51 97       	sbiw	r26, 0x11	; 17
    37da:	8d 81       	ldd	r24, Y+5	; 0x05
    37dc:	9e 81       	ldd	r25, Y+6	; 0x06
    37de:	f8 01       	movw	r30, r16
    37e0:	84 83       	std	Z+4, r24	; 0x04
    37e2:	95 83       	std	Z+5, r25	; 0x05
    37e4:	8d 81       	ldd	r24, Y+5	; 0x05
    37e6:	9e 81       	ldd	r25, Y+6	; 0x06
    37e8:	8f 70       	andi	r24, 0x0F	; 15
    37ea:	99 27       	eor	r25, r25
    37ec:	88 0f       	add	r24, r24
    37ee:	99 1f       	adc	r25, r25
    37f0:	82 95       	swap	r24
    37f2:	92 95       	swap	r25
    37f4:	90 7f       	andi	r25, 0xF0	; 240
    37f6:	98 27       	eor	r25, r24
    37f8:	80 7f       	andi	r24, 0xF0	; 240
    37fa:	98 27       	eor	r25, r24
    37fc:	8e 96       	adiw	r24, 0x2e	; 46
    37fe:	20 81       	ld	r18, Z
    3800:	31 81       	ldd	r19, Z+1	; 0x01
    3802:	82 0f       	add	r24, r18
    3804:	93 1f       	adc	r25, r19
    3806:	82 8b       	std	Z+18, r24	; 0x12
    3808:	93 8b       	std	Z+19, r25	; 0x13
    380a:	80 e0       	ldi	r24, 0x00	; 0
    380c:	15 c0       	rjmp	.+42     	; 0x3838 <dir_next+0x2b6>
    380e:	84 e0       	ldi	r24, 0x04	; 4
    3810:	13 c0       	rjmp	.+38     	; 0x3838 <dir_next+0x2b6>
    3812:	84 e0       	ldi	r24, 0x04	; 4
    3814:	11 c0       	rjmp	.+34     	; 0x3838 <dir_next+0x2b6>
    3816:	84 e0       	ldi	r24, 0x04	; 4
    3818:	0f c0       	rjmp	.+30     	; 0x3838 <dir_next+0x2b6>
    381a:	82 e0       	ldi	r24, 0x02	; 2
    381c:	0d c0       	rjmp	.+26     	; 0x3838 <dir_next+0x2b6>
    381e:	81 e0       	ldi	r24, 0x01	; 1
    3820:	0b c0       	rjmp	.+22     	; 0x3838 <dir_next+0x2b6>
    3822:	84 e0       	ldi	r24, 0x04	; 4
    3824:	09 c0       	rjmp	.+18     	; 0x3838 <dir_next+0x2b6>
    3826:	87 e0       	ldi	r24, 0x07	; 7
    3828:	07 c0       	rjmp	.+14     	; 0x3838 <dir_next+0x2b6>
    382a:	82 e0       	ldi	r24, 0x02	; 2
    382c:	05 c0       	rjmp	.+10     	; 0x3838 <dir_next+0x2b6>
    382e:	81 e0       	ldi	r24, 0x01	; 1
    3830:	03 c0       	rjmp	.+6      	; 0x3838 <dir_next+0x2b6>
    3832:	81 e0       	ldi	r24, 0x01	; 1
    3834:	01 c0       	rjmp	.+2      	; 0x3838 <dir_next+0x2b6>
    3836:	81 e0       	ldi	r24, 0x01	; 1
    3838:	28 96       	adiw	r28, 0x08	; 8
    383a:	cd bf       	out	0x3d, r28	; 61
    383c:	de bf       	out	0x3e, r29	; 62
    383e:	df 91       	pop	r29
    3840:	cf 91       	pop	r28
    3842:	1f 91       	pop	r17
    3844:	0f 91       	pop	r16
    3846:	ff 90       	pop	r15
    3848:	ef 90       	pop	r14
    384a:	08 95       	ret

0000384c <follow_path>:
    384c:	3f 92       	push	r3
    384e:	4f 92       	push	r4
    3850:	5f 92       	push	r5
    3852:	6f 92       	push	r6
    3854:	7f 92       	push	r7
    3856:	8f 92       	push	r8
    3858:	9f 92       	push	r9
    385a:	af 92       	push	r10
    385c:	bf 92       	push	r11
    385e:	cf 92       	push	r12
    3860:	df 92       	push	r13
    3862:	ef 92       	push	r14
    3864:	ff 92       	push	r15
    3866:	0f 93       	push	r16
    3868:	1f 93       	push	r17
    386a:	cf 93       	push	r28
    386c:	df 93       	push	r29
    386e:	cd b7       	in	r28, 0x3d	; 61
    3870:	de b7       	in	r29, 0x3e	; 62
    3872:	2b 97       	sbiw	r28, 0x0b	; 11
    3874:	cd bf       	out	0x3d, r28	; 61
    3876:	de bf       	out	0x3e, r29	; 62
    3878:	8c 01       	movw	r16, r24
    387a:	7b 01       	movw	r14, r22
    387c:	db 01       	movw	r26, r22
    387e:	8c 91       	ld	r24, X
    3880:	8f 32       	cpi	r24, 0x2F	; 47
    3882:	11 f0       	breq	.+4      	; 0x3888 <follow_path+0x3c>
    3884:	8c 35       	cpi	r24, 0x5C	; 92
    3886:	19 f4       	brne	.+6      	; 0x388e <follow_path+0x42>
    3888:	bf ef       	ldi	r27, 0xFF	; 255
    388a:	eb 1a       	sub	r14, r27
    388c:	fb 0a       	sbc	r15, r27
    388e:	f8 01       	movw	r30, r16
    3890:	16 82       	std	Z+6, r1	; 0x06
    3892:	17 82       	std	Z+7, r1	; 0x07
    3894:	10 86       	std	Z+8, r1	; 0x08
    3896:	11 86       	std	Z+9, r1	; 0x09
    3898:	d7 01       	movw	r26, r14
    389a:	8c 91       	ld	r24, X
    389c:	80 32       	cpi	r24, 0x20	; 32
    389e:	40 f4       	brcc	.+16     	; 0x38b0 <follow_path+0x64>
    38a0:	60 e0       	ldi	r22, 0x00	; 0
    38a2:	70 e0       	ldi	r23, 0x00	; 0
    38a4:	c8 01       	movw	r24, r16
    38a6:	89 da       	rcall	.-2798   	; 0x2dba <dir_sdi>
    38a8:	f8 01       	movw	r30, r16
    38aa:	12 8a       	std	Z+18, r1	; 0x12
    38ac:	13 8a       	std	Z+19, r1	; 0x13
    38ae:	92 c1       	rjmp	.+804    	; 0x3bd4 <follow_path+0x388>
    38b0:	0f 2e       	mov	r0, r31
    38b2:	fb e0       	ldi	r31, 0x0B	; 11
    38b4:	4f 2e       	mov	r4, r31
    38b6:	f0 2d       	mov	r31, r0
    38b8:	51 2c       	mov	r5, r1
    38ba:	68 94       	set
    38bc:	aa 24       	eor	r10, r10
    38be:	a3 f8       	bld	r10, 3
    38c0:	b1 2c       	mov	r11, r1
    38c2:	64 2c       	mov	r6, r4
    38c4:	75 2c       	mov	r7, r5
    38c6:	0f 2e       	mov	r0, r31
    38c8:	f1 e6       	ldi	r31, 0x61	; 97
    38ca:	8f 2e       	mov	r8, r31
    38cc:	f0 e2       	ldi	r31, 0x20	; 32
    38ce:	9f 2e       	mov	r9, r31
    38d0:	f0 2d       	mov	r31, r0
    38d2:	0f 2e       	mov	r0, r31
    38d4:	f5 e0       	ldi	r31, 0x05	; 5
    38d6:	3f 2e       	mov	r3, r31
    38d8:	f0 2d       	mov	r31, r0
    38da:	f7 01       	movw	r30, r14
    38dc:	7f 01       	movw	r14, r30
    38de:	81 91       	ld	r24, Z+
    38e0:	8f 32       	cpi	r24, 0x2F	; 47
    38e2:	e1 f3       	breq	.-8      	; 0x38dc <follow_path+0x90>
    38e4:	8c 35       	cpi	r24, 0x5C	; 92
    38e6:	d1 f3       	breq	.-12     	; 0x38dc <follow_path+0x90>
    38e8:	d8 01       	movw	r26, r16
    38ea:	54 96       	adiw	r26, 0x14	; 20
    38ec:	cd 90       	ld	r12, X+
    38ee:	dc 90       	ld	r13, X
    38f0:	55 97       	sbiw	r26, 0x15	; 21
    38f2:	44 2d       	mov	r20, r4
    38f4:	55 2d       	mov	r21, r5
    38f6:	60 e2       	ldi	r22, 0x20	; 32
    38f8:	70 e0       	ldi	r23, 0x00	; 0
    38fa:	c6 01       	movw	r24, r12
    38fc:	0e 94 c1 0e 	call	0x1d82	; 0x1d82 <mem_set>
    3900:	1b 86       	std	Y+11, r1	; 0x0b
    3902:	1a 82       	std	Y+2, r1	; 0x02
    3904:	1b 82       	std	Y+3, r1	; 0x03
    3906:	1c 82       	std	Y+4, r1	; 0x04
    3908:	1d 82       	std	Y+5, r1	; 0x05
    390a:	ae 82       	std	Y+6, r10	; 0x06
    390c:	bf 82       	std	Y+7, r11	; 0x07
    390e:	8c 81       	ldd	r24, Y+4	; 0x04
    3910:	9d 81       	ldd	r25, Y+5	; 0x05
    3912:	9c 01       	movw	r18, r24
    3914:	2f 5f       	subi	r18, 0xFF	; 255
    3916:	3f 4f       	sbci	r19, 0xFF	; 255
    3918:	2c 83       	std	Y+4, r18	; 0x04
    391a:	3d 83       	std	Y+5, r19	; 0x05
    391c:	f7 01       	movw	r30, r14
    391e:	e8 0f       	add	r30, r24
    3920:	f9 1f       	adc	r31, r25
    3922:	80 81       	ld	r24, Z
    3924:	8a 87       	std	Y+10, r24	; 0x0a
    3926:	8a 85       	ldd	r24, Y+10	; 0x0a
    3928:	81 32       	cpi	r24, 0x21	; 33
    392a:	08 f4       	brcc	.+2      	; 0x392e <follow_path+0xe2>
    392c:	9e c0       	rjmp	.+316    	; 0x3a6a <follow_path+0x21e>
    392e:	8a 85       	ldd	r24, Y+10	; 0x0a
    3930:	8f 32       	cpi	r24, 0x2F	; 47
    3932:	09 f4       	brne	.+2      	; 0x3936 <follow_path+0xea>
    3934:	9a c0       	rjmp	.+308    	; 0x3a6a <follow_path+0x21e>
    3936:	8a 85       	ldd	r24, Y+10	; 0x0a
    3938:	8c 35       	cpi	r24, 0x5C	; 92
    393a:	09 f4       	brne	.+2      	; 0x393e <follow_path+0xf2>
    393c:	96 c0       	rjmp	.+300    	; 0x3a6a <follow_path+0x21e>
    393e:	8a 85       	ldd	r24, Y+10	; 0x0a
    3940:	8e 32       	cpi	r24, 0x2E	; 46
    3942:	39 f0       	breq	.+14     	; 0x3952 <follow_path+0x106>
    3944:	2a 81       	ldd	r18, Y+2	; 0x02
    3946:	3b 81       	ldd	r19, Y+3	; 0x03
    3948:	8e 81       	ldd	r24, Y+6	; 0x06
    394a:	9f 81       	ldd	r25, Y+7	; 0x07
    394c:	28 17       	cp	r18, r24
    394e:	39 07       	cpc	r19, r25
    3950:	90 f0       	brcs	.+36     	; 0x3976 <follow_path+0x12a>
    3952:	8e 81       	ldd	r24, Y+6	; 0x06
    3954:	9f 81       	ldd	r25, Y+7	; 0x07
    3956:	08 97       	sbiw	r24, 0x08	; 8
    3958:	09 f0       	breq	.+2      	; 0x395c <follow_path+0x110>
    395a:	1e c1       	rjmp	.+572    	; 0x3b98 <follow_path+0x34c>
    395c:	8a 85       	ldd	r24, Y+10	; 0x0a
    395e:	8e 32       	cpi	r24, 0x2E	; 46
    3960:	09 f0       	breq	.+2      	; 0x3964 <follow_path+0x118>
    3962:	1a c1       	rjmp	.+564    	; 0x3b98 <follow_path+0x34c>
    3964:	aa 82       	std	Y+2, r10	; 0x02
    3966:	bb 82       	std	Y+3, r11	; 0x03
    3968:	6e 82       	std	Y+6, r6	; 0x06
    396a:	7f 82       	std	Y+7, r7	; 0x07
    396c:	8b 85       	ldd	r24, Y+11	; 0x0b
    396e:	88 0f       	add	r24, r24
    3970:	88 0f       	add	r24, r24
    3972:	8b 87       	std	Y+11, r24	; 0x0b
    3974:	cc cf       	rjmp	.-104    	; 0x390e <follow_path+0xc2>
    3976:	8a 85       	ldd	r24, Y+10	; 0x0a
    3978:	88 23       	and	r24, r24
    397a:	1c f4       	brge	.+6      	; 0x3982 <follow_path+0x136>
    397c:	8b 85       	ldd	r24, Y+11	; 0x0b
    397e:	83 60       	ori	r24, 0x03	; 3
    3980:	8b 87       	std	Y+11, r24	; 0x0b
    3982:	8a 85       	ldd	r24, Y+10	; 0x0a
    3984:	81 38       	cpi	r24, 0x81	; 129
    3986:	18 f0       	brcs	.+6      	; 0x398e <follow_path+0x142>
    3988:	8a 85       	ldd	r24, Y+10	; 0x0a
    398a:	80 3a       	cpi	r24, 0xA0	; 160
    398c:	40 f0       	brcs	.+16     	; 0x399e <follow_path+0x152>
    398e:	8a 85       	ldd	r24, Y+10	; 0x0a
    3990:	80 3e       	cpi	r24, 0xE0	; 224
    3992:	08 f4       	brcc	.+2      	; 0x3996 <follow_path+0x14a>
    3994:	f5 c0       	rjmp	.+490    	; 0x3b80 <follow_path+0x334>
    3996:	8a 85       	ldd	r24, Y+10	; 0x0a
    3998:	8d 3f       	cpi	r24, 0xFD	; 253
    399a:	08 f0       	brcs	.+2      	; 0x399e <follow_path+0x152>
    399c:	f1 c0       	rjmp	.+482    	; 0x3b80 <follow_path+0x334>
    399e:	8c 81       	ldd	r24, Y+4	; 0x04
    39a0:	9d 81       	ldd	r25, Y+5	; 0x05
    39a2:	9c 01       	movw	r18, r24
    39a4:	2f 5f       	subi	r18, 0xFF	; 255
    39a6:	3f 4f       	sbci	r19, 0xFF	; 255
    39a8:	2c 83       	std	Y+4, r18	; 0x04
    39aa:	3d 83       	std	Y+5, r19	; 0x05
    39ac:	f7 01       	movw	r30, r14
    39ae:	e8 0f       	add	r30, r24
    39b0:	f9 1f       	adc	r31, r25
    39b2:	80 81       	ld	r24, Z
    39b4:	89 87       	std	Y+9, r24	; 0x09
    39b6:	89 85       	ldd	r24, Y+9	; 0x09
    39b8:	80 34       	cpi	r24, 0x40	; 64
    39ba:	18 f0       	brcs	.+6      	; 0x39c2 <follow_path+0x176>
    39bc:	89 85       	ldd	r24, Y+9	; 0x09
    39be:	8f 37       	cpi	r24, 0x7F	; 127
    39c0:	40 f0       	brcs	.+16     	; 0x39d2 <follow_path+0x186>
    39c2:	89 85       	ldd	r24, Y+9	; 0x09
    39c4:	88 23       	and	r24, r24
    39c6:	0c f0       	brlt	.+2      	; 0x39ca <follow_path+0x17e>
    39c8:	e7 c0       	rjmp	.+462    	; 0x3b98 <follow_path+0x34c>
    39ca:	89 85       	ldd	r24, Y+9	; 0x09
    39cc:	8d 3f       	cpi	r24, 0xFD	; 253
    39ce:	08 f0       	brcs	.+2      	; 0x39d2 <follow_path+0x186>
    39d0:	e3 c0       	rjmp	.+454    	; 0x3b98 <follow_path+0x34c>
    39d2:	2e 81       	ldd	r18, Y+6	; 0x06
    39d4:	3f 81       	ldd	r19, Y+7	; 0x07
    39d6:	8a 81       	ldd	r24, Y+2	; 0x02
    39d8:	9b 81       	ldd	r25, Y+3	; 0x03
    39da:	21 50       	subi	r18, 0x01	; 1
    39dc:	31 09       	sbc	r19, r1
    39de:	82 17       	cp	r24, r18
    39e0:	93 07       	cpc	r25, r19
    39e2:	08 f0       	brcs	.+2      	; 0x39e6 <follow_path+0x19a>
    39e4:	d9 c0       	rjmp	.+434    	; 0x3b98 <follow_path+0x34c>
    39e6:	8a 81       	ldd	r24, Y+2	; 0x02
    39e8:	9b 81       	ldd	r25, Y+3	; 0x03
    39ea:	9c 01       	movw	r18, r24
    39ec:	2f 5f       	subi	r18, 0xFF	; 255
    39ee:	3f 4f       	sbci	r19, 0xFF	; 255
    39f0:	2a 83       	std	Y+2, r18	; 0x02
    39f2:	3b 83       	std	Y+3, r19	; 0x03
    39f4:	f6 01       	movw	r30, r12
    39f6:	e8 0f       	add	r30, r24
    39f8:	f9 1f       	adc	r31, r25
    39fa:	2a 85       	ldd	r18, Y+10	; 0x0a
    39fc:	20 83       	st	Z, r18
    39fe:	8a 81       	ldd	r24, Y+2	; 0x02
    3a00:	9b 81       	ldd	r25, Y+3	; 0x03
    3a02:	9c 01       	movw	r18, r24
    3a04:	2f 5f       	subi	r18, 0xFF	; 255
    3a06:	3f 4f       	sbci	r19, 0xFF	; 255
    3a08:	2a 83       	std	Y+2, r18	; 0x02
    3a0a:	3b 83       	std	Y+3, r19	; 0x03
    3a0c:	f6 01       	movw	r30, r12
    3a0e:	e8 0f       	add	r30, r24
    3a10:	f9 1f       	adc	r31, r25
    3a12:	29 85       	ldd	r18, Y+9	; 0x09
    3a14:	20 83       	st	Z, r18
    3a16:	7b cf       	rjmp	.-266    	; 0x390e <follow_path+0xc2>
    3a18:	81 91       	ld	r24, Z+
    3a1a:	88 23       	and	r24, r24
    3a1c:	09 f4       	brne	.+2      	; 0x3a20 <follow_path+0x1d4>
    3a1e:	b7 c0       	rjmp	.+366    	; 0x3b8e <follow_path+0x342>
    3a20:	90 e0       	ldi	r25, 0x00	; 0
    3a22:	28 17       	cp	r18, r24
    3a24:	39 07       	cpc	r19, r25
    3a26:	c1 f7       	brne	.-16     	; 0x3a18 <follow_path+0x1cc>
    3a28:	b7 c0       	rjmp	.+366    	; 0x3b98 <follow_path+0x34c>
    3a2a:	8a 85       	ldd	r24, Y+10	; 0x0a
    3a2c:	8b 35       	cpi	r24, 0x5B	; 91
    3a2e:	20 f4       	brcc	.+8      	; 0x3a38 <follow_path+0x1ec>
    3a30:	8b 85       	ldd	r24, Y+11	; 0x0b
    3a32:	82 60       	ori	r24, 0x02	; 2
    3a34:	8b 87       	std	Y+11, r24	; 0x0b
    3a36:	0c c0       	rjmp	.+24     	; 0x3a50 <follow_path+0x204>
    3a38:	8a 85       	ldd	r24, Y+10	; 0x0a
    3a3a:	81 36       	cpi	r24, 0x61	; 97
    3a3c:	48 f0       	brcs	.+18     	; 0x3a50 <follow_path+0x204>
    3a3e:	8a 85       	ldd	r24, Y+10	; 0x0a
    3a40:	8b 37       	cpi	r24, 0x7B	; 123
    3a42:	30 f4       	brcc	.+12     	; 0x3a50 <follow_path+0x204>
    3a44:	8b 85       	ldd	r24, Y+11	; 0x0b
    3a46:	81 60       	ori	r24, 0x01	; 1
    3a48:	8b 87       	std	Y+11, r24	; 0x0b
    3a4a:	8a 85       	ldd	r24, Y+10	; 0x0a
    3a4c:	80 52       	subi	r24, 0x20	; 32
    3a4e:	8a 87       	std	Y+10, r24	; 0x0a
    3a50:	8a 81       	ldd	r24, Y+2	; 0x02
    3a52:	9b 81       	ldd	r25, Y+3	; 0x03
    3a54:	9c 01       	movw	r18, r24
    3a56:	2f 5f       	subi	r18, 0xFF	; 255
    3a58:	3f 4f       	sbci	r19, 0xFF	; 255
    3a5a:	2a 83       	std	Y+2, r18	; 0x02
    3a5c:	3b 83       	std	Y+3, r19	; 0x03
    3a5e:	f6 01       	movw	r30, r12
    3a60:	e8 0f       	add	r30, r24
    3a62:	f9 1f       	adc	r31, r25
    3a64:	2a 85       	ldd	r18, Y+10	; 0x0a
    3a66:	20 83       	st	Z, r18
    3a68:	52 cf       	rjmp	.-348    	; 0x390e <follow_path+0xc2>
    3a6a:	8c 81       	ldd	r24, Y+4	; 0x04
    3a6c:	9d 81       	ldd	r25, Y+5	; 0x05
    3a6e:	e8 0e       	add	r14, r24
    3a70:	f9 1e       	adc	r15, r25
    3a72:	8a 85       	ldd	r24, Y+10	; 0x0a
    3a74:	81 32       	cpi	r24, 0x21	; 33
    3a76:	10 f4       	brcc	.+4      	; 0x3a7c <follow_path+0x230>
    3a78:	84 e0       	ldi	r24, 0x04	; 4
    3a7a:	01 c0       	rjmp	.+2      	; 0x3a7e <follow_path+0x232>
    3a7c:	80 e0       	ldi	r24, 0x00	; 0
    3a7e:	8a 87       	std	Y+10, r24	; 0x0a
    3a80:	8a 81       	ldd	r24, Y+2	; 0x02
    3a82:	9b 81       	ldd	r25, Y+3	; 0x03
    3a84:	89 2b       	or	r24, r25
    3a86:	09 f4       	brne	.+2      	; 0x3a8a <follow_path+0x23e>
    3a88:	87 c0       	rjmp	.+270    	; 0x3b98 <follow_path+0x34c>
    3a8a:	f6 01       	movw	r30, r12
    3a8c:	80 81       	ld	r24, Z
    3a8e:	85 3e       	cpi	r24, 0xE5	; 229
    3a90:	09 f4       	brne	.+2      	; 0x3a94 <follow_path+0x248>
    3a92:	30 82       	st	Z, r3
    3a94:	8e 81       	ldd	r24, Y+6	; 0x06
    3a96:	9f 81       	ldd	r25, Y+7	; 0x07
    3a98:	08 97       	sbiw	r24, 0x08	; 8
    3a9a:	21 f4       	brne	.+8      	; 0x3aa4 <follow_path+0x258>
    3a9c:	8b 85       	ldd	r24, Y+11	; 0x0b
    3a9e:	88 0f       	add	r24, r24
    3aa0:	88 0f       	add	r24, r24
    3aa2:	8b 87       	std	Y+11, r24	; 0x0b
    3aa4:	8b 85       	ldd	r24, Y+11	; 0x0b
    3aa6:	83 70       	andi	r24, 0x03	; 3
    3aa8:	81 30       	cpi	r24, 0x01	; 1
    3aaa:	19 f4       	brne	.+6      	; 0x3ab2 <follow_path+0x266>
    3aac:	8a 85       	ldd	r24, Y+10	; 0x0a
    3aae:	80 61       	ori	r24, 0x10	; 16
    3ab0:	8a 87       	std	Y+10, r24	; 0x0a
    3ab2:	8b 85       	ldd	r24, Y+11	; 0x0b
    3ab4:	8c 70       	andi	r24, 0x0C	; 12
    3ab6:	84 30       	cpi	r24, 0x04	; 4
    3ab8:	19 f4       	brne	.+6      	; 0x3ac0 <follow_path+0x274>
    3aba:	8a 85       	ldd	r24, Y+10	; 0x0a
    3abc:	88 60       	ori	r24, 0x08	; 8
    3abe:	8a 87       	std	Y+10, r24	; 0x0a
    3ac0:	8a 85       	ldd	r24, Y+10	; 0x0a
    3ac2:	d6 01       	movw	r26, r12
    3ac4:	1b 96       	adiw	r26, 0x0b	; 11
    3ac6:	8c 93       	st	X, r24
    3ac8:	60 e0       	ldi	r22, 0x00	; 0
    3aca:	70 e0       	ldi	r23, 0x00	; 0
    3acc:	c8 01       	movw	r24, r16
    3ace:	75 d9       	rcall	.-3350   	; 0x2dba <dir_sdi>
    3ad0:	81 11       	cpse	r24, r1
    3ad2:	64 c0       	rjmp	.+200    	; 0x3b9c <follow_path+0x350>
    3ad4:	f8 01       	movw	r30, r16
    3ad6:	46 85       	ldd	r20, Z+14	; 0x0e
    3ad8:	57 85       	ldd	r21, Z+15	; 0x0f
    3ada:	60 89       	ldd	r22, Z+16	; 0x10
    3adc:	71 89       	ldd	r23, Z+17	; 0x11
    3ade:	80 81       	ld	r24, Z
    3ae0:	91 81       	ldd	r25, Z+1	; 0x01
    3ae2:	0e 94 17 10 	call	0x202e	; 0x202e <move_window>
    3ae6:	81 11       	cpse	r24, r1
    3ae8:	59 c0       	rjmp	.+178    	; 0x3b9c <follow_path+0x350>
    3aea:	d8 01       	movw	r26, r16
    3aec:	52 96       	adiw	r26, 0x12	; 18
    3aee:	ed 91       	ld	r30, X+
    3af0:	fc 91       	ld	r31, X
    3af2:	53 97       	sbiw	r26, 0x13	; 19
    3af4:	90 81       	ld	r25, Z
    3af6:	98 87       	std	Y+8, r25	; 0x08
    3af8:	98 85       	ldd	r25, Y+8	; 0x08
    3afa:	99 23       	and	r25, r25
    3afc:	09 f4       	brne	.+2      	; 0x3b00 <follow_path+0x2b4>
    3afe:	58 c0       	rjmp	.+176    	; 0x3bb0 <follow_path+0x364>
    3b00:	93 85       	ldd	r25, Z+11	; 0x0b
    3b02:	93 fd       	sbrc	r25, 3
    3b04:	1a c0       	rjmp	.+52     	; 0x3b3a <follow_path+0x2ee>
    3b06:	54 96       	adiw	r26, 0x14	; 20
    3b08:	cd 90       	ld	r12, X+
    3b0a:	dc 90       	ld	r13, X
    3b0c:	55 97       	sbiw	r26, 0x15	; 21
    3b0e:	24 2d       	mov	r18, r4
    3b10:	35 2d       	mov	r19, r5
    3b12:	a9 01       	movw	r20, r18
    3b14:	21 50       	subi	r18, 0x01	; 1
    3b16:	31 09       	sbc	r19, r1
    3b18:	45 2b       	or	r20, r21
    3b1a:	09 f4       	brne	.+2      	; 0x3b1e <follow_path+0x2d2>
    3b1c:	51 c0       	rjmp	.+162    	; 0x3bc0 <follow_path+0x374>
    3b1e:	af 01       	movw	r20, r30
    3b20:	4f 5f       	subi	r20, 0xFF	; 255
    3b22:	5f 4f       	sbci	r21, 0xFF	; 255
    3b24:	e0 81       	ld	r30, Z
    3b26:	b6 01       	movw	r22, r12
    3b28:	6f 5f       	subi	r22, 0xFF	; 255
    3b2a:	7f 4f       	sbci	r23, 0xFF	; 255
    3b2c:	d6 01       	movw	r26, r12
    3b2e:	9c 91       	ld	r25, X
    3b30:	e9 13       	cpse	r30, r25
    3b32:	03 c0       	rjmp	.+6      	; 0x3b3a <follow_path+0x2ee>
    3b34:	6b 01       	movw	r12, r22
    3b36:	fa 01       	movw	r30, r20
    3b38:	ec cf       	rjmp	.-40     	; 0x3b12 <follow_path+0x2c6>
    3b3a:	60 e0       	ldi	r22, 0x00	; 0
    3b3c:	70 e0       	ldi	r23, 0x00	; 0
    3b3e:	c8 01       	movw	r24, r16
    3b40:	20 dd       	rcall	.-1472   	; 0x3582 <dir_next>
    3b42:	88 23       	and	r24, r24
    3b44:	39 f2       	breq	.-114    	; 0x3ad4 <follow_path+0x288>
    3b46:	2a c0       	rjmp	.+84     	; 0x3b9c <follow_path+0x350>
    3b48:	89 81       	ldd	r24, Y+1	; 0x01
    3b4a:	82 ff       	sbrs	r24, 2
    3b4c:	15 c0       	rjmp	.+42     	; 0x3b78 <follow_path+0x32c>
    3b4e:	12 c0       	rjmp	.+36     	; 0x3b74 <follow_path+0x328>
    3b50:	f8 01       	movw	r30, r16
    3b52:	62 89       	ldd	r22, Z+18	; 0x12
    3b54:	73 89       	ldd	r23, Z+19	; 0x13
    3b56:	db 01       	movw	r26, r22
    3b58:	1b 96       	adiw	r26, 0x0b	; 11
    3b5a:	8c 91       	ld	r24, X
    3b5c:	84 ff       	sbrs	r24, 4
    3b5e:	0e c0       	rjmp	.+28     	; 0x3b7c <follow_path+0x330>
    3b60:	80 81       	ld	r24, Z
    3b62:	91 81       	ldd	r25, Z+1	; 0x01
    3b64:	0e 94 e7 0e 	call	0x1dce	; 0x1dce <ld_clust>
    3b68:	f8 01       	movw	r30, r16
    3b6a:	66 83       	std	Z+6, r22	; 0x06
    3b6c:	77 83       	std	Z+7, r23	; 0x07
    3b6e:	80 87       	std	Z+8, r24	; 0x08
    3b70:	91 87       	std	Z+9, r25	; 0x09
    3b72:	b3 ce       	rjmp	.-666    	; 0x38da <follow_path+0x8e>
    3b74:	84 e0       	ldi	r24, 0x04	; 4
    3b76:	2e c0       	rjmp	.+92     	; 0x3bd4 <follow_path+0x388>
    3b78:	85 e0       	ldi	r24, 0x05	; 5
    3b7a:	2c c0       	rjmp	.+88     	; 0x3bd4 <follow_path+0x388>
    3b7c:	85 e0       	ldi	r24, 0x05	; 5
    3b7e:	2a c0       	rjmp	.+84     	; 0x3bd4 <follow_path+0x388>
    3b80:	2a 85       	ldd	r18, Y+10	; 0x0a
    3b82:	30 e0       	ldi	r19, 0x00	; 0
    3b84:	22 32       	cpi	r18, 0x22	; 34
    3b86:	31 05       	cpc	r19, r1
    3b88:	39 f0       	breq	.+14     	; 0x3b98 <follow_path+0x34c>
    3b8a:	f4 01       	movw	r30, r8
    3b8c:	45 cf       	rjmp	.-374    	; 0x3a18 <follow_path+0x1cc>
    3b8e:	8a 85       	ldd	r24, Y+10	; 0x0a
    3b90:	81 34       	cpi	r24, 0x41	; 65
    3b92:	08 f0       	brcs	.+2      	; 0x3b96 <follow_path+0x34a>
    3b94:	4a cf       	rjmp	.-364    	; 0x3a2a <follow_path+0x1de>
    3b96:	50 cf       	rjmp	.-352    	; 0x3a38 <follow_path+0x1ec>
    3b98:	86 e0       	ldi	r24, 0x06	; 6
    3b9a:	1c c0       	rjmp	.+56     	; 0x3bd4 <follow_path+0x388>
    3b9c:	d8 01       	movw	r26, r16
    3b9e:	54 96       	adiw	r26, 0x14	; 20
    3ba0:	ed 91       	ld	r30, X+
    3ba2:	fc 91       	ld	r31, X
    3ba4:	55 97       	sbiw	r26, 0x15	; 21
    3ba6:	93 85       	ldd	r25, Z+11	; 0x0b
    3ba8:	99 83       	std	Y+1, r25	; 0x01
    3baa:	84 30       	cpi	r24, 0x04	; 4
    3bac:	99 f4       	brne	.+38     	; 0x3bd4 <follow_path+0x388>
    3bae:	cc cf       	rjmp	.-104    	; 0x3b48 <follow_path+0x2fc>
    3bb0:	d8 01       	movw	r26, r16
    3bb2:	54 96       	adiw	r26, 0x14	; 20
    3bb4:	ed 91       	ld	r30, X+
    3bb6:	fc 91       	ld	r31, X
    3bb8:	55 97       	sbiw	r26, 0x15	; 21
    3bba:	83 85       	ldd	r24, Z+11	; 0x0b
    3bbc:	89 83       	std	Y+1, r24	; 0x01
    3bbe:	c4 cf       	rjmp	.-120    	; 0x3b48 <follow_path+0x2fc>
    3bc0:	d8 01       	movw	r26, r16
    3bc2:	54 96       	adiw	r26, 0x14	; 20
    3bc4:	ed 91       	ld	r30, X+
    3bc6:	fc 91       	ld	r31, X
    3bc8:	55 97       	sbiw	r26, 0x15	; 21
    3bca:	93 85       	ldd	r25, Z+11	; 0x0b
    3bcc:	99 83       	std	Y+1, r25	; 0x01
    3bce:	99 81       	ldd	r25, Y+1	; 0x01
    3bd0:	92 ff       	sbrs	r25, 2
    3bd2:	be cf       	rjmp	.-132    	; 0x3b50 <follow_path+0x304>
    3bd4:	2b 96       	adiw	r28, 0x0b	; 11
    3bd6:	cd bf       	out	0x3d, r28	; 61
    3bd8:	de bf       	out	0x3e, r29	; 62
    3bda:	df 91       	pop	r29
    3bdc:	cf 91       	pop	r28
    3bde:	1f 91       	pop	r17
    3be0:	0f 91       	pop	r16
    3be2:	ff 90       	pop	r15
    3be4:	ef 90       	pop	r14
    3be6:	df 90       	pop	r13
    3be8:	cf 90       	pop	r12
    3bea:	bf 90       	pop	r11
    3bec:	af 90       	pop	r10
    3bee:	9f 90       	pop	r9
    3bf0:	8f 90       	pop	r8
    3bf2:	7f 90       	pop	r7
    3bf4:	6f 90       	pop	r6
    3bf6:	5f 90       	pop	r5
    3bf8:	4f 90       	pop	r4
    3bfa:	3f 90       	pop	r3
    3bfc:	08 95       	ret

00003bfe <dir_register>:
    3bfe:	df 92       	push	r13
    3c00:	ef 92       	push	r14
    3c02:	ff 92       	push	r15
    3c04:	0f 93       	push	r16
    3c06:	1f 93       	push	r17
    3c08:	cf 93       	push	r28
    3c0a:	df 93       	push	r29
    3c0c:	1f 92       	push	r1
    3c0e:	1f 92       	push	r1
    3c10:	cd b7       	in	r28, 0x3d	; 61
    3c12:	de b7       	in	r29, 0x3e	; 62
    3c14:	8c 01       	movw	r16, r24
    3c16:	ee 24       	eor	r14, r14
    3c18:	e3 94       	inc	r14
    3c1a:	f1 2c       	mov	r15, r1
    3c1c:	60 e0       	ldi	r22, 0x00	; 0
    3c1e:	70 e0       	ldi	r23, 0x00	; 0
    3c20:	cc d8       	rcall	.-3688   	; 0x2dba <dir_sdi>
    3c22:	d8 2e       	mov	r13, r24
    3c24:	81 11       	cpse	r24, r1
    3c26:	2d c0       	rjmp	.+90     	; 0x3c82 <dir_register+0x84>
    3c28:	19 82       	std	Y+1, r1	; 0x01
    3c2a:	1a 82       	std	Y+2, r1	; 0x02
    3c2c:	d8 01       	movw	r26, r16
    3c2e:	1e 96       	adiw	r26, 0x0e	; 14
    3c30:	4d 91       	ld	r20, X+
    3c32:	5d 91       	ld	r21, X+
    3c34:	6d 91       	ld	r22, X+
    3c36:	7c 91       	ld	r23, X
    3c38:	51 97       	sbiw	r26, 0x11	; 17
    3c3a:	8d 91       	ld	r24, X+
    3c3c:	9c 91       	ld	r25, X
    3c3e:	0e 94 17 10 	call	0x202e	; 0x202e <move_window>
    3c42:	d8 2e       	mov	r13, r24
    3c44:	81 11       	cpse	r24, r1
    3c46:	1d c0       	rjmp	.+58     	; 0x3c82 <dir_register+0x84>
    3c48:	d8 01       	movw	r26, r16
    3c4a:	52 96       	adiw	r26, 0x12	; 18
    3c4c:	ed 91       	ld	r30, X+
    3c4e:	fc 91       	ld	r31, X
    3c50:	53 97       	sbiw	r26, 0x13	; 19
    3c52:	80 81       	ld	r24, Z
    3c54:	85 3e       	cpi	r24, 0xE5	; 229
    3c56:	19 f0       	breq	.+6      	; 0x3c5e <dir_register+0x60>
    3c58:	80 81       	ld	r24, Z
    3c5a:	81 11       	cpse	r24, r1
    3c5c:	09 c0       	rjmp	.+18     	; 0x3c70 <dir_register+0x72>
    3c5e:	89 81       	ldd	r24, Y+1	; 0x01
    3c60:	9a 81       	ldd	r25, Y+2	; 0x02
    3c62:	01 96       	adiw	r24, 0x01	; 1
    3c64:	89 83       	std	Y+1, r24	; 0x01
    3c66:	9a 83       	std	Y+2, r25	; 0x02
    3c68:	8e 15       	cp	r24, r14
    3c6a:	9f 05       	cpc	r25, r15
    3c6c:	19 f4       	brne	.+6      	; 0x3c74 <dir_register+0x76>
    3c6e:	0e c0       	rjmp	.+28     	; 0x3c8c <dir_register+0x8e>
    3c70:	19 82       	std	Y+1, r1	; 0x01
    3c72:	1a 82       	std	Y+2, r1	; 0x02
    3c74:	61 e0       	ldi	r22, 0x01	; 1
    3c76:	70 e0       	ldi	r23, 0x00	; 0
    3c78:	c8 01       	movw	r24, r16
    3c7a:	83 dc       	rcall	.-1786   	; 0x3582 <dir_next>
    3c7c:	d8 2e       	mov	r13, r24
    3c7e:	88 23       	and	r24, r24
    3c80:	a9 f2       	breq	.-86     	; 0x3c2c <dir_register+0x2e>
    3c82:	b4 e0       	ldi	r27, 0x04	; 4
    3c84:	db 16       	cp	r13, r27
    3c86:	41 f1       	breq	.+80     	; 0x3cd8 <dir_register+0xda>
    3c88:	d1 10       	cpse	r13, r1
    3c8a:	2a c0       	rjmp	.+84     	; 0x3ce0 <dir_register+0xe2>
    3c8c:	f8 01       	movw	r30, r16
    3c8e:	46 85       	ldd	r20, Z+14	; 0x0e
    3c90:	57 85       	ldd	r21, Z+15	; 0x0f
    3c92:	60 89       	ldd	r22, Z+16	; 0x10
    3c94:	71 89       	ldd	r23, Z+17	; 0x11
    3c96:	80 81       	ld	r24, Z
    3c98:	91 81       	ldd	r25, Z+1	; 0x01
    3c9a:	0e 94 17 10 	call	0x202e	; 0x202e <move_window>
    3c9e:	d8 2e       	mov	r13, r24
    3ca0:	81 11       	cpse	r24, r1
    3ca2:	1e c0       	rjmp	.+60     	; 0x3ce0 <dir_register+0xe2>
    3ca4:	40 e2       	ldi	r20, 0x20	; 32
    3ca6:	50 e0       	ldi	r21, 0x00	; 0
    3ca8:	60 e0       	ldi	r22, 0x00	; 0
    3caa:	70 e0       	ldi	r23, 0x00	; 0
    3cac:	d8 01       	movw	r26, r16
    3cae:	52 96       	adiw	r26, 0x12	; 18
    3cb0:	8d 91       	ld	r24, X+
    3cb2:	9c 91       	ld	r25, X
    3cb4:	53 97       	sbiw	r26, 0x13	; 19
    3cb6:	0e 94 c1 0e 	call	0x1d82	; 0x1d82 <mem_set>
    3cba:	f8 01       	movw	r30, r16
    3cbc:	64 89       	ldd	r22, Z+20	; 0x14
    3cbe:	75 89       	ldd	r23, Z+21	; 0x15
    3cc0:	4b e0       	ldi	r20, 0x0B	; 11
    3cc2:	50 e0       	ldi	r21, 0x00	; 0
    3cc4:	82 89       	ldd	r24, Z+18	; 0x12
    3cc6:	93 89       	ldd	r25, Z+19	; 0x13
    3cc8:	0e 94 95 0e 	call	0x1d2a	; 0x1d2a <mem_cpy>
    3ccc:	d8 01       	movw	r26, r16
    3cce:	ed 91       	ld	r30, X+
    3cd0:	fc 91       	ld	r31, X
    3cd2:	81 e0       	ldi	r24, 0x01	; 1
    3cd4:	84 83       	std	Z+4, r24	; 0x04
    3cd6:	04 c0       	rjmp	.+8      	; 0x3ce0 <dir_register+0xe2>
    3cd8:	0f 2e       	mov	r0, r31
    3cda:	f7 e0       	ldi	r31, 0x07	; 7
    3cdc:	df 2e       	mov	r13, r31
    3cde:	f0 2d       	mov	r31, r0
    3ce0:	8d 2d       	mov	r24, r13
    3ce2:	0f 90       	pop	r0
    3ce4:	0f 90       	pop	r0
    3ce6:	df 91       	pop	r29
    3ce8:	cf 91       	pop	r28
    3cea:	1f 91       	pop	r17
    3cec:	0f 91       	pop	r16
    3cee:	ff 90       	pop	r15
    3cf0:	ef 90       	pop	r14
    3cf2:	df 90       	pop	r13
    3cf4:	08 95       	ret

00003cf6 <remove_chain>:
    3cf6:	ef 92       	push	r14
    3cf8:	ff 92       	push	r15
    3cfa:	0f 93       	push	r16
    3cfc:	1f 93       	push	r17
    3cfe:	cf 93       	push	r28
    3d00:	df 93       	push	r29
    3d02:	cd b7       	in	r28, 0x3d	; 61
    3d04:	de b7       	in	r29, 0x3e	; 62
    3d06:	28 97       	sbiw	r28, 0x08	; 8
    3d08:	cd bf       	out	0x3d, r28	; 61
    3d0a:	de bf       	out	0x3e, r29	; 62
    3d0c:	7c 01       	movw	r14, r24
    3d0e:	4d 83       	std	Y+5, r20	; 0x05
    3d10:	5e 83       	std	Y+6, r21	; 0x06
    3d12:	6f 83       	std	Y+7, r22	; 0x07
    3d14:	78 87       	std	Y+8, r23	; 0x08
    3d16:	8d 81       	ldd	r24, Y+5	; 0x05
    3d18:	9e 81       	ldd	r25, Y+6	; 0x06
    3d1a:	af 81       	ldd	r26, Y+7	; 0x07
    3d1c:	b8 85       	ldd	r27, Y+8	; 0x08
    3d1e:	02 97       	sbiw	r24, 0x02	; 2
    3d20:	a1 05       	cpc	r26, r1
    3d22:	b1 05       	cpc	r27, r1
    3d24:	08 f4       	brcc	.+2      	; 0x3d28 <remove_chain+0x32>
    3d26:	81 c0       	rjmp	.+258    	; 0x3e2a <remove_chain+0x134>
    3d28:	f7 01       	movw	r30, r14
    3d2a:	42 89       	ldd	r20, Z+18	; 0x12
    3d2c:	53 89       	ldd	r21, Z+19	; 0x13
    3d2e:	64 89       	ldd	r22, Z+20	; 0x14
    3d30:	75 89       	ldd	r23, Z+21	; 0x15
    3d32:	8d 81       	ldd	r24, Y+5	; 0x05
    3d34:	9e 81       	ldd	r25, Y+6	; 0x06
    3d36:	af 81       	ldd	r26, Y+7	; 0x07
    3d38:	b8 85       	ldd	r27, Y+8	; 0x08
    3d3a:	84 17       	cp	r24, r20
    3d3c:	95 07       	cpc	r25, r21
    3d3e:	a6 07       	cpc	r26, r22
    3d40:	b7 07       	cpc	r27, r23
    3d42:	08 f0       	brcs	.+2      	; 0x3d46 <remove_chain+0x50>
    3d44:	74 c0       	rjmp	.+232    	; 0x3e2e <remove_chain+0x138>
    3d46:	42 89       	ldd	r20, Z+18	; 0x12
    3d48:	53 89       	ldd	r21, Z+19	; 0x13
    3d4a:	64 89       	ldd	r22, Z+20	; 0x14
    3d4c:	75 89       	ldd	r23, Z+21	; 0x15
    3d4e:	8d 81       	ldd	r24, Y+5	; 0x05
    3d50:	9e 81       	ldd	r25, Y+6	; 0x06
    3d52:	af 81       	ldd	r26, Y+7	; 0x07
    3d54:	b8 85       	ldd	r27, Y+8	; 0x08
    3d56:	84 17       	cp	r24, r20
    3d58:	95 07       	cpc	r25, r21
    3d5a:	a6 07       	cpc	r26, r22
    3d5c:	b7 07       	cpc	r27, r23
    3d5e:	08 f0       	brcs	.+2      	; 0x3d62 <remove_chain+0x6c>
    3d60:	68 c0       	rjmp	.+208    	; 0x3e32 <remove_chain+0x13c>
    3d62:	4d 81       	ldd	r20, Y+5	; 0x05
    3d64:	5e 81       	ldd	r21, Y+6	; 0x06
    3d66:	6f 81       	ldd	r22, Y+7	; 0x07
    3d68:	78 85       	ldd	r23, Y+8	; 0x08
    3d6a:	c7 01       	movw	r24, r14
    3d6c:	0e 94 a7 15 	call	0x2b4e	; 0x2b4e <get_fat>
    3d70:	69 83       	std	Y+1, r22	; 0x01
    3d72:	7a 83       	std	Y+2, r23	; 0x02
    3d74:	8b 83       	std	Y+3, r24	; 0x03
    3d76:	9c 83       	std	Y+4, r25	; 0x04
    3d78:	49 81       	ldd	r20, Y+1	; 0x01
    3d7a:	5a 81       	ldd	r21, Y+2	; 0x02
    3d7c:	6b 81       	ldd	r22, Y+3	; 0x03
    3d7e:	7c 81       	ldd	r23, Y+4	; 0x04
    3d80:	45 2b       	or	r20, r21
    3d82:	46 2b       	or	r20, r22
    3d84:	47 2b       	or	r20, r23
    3d86:	09 f4       	brne	.+2      	; 0x3d8a <remove_chain+0x94>
    3d88:	56 c0       	rjmp	.+172    	; 0x3e36 <remove_chain+0x140>
    3d8a:	89 81       	ldd	r24, Y+1	; 0x01
    3d8c:	9a 81       	ldd	r25, Y+2	; 0x02
    3d8e:	ab 81       	ldd	r26, Y+3	; 0x03
    3d90:	bc 81       	ldd	r27, Y+4	; 0x04
    3d92:	01 97       	sbiw	r24, 0x01	; 1
    3d94:	a1 05       	cpc	r26, r1
    3d96:	b1 05       	cpc	r27, r1
    3d98:	09 f4       	brne	.+2      	; 0x3d9c <remove_chain+0xa6>
    3d9a:	4f c0       	rjmp	.+158    	; 0x3e3a <remove_chain+0x144>
    3d9c:	89 81       	ldd	r24, Y+1	; 0x01
    3d9e:	9a 81       	ldd	r25, Y+2	; 0x02
    3da0:	ab 81       	ldd	r26, Y+3	; 0x03
    3da2:	bc 81       	ldd	r27, Y+4	; 0x04
    3da4:	8f 3f       	cpi	r24, 0xFF	; 255
    3da6:	9f 4f       	sbci	r25, 0xFF	; 255
    3da8:	af 4f       	sbci	r26, 0xFF	; 255
    3daa:	bf 4f       	sbci	r27, 0xFF	; 255
    3dac:	09 f4       	brne	.+2      	; 0x3db0 <remove_chain+0xba>
    3dae:	47 c0       	rjmp	.+142    	; 0x3e3e <remove_chain+0x148>
    3db0:	4d 81       	ldd	r20, Y+5	; 0x05
    3db2:	5e 81       	ldd	r21, Y+6	; 0x06
    3db4:	6f 81       	ldd	r22, Y+7	; 0x07
    3db6:	78 85       	ldd	r23, Y+8	; 0x08
    3db8:	00 e0       	ldi	r16, 0x00	; 0
    3dba:	10 e0       	ldi	r17, 0x00	; 0
    3dbc:	98 01       	movw	r18, r16
    3dbe:	c7 01       	movw	r24, r14
    3dc0:	09 d9       	rcall	.-3566   	; 0x2fd4 <put_fat>
    3dc2:	81 11       	cpse	r24, r1
    3dc4:	3d c0       	rjmp	.+122    	; 0x3e40 <remove_chain+0x14a>
    3dc6:	f7 01       	movw	r30, r14
    3dc8:	46 85       	ldd	r20, Z+14	; 0x0e
    3dca:	57 85       	ldd	r21, Z+15	; 0x0f
    3dcc:	60 89       	ldd	r22, Z+16	; 0x10
    3dce:	71 89       	ldd	r23, Z+17	; 0x11
    3dd0:	4f 3f       	cpi	r20, 0xFF	; 255
    3dd2:	5f 4f       	sbci	r21, 0xFF	; 255
    3dd4:	6f 4f       	sbci	r22, 0xFF	; 255
    3dd6:	7f 4f       	sbci	r23, 0xFF	; 255
    3dd8:	81 f0       	breq	.+32     	; 0x3dfa <remove_chain+0x104>
    3dda:	f7 01       	movw	r30, r14
    3ddc:	46 85       	ldd	r20, Z+14	; 0x0e
    3dde:	57 85       	ldd	r21, Z+15	; 0x0f
    3de0:	60 89       	ldd	r22, Z+16	; 0x10
    3de2:	71 89       	ldd	r23, Z+17	; 0x11
    3de4:	4f 5f       	subi	r20, 0xFF	; 255
    3de6:	5f 4f       	sbci	r21, 0xFF	; 255
    3de8:	6f 4f       	sbci	r22, 0xFF	; 255
    3dea:	7f 4f       	sbci	r23, 0xFF	; 255
    3dec:	46 87       	std	Z+14, r20	; 0x0e
    3dee:	57 87       	std	Z+15, r21	; 0x0f
    3df0:	60 8b       	std	Z+16, r22	; 0x10
    3df2:	71 8b       	std	Z+17, r23	; 0x11
    3df4:	95 81       	ldd	r25, Z+5	; 0x05
    3df6:	91 60       	ori	r25, 0x01	; 1
    3df8:	95 83       	std	Z+5, r25	; 0x05
    3dfa:	49 81       	ldd	r20, Y+1	; 0x01
    3dfc:	5a 81       	ldd	r21, Y+2	; 0x02
    3dfe:	6b 81       	ldd	r22, Y+3	; 0x03
    3e00:	7c 81       	ldd	r23, Y+4	; 0x04
    3e02:	4d 83       	std	Y+5, r20	; 0x05
    3e04:	5e 83       	std	Y+6, r21	; 0x06
    3e06:	6f 83       	std	Y+7, r22	; 0x07
    3e08:	78 87       	std	Y+8, r23	; 0x08
    3e0a:	f7 01       	movw	r30, r14
    3e0c:	02 89       	ldd	r16, Z+18	; 0x12
    3e0e:	13 89       	ldd	r17, Z+19	; 0x13
    3e10:	24 89       	ldd	r18, Z+20	; 0x14
    3e12:	35 89       	ldd	r19, Z+21	; 0x15
    3e14:	4d 81       	ldd	r20, Y+5	; 0x05
    3e16:	5e 81       	ldd	r21, Y+6	; 0x06
    3e18:	6f 81       	ldd	r22, Y+7	; 0x07
    3e1a:	78 85       	ldd	r23, Y+8	; 0x08
    3e1c:	40 17       	cp	r20, r16
    3e1e:	51 07       	cpc	r21, r17
    3e20:	62 07       	cpc	r22, r18
    3e22:	73 07       	cpc	r23, r19
    3e24:	08 f4       	brcc	.+2      	; 0x3e28 <remove_chain+0x132>
    3e26:	9d cf       	rjmp	.-198    	; 0x3d62 <remove_chain+0x6c>
    3e28:	0b c0       	rjmp	.+22     	; 0x3e40 <remove_chain+0x14a>
    3e2a:	82 e0       	ldi	r24, 0x02	; 2
    3e2c:	09 c0       	rjmp	.+18     	; 0x3e40 <remove_chain+0x14a>
    3e2e:	82 e0       	ldi	r24, 0x02	; 2
    3e30:	07 c0       	rjmp	.+14     	; 0x3e40 <remove_chain+0x14a>
    3e32:	80 e0       	ldi	r24, 0x00	; 0
    3e34:	05 c0       	rjmp	.+10     	; 0x3e40 <remove_chain+0x14a>
    3e36:	80 e0       	ldi	r24, 0x00	; 0
    3e38:	03 c0       	rjmp	.+6      	; 0x3e40 <remove_chain+0x14a>
    3e3a:	82 e0       	ldi	r24, 0x02	; 2
    3e3c:	01 c0       	rjmp	.+2      	; 0x3e40 <remove_chain+0x14a>
    3e3e:	81 e0       	ldi	r24, 0x01	; 1
    3e40:	28 96       	adiw	r28, 0x08	; 8
    3e42:	cd bf       	out	0x3d, r28	; 61
    3e44:	de bf       	out	0x3e, r29	; 62
    3e46:	df 91       	pop	r29
    3e48:	cf 91       	pop	r28
    3e4a:	1f 91       	pop	r17
    3e4c:	0f 91       	pop	r16
    3e4e:	ff 90       	pop	r15
    3e50:	ef 90       	pop	r14
    3e52:	08 95       	ret

00003e54 <f_mount>:
    3e54:	cf 93       	push	r28
    3e56:	df 93       	push	r29
    3e58:	cd b7       	in	r28, 0x3d	; 61
    3e5a:	de b7       	in	r29, 0x3e	; 62
    3e5c:	27 97       	sbiw	r28, 0x07	; 7
    3e5e:	cd bf       	out	0x3d, r28	; 61
    3e60:	de bf       	out	0x3e, r29	; 62
    3e62:	8b 83       	std	Y+3, r24	; 0x03
    3e64:	9c 83       	std	Y+4, r25	; 0x04
    3e66:	6d 83       	std	Y+5, r22	; 0x05
    3e68:	7e 83       	std	Y+6, r23	; 0x06
    3e6a:	4f 83       	std	Y+7, r20	; 0x07
    3e6c:	69 83       	std	Y+1, r22	; 0x01
    3e6e:	7a 83       	std	Y+2, r23	; 0x02
    3e70:	ce 01       	movw	r24, r28
    3e72:	01 96       	adiw	r24, 0x01	; 1
    3e74:	0e 94 47 0f 	call	0x1e8e	; 0x1e8e <get_ldnumber>
    3e78:	99 23       	and	r25, r25
    3e7a:	3c f1       	brlt	.+78     	; 0x3eca <f_mount+0x76>
    3e7c:	fc 01       	movw	r30, r24
    3e7e:	ee 0f       	add	r30, r30
    3e80:	ff 1f       	adc	r31, r31
    3e82:	e4 58       	subi	r30, 0x84	; 132
    3e84:	fe 4d       	sbci	r31, 0xDE	; 222
    3e86:	01 90       	ld	r0, Z+
    3e88:	f0 81       	ld	r31, Z
    3e8a:	e0 2d       	mov	r30, r0
    3e8c:	30 97       	sbiw	r30, 0x00	; 0
    3e8e:	09 f0       	breq	.+2      	; 0x3e92 <f_mount+0x3e>
    3e90:	10 82       	st	Z, r1
    3e92:	eb 81       	ldd	r30, Y+3	; 0x03
    3e94:	fc 81       	ldd	r31, Y+4	; 0x04
    3e96:	30 97       	sbiw	r30, 0x00	; 0
    3e98:	f1 f0       	breq	.+60     	; 0x3ed6 <f_mount+0x82>
    3e9a:	10 82       	st	Z, r1
    3e9c:	2b 81       	ldd	r18, Y+3	; 0x03
    3e9e:	3c 81       	ldd	r19, Y+4	; 0x04
    3ea0:	fc 01       	movw	r30, r24
    3ea2:	ee 0f       	add	r30, r30
    3ea4:	ff 1f       	adc	r31, r31
    3ea6:	e4 58       	subi	r30, 0x84	; 132
    3ea8:	fe 4d       	sbci	r31, 0xDE	; 222
    3eaa:	20 83       	st	Z, r18
    3eac:	31 83       	std	Z+1, r19	; 0x01
    3eae:	23 2b       	or	r18, r19
    3eb0:	71 f0       	breq	.+28     	; 0x3ece <f_mount+0x7a>
    3eb2:	8f 81       	ldd	r24, Y+7	; 0x07
    3eb4:	81 30       	cpi	r24, 0x01	; 1
    3eb6:	69 f4       	brne	.+26     	; 0x3ed2 <f_mount+0x7e>
    3eb8:	40 e0       	ldi	r20, 0x00	; 0
    3eba:	be 01       	movw	r22, r28
    3ebc:	6b 5f       	subi	r22, 0xFB	; 251
    3ebe:	7f 4f       	sbci	r23, 0xFF	; 255
    3ec0:	ce 01       	movw	r24, r28
    3ec2:	03 96       	adiw	r24, 0x03	; 3
    3ec4:	0e 94 00 11 	call	0x2200	; 0x2200 <find_volume>
    3ec8:	0e c0       	rjmp	.+28     	; 0x3ee6 <f_mount+0x92>
    3eca:	8b e0       	ldi	r24, 0x0B	; 11
    3ecc:	0c c0       	rjmp	.+24     	; 0x3ee6 <f_mount+0x92>
    3ece:	80 e0       	ldi	r24, 0x00	; 0
    3ed0:	0a c0       	rjmp	.+20     	; 0x3ee6 <f_mount+0x92>
    3ed2:	80 e0       	ldi	r24, 0x00	; 0
    3ed4:	08 c0       	rjmp	.+16     	; 0x3ee6 <f_mount+0x92>
    3ed6:	fc 01       	movw	r30, r24
    3ed8:	ee 0f       	add	r30, r30
    3eda:	ff 1f       	adc	r31, r31
    3edc:	e4 58       	subi	r30, 0x84	; 132
    3ede:	fe 4d       	sbci	r31, 0xDE	; 222
    3ee0:	10 82       	st	Z, r1
    3ee2:	11 82       	std	Z+1, r1	; 0x01
    3ee4:	80 e0       	ldi	r24, 0x00	; 0
    3ee6:	27 96       	adiw	r28, 0x07	; 7
    3ee8:	cd bf       	out	0x3d, r28	; 61
    3eea:	de bf       	out	0x3e, r29	; 62
    3eec:	df 91       	pop	r29
    3eee:	cf 91       	pop	r28
    3ef0:	08 95       	ret

00003ef2 <f_open>:
    3ef2:	ef 92       	push	r14
    3ef4:	ff 92       	push	r15
    3ef6:	0f 93       	push	r16
    3ef8:	1f 93       	push	r17
    3efa:	cf 93       	push	r28
    3efc:	df 93       	push	r29
    3efe:	cd b7       	in	r28, 0x3d	; 61
    3f00:	de b7       	in	r29, 0x3e	; 62
    3f02:	ad 97       	sbiw	r28, 0x2d	; 45
    3f04:	cd bf       	out	0x3d, r28	; 61
    3f06:	de bf       	out	0x3e, r29	; 62
    3f08:	8c 01       	movw	r16, r24
    3f0a:	6b a7       	std	Y+43, r22	; 0x2b
    3f0c:	7c a7       	std	Y+44, r23	; 0x2c
    3f0e:	4d a7       	std	Y+45, r20	; 0x2d
    3f10:	00 97       	sbiw	r24, 0x00	; 0
    3f12:	09 f4       	brne	.+2      	; 0x3f16 <f_open+0x24>
    3f14:	0e c1       	rjmp	.+540    	; 0x4132 <__stack+0x133>
    3f16:	dc 01       	movw	r26, r24
    3f18:	1d 92       	st	X+, r1
    3f1a:	1c 92       	st	X, r1
    3f1c:	8d a5       	ldd	r24, Y+45	; 0x2d
    3f1e:	8f 71       	andi	r24, 0x1F	; 31
    3f20:	8d a7       	std	Y+45, r24	; 0x2d
    3f22:	4d a5       	ldd	r20, Y+45	; 0x2d
    3f24:	4e 7f       	andi	r20, 0xFE	; 254
    3f26:	be 01       	movw	r22, r28
    3f28:	65 5d       	subi	r22, 0xD5	; 213
    3f2a:	7f 4f       	sbci	r23, 0xFF	; 255
    3f2c:	ce 01       	movw	r24, r28
    3f2e:	01 96       	adiw	r24, 0x01	; 1
    3f30:	0e 94 00 11 	call	0x2200	; 0x2200 <find_volume>
    3f34:	81 11       	cpse	r24, r1
    3f36:	15 c1       	rjmp	.+554    	; 0x4162 <__stack+0x163>
    3f38:	ce 01       	movw	r24, r28
    3f3a:	47 96       	adiw	r24, 0x17	; 23
    3f3c:	8d 8b       	std	Y+21, r24	; 0x15
    3f3e:	9e 8b       	std	Y+22, r25	; 0x16
    3f40:	6b a5       	ldd	r22, Y+43	; 0x2b
    3f42:	7c a5       	ldd	r23, Y+44	; 0x2c
    3f44:	46 97       	sbiw	r24, 0x16	; 22
    3f46:	82 dc       	rcall	.-1788   	; 0x384c <follow_path>
    3f48:	eb 88       	ldd	r14, Y+19	; 0x13
    3f4a:	fc 88       	ldd	r15, Y+20	; 0x14
    3f4c:	81 11       	cpse	r24, r1
    3f4e:	f9 c0       	rjmp	.+498    	; 0x4142 <__stack+0x143>
    3f50:	e1 14       	cp	r14, r1
    3f52:	f1 04       	cpc	r15, r1
    3f54:	09 f0       	breq	.+2      	; 0x3f58 <f_open+0x66>
    3f56:	ef c0       	rjmp	.+478    	; 0x4136 <__stack+0x137>
    3f58:	f3 c0       	rjmp	.+486    	; 0x4140 <__stack+0x141>
    3f5a:	88 23       	and	r24, r24
    3f5c:	71 f0       	breq	.+28     	; 0x3f7a <f_open+0x88>
    3f5e:	84 30       	cpi	r24, 0x04	; 4
    3f60:	09 f0       	breq	.+2      	; 0x3f64 <f_open+0x72>
    3f62:	fc c0       	rjmp	.+504    	; 0x415c <__stack+0x15d>
    3f64:	ce 01       	movw	r24, r28
    3f66:	01 96       	adiw	r24, 0x01	; 1
    3f68:	4a de       	rcall	.-876    	; 0x3bfe <dir_register>
    3f6a:	9d a5       	ldd	r25, Y+45	; 0x2d
    3f6c:	98 60       	ori	r25, 0x08	; 8
    3f6e:	9d a7       	std	Y+45, r25	; 0x2d
    3f70:	eb 88       	ldd	r14, Y+19	; 0x13
    3f72:	fc 88       	ldd	r15, Y+20	; 0x14
    3f74:	88 23       	and	r24, r24
    3f76:	49 f0       	breq	.+18     	; 0x3f8a <f_open+0x98>
    3f78:	f4 c0       	rjmp	.+488    	; 0x4162 <__stack+0x163>
    3f7a:	f7 01       	movw	r30, r14
    3f7c:	83 85       	ldd	r24, Z+11	; 0x0b
    3f7e:	81 71       	andi	r24, 0x11	; 17
    3f80:	09 f0       	breq	.+2      	; 0x3f84 <f_open+0x92>
    3f82:	e4 c0       	rjmp	.+456    	; 0x414c <__stack+0x14d>
    3f84:	8d a5       	ldd	r24, Y+45	; 0x2d
    3f86:	82 fd       	sbrc	r24, 2
    3f88:	e3 c0       	rjmp	.+454    	; 0x4150 <__stack+0x151>
    3f8a:	8d a5       	ldd	r24, Y+45	; 0x2d
    3f8c:	83 ff       	sbrs	r24, 3
    3f8e:	79 c0       	rjmp	.+242    	; 0x4082 <__stack+0x83>
    3f90:	0e 94 6f 35 	call	0x6ade	; 0x6ade <get_fattime>
    3f94:	6f a3       	std	Y+39, r22	; 0x27
    3f96:	78 a7       	std	Y+40, r23	; 0x28
    3f98:	89 a7       	std	Y+41, r24	; 0x29
    3f9a:	9a a7       	std	Y+42, r25	; 0x2a
    3f9c:	8f a1       	ldd	r24, Y+39	; 0x27
    3f9e:	98 a5       	ldd	r25, Y+40	; 0x28
    3fa0:	a9 a5       	ldd	r26, Y+41	; 0x29
    3fa2:	ba a5       	ldd	r27, Y+42	; 0x2a
    3fa4:	f7 01       	movw	r30, r14
    3fa6:	86 87       	std	Z+14, r24	; 0x0e
    3fa8:	8f a1       	ldd	r24, Y+39	; 0x27
    3faa:	98 a5       	ldd	r25, Y+40	; 0x28
    3fac:	a9 a5       	ldd	r26, Y+41	; 0x29
    3fae:	ba a5       	ldd	r27, Y+42	; 0x2a
    3fb0:	89 2f       	mov	r24, r25
    3fb2:	99 27       	eor	r25, r25
    3fb4:	87 87       	std	Z+15, r24	; 0x0f
    3fb6:	8f a1       	ldd	r24, Y+39	; 0x27
    3fb8:	98 a5       	ldd	r25, Y+40	; 0x28
    3fba:	a9 a5       	ldd	r26, Y+41	; 0x29
    3fbc:	ba a5       	ldd	r27, Y+42	; 0x2a
    3fbe:	cd 01       	movw	r24, r26
    3fc0:	aa 27       	eor	r26, r26
    3fc2:	bb 27       	eor	r27, r27
    3fc4:	80 8b       	std	Z+16, r24	; 0x10
    3fc6:	8f a1       	ldd	r24, Y+39	; 0x27
    3fc8:	98 a5       	ldd	r25, Y+40	; 0x28
    3fca:	a9 a5       	ldd	r26, Y+41	; 0x29
    3fcc:	ba a5       	ldd	r27, Y+42	; 0x2a
    3fce:	8b 2f       	mov	r24, r27
    3fd0:	99 27       	eor	r25, r25
    3fd2:	aa 27       	eor	r26, r26
    3fd4:	bb 27       	eor	r27, r27
    3fd6:	81 8b       	std	Z+17, r24	; 0x11
    3fd8:	13 86       	std	Z+11, r1	; 0x0b
    3fda:	14 8e       	std	Z+28, r1	; 0x1c
    3fdc:	15 8e       	std	Z+29, r1	; 0x1d
    3fde:	16 8e       	std	Z+30, r1	; 0x1e
    3fe0:	17 8e       	std	Z+31, r1	; 0x1f
    3fe2:	b7 01       	movw	r22, r14
    3fe4:	89 81       	ldd	r24, Y+1	; 0x01
    3fe6:	9a 81       	ldd	r25, Y+2	; 0x02
    3fe8:	0e 94 e7 0e 	call	0x1dce	; 0x1dce <ld_clust>
    3fec:	6b a3       	std	Y+35, r22	; 0x23
    3fee:	7c a3       	std	Y+36, r23	; 0x24
    3ff0:	8d a3       	std	Y+37, r24	; 0x25
    3ff2:	9e a3       	std	Y+38, r25	; 0x26
    3ff4:	40 e0       	ldi	r20, 0x00	; 0
    3ff6:	50 e0       	ldi	r21, 0x00	; 0
    3ff8:	ba 01       	movw	r22, r20
    3ffa:	c7 01       	movw	r24, r14
    3ffc:	0e 94 1b 0f 	call	0x1e36	; 0x1e36 <st_clust>
    4000:	e9 81       	ldd	r30, Y+1	; 0x01
    4002:	fa 81       	ldd	r31, Y+2	; 0x02
    4004:	81 e0       	ldi	r24, 0x01	; 1
    4006:	84 83       	std	Z+4, r24	; 0x04
    4008:	4b a1       	ldd	r20, Y+35	; 0x23
    400a:	5c a1       	ldd	r21, Y+36	; 0x24
    400c:	6d a1       	ldd	r22, Y+37	; 0x25
    400e:	7e a1       	ldd	r23, Y+38	; 0x26
    4010:	45 2b       	or	r20, r21
    4012:	46 2b       	or	r20, r22
    4014:	47 2b       	or	r20, r23
    4016:	a9 f1       	breq	.+106    	; 0x4082 <__stack+0x83>
    4018:	42 a5       	ldd	r20, Z+42	; 0x2a
    401a:	53 a5       	ldd	r21, Z+43	; 0x2b
    401c:	64 a5       	ldd	r22, Z+44	; 0x2c
    401e:	75 a5       	ldd	r23, Z+45	; 0x2d
    4020:	4f a3       	std	Y+39, r20	; 0x27
    4022:	58 a7       	std	Y+40, r21	; 0x28
    4024:	69 a7       	std	Y+41, r22	; 0x29
    4026:	7a a7       	std	Y+42, r23	; 0x2a
    4028:	4b a1       	ldd	r20, Y+35	; 0x23
    402a:	5c a1       	ldd	r21, Y+36	; 0x24
    402c:	6d a1       	ldd	r22, Y+37	; 0x25
    402e:	7e a1       	ldd	r23, Y+38	; 0x26
    4030:	cf 01       	movw	r24, r30
    4032:	61 de       	rcall	.-830    	; 0x3cf6 <remove_chain>
    4034:	81 11       	cpse	r24, r1
    4036:	95 c0       	rjmp	.+298    	; 0x4162 <__stack+0x163>
    4038:	89 81       	ldd	r24, Y+1	; 0x01
    403a:	9a 81       	ldd	r25, Y+2	; 0x02
    403c:	4b a1       	ldd	r20, Y+35	; 0x23
    403e:	5c a1       	ldd	r21, Y+36	; 0x24
    4040:	6d a1       	ldd	r22, Y+37	; 0x25
    4042:	7e a1       	ldd	r23, Y+38	; 0x26
    4044:	41 50       	subi	r20, 0x01	; 1
    4046:	51 09       	sbc	r21, r1
    4048:	61 09       	sbc	r22, r1
    404a:	71 09       	sbc	r23, r1
    404c:	dc 01       	movw	r26, r24
    404e:	1a 96       	adiw	r26, 0x0a	; 10
    4050:	4d 93       	st	X+, r20
    4052:	5d 93       	st	X+, r21
    4054:	6d 93       	st	X+, r22
    4056:	7c 93       	st	X, r23
    4058:	1d 97       	sbiw	r26, 0x0d	; 13
    405a:	4f a1       	ldd	r20, Y+39	; 0x27
    405c:	58 a5       	ldd	r21, Y+40	; 0x28
    405e:	69 a5       	ldd	r22, Y+41	; 0x29
    4060:	7a a5       	ldd	r23, Y+42	; 0x2a
    4062:	0e 94 17 10 	call	0x202e	; 0x202e <move_window>
    4066:	0b c0       	rjmp	.+22     	; 0x407e <__stack+0x7f>
    4068:	f7 01       	movw	r30, r14
    406a:	83 85       	ldd	r24, Z+11	; 0x0b
    406c:	84 fd       	sbrc	r24, 4
    406e:	72 c0       	rjmp	.+228    	; 0x4154 <__stack+0x155>
    4070:	8d a5       	ldd	r24, Y+45	; 0x2d
    4072:	81 ff       	sbrs	r24, 1
    4074:	06 c0       	rjmp	.+12     	; 0x4082 <__stack+0x83>
    4076:	83 85       	ldd	r24, Z+11	; 0x0b
    4078:	80 fd       	sbrc	r24, 0
    407a:	6e c0       	rjmp	.+220    	; 0x4158 <__stack+0x159>
    407c:	02 c0       	rjmp	.+4      	; 0x4082 <__stack+0x83>
    407e:	81 11       	cpse	r24, r1
    4080:	70 c0       	rjmp	.+224    	; 0x4162 <__stack+0x163>
    4082:	8d a5       	ldd	r24, Y+45	; 0x2d
    4084:	83 ff       	sbrs	r24, 3
    4086:	03 c0       	rjmp	.+6      	; 0x408e <__stack+0x8f>
    4088:	8d a5       	ldd	r24, Y+45	; 0x2d
    408a:	80 62       	ori	r24, 0x20	; 32
    408c:	8d a7       	std	Y+45, r24	; 0x2d
    408e:	89 81       	ldd	r24, Y+1	; 0x01
    4090:	9a 81       	ldd	r25, Y+2	; 0x02
    4092:	dc 01       	movw	r26, r24
    4094:	9a 96       	adiw	r26, 0x2a	; 42
    4096:	4d 91       	ld	r20, X+
    4098:	5d 91       	ld	r21, X+
    409a:	6d 91       	ld	r22, X+
    409c:	7c 91       	ld	r23, X
    409e:	9d 97       	sbiw	r26, 0x2d	; 45
    40a0:	f8 01       	movw	r30, r16
    40a2:	42 8f       	std	Z+26, r20	; 0x1a
    40a4:	53 8f       	std	Z+27, r21	; 0x1b
    40a6:	64 8f       	std	Z+28, r22	; 0x1c
    40a8:	75 8f       	std	Z+29, r23	; 0x1d
    40aa:	e6 8e       	std	Z+30, r14	; 0x1e
    40ac:	f7 8e       	std	Z+31, r15	; 0x1f
    40ae:	2d a5       	ldd	r18, Y+45	; 0x2d
    40b0:	24 83       	std	Z+4, r18	; 0x04
    40b2:	15 82       	std	Z+5, r1	; 0x05
    40b4:	b7 01       	movw	r22, r14
    40b6:	0e 94 e7 0e 	call	0x1dce	; 0x1dce <ld_clust>
    40ba:	d8 01       	movw	r26, r16
    40bc:	1e 96       	adiw	r26, 0x0e	; 14
    40be:	6d 93       	st	X+, r22
    40c0:	7d 93       	st	X+, r23
    40c2:	8d 93       	st	X+, r24
    40c4:	9c 93       	st	X, r25
    40c6:	51 97       	sbiw	r26, 0x11	; 17
    40c8:	f7 01       	movw	r30, r14
    40ca:	27 8d       	ldd	r18, Z+31	; 0x1f
    40cc:	46 8d       	ldd	r20, Z+30	; 0x1e
    40ce:	85 8d       	ldd	r24, Z+29	; 0x1d
    40d0:	94 8d       	ldd	r25, Z+28	; 0x1c
    40d2:	50 e0       	ldi	r21, 0x00	; 0
    40d4:	60 e0       	ldi	r22, 0x00	; 0
    40d6:	70 e0       	ldi	r23, 0x00	; 0
    40d8:	ba 01       	movw	r22, r20
    40da:	55 27       	eor	r21, r21
    40dc:	44 27       	eor	r20, r20
    40de:	72 2b       	or	r23, r18
    40e0:	49 2b       	or	r20, r25
    40e2:	90 e0       	ldi	r25, 0x00	; 0
    40e4:	98 2f       	mov	r25, r24
    40e6:	88 27       	eor	r24, r24
    40e8:	a0 e0       	ldi	r26, 0x00	; 0
    40ea:	b0 e0       	ldi	r27, 0x00	; 0
    40ec:	48 2b       	or	r20, r24
    40ee:	59 2b       	or	r21, r25
    40f0:	6a 2b       	or	r22, r26
    40f2:	7b 2b       	or	r23, r27
    40f4:	d8 01       	movw	r26, r16
    40f6:	1a 96       	adiw	r26, 0x0a	; 10
    40f8:	4d 93       	st	X+, r20
    40fa:	5d 93       	st	X+, r21
    40fc:	6d 93       	st	X+, r22
    40fe:	7c 93       	st	X, r23
    4100:	1d 97       	sbiw	r26, 0x0d	; 13
    4102:	f8 01       	movw	r30, r16
    4104:	16 82       	std	Z+6, r1	; 0x06
    4106:	17 82       	std	Z+7, r1	; 0x07
    4108:	10 86       	std	Z+8, r1	; 0x08
    410a:	11 86       	std	Z+9, r1	; 0x09
    410c:	56 96       	adiw	r26, 0x16	; 22
    410e:	1d 92       	st	X+, r1
    4110:	1d 92       	st	X+, r1
    4112:	1d 92       	st	X+, r1
    4114:	1c 92       	st	X, r1
    4116:	59 97       	sbiw	r26, 0x19	; 25
    4118:	e9 81       	ldd	r30, Y+1	; 0x01
    411a:	fa 81       	ldd	r31, Y+2	; 0x02
    411c:	ed 93       	st	X+, r30
    411e:	fc 93       	st	X, r31
    4120:	11 97       	sbiw	r26, 0x01	; 1
    4122:	86 81       	ldd	r24, Z+6	; 0x06
    4124:	97 81       	ldd	r25, Z+7	; 0x07
    4126:	12 96       	adiw	r26, 0x02	; 2
    4128:	8d 93       	st	X+, r24
    412a:	9c 93       	st	X, r25
    412c:	13 97       	sbiw	r26, 0x03	; 3
    412e:	80 e0       	ldi	r24, 0x00	; 0
    4130:	18 c0       	rjmp	.+48     	; 0x4162 <__stack+0x163>
    4132:	89 e0       	ldi	r24, 0x09	; 9
    4134:	16 c0       	rjmp	.+44     	; 0x4162 <__stack+0x163>
    4136:	8d a5       	ldd	r24, Y+45	; 0x2d
    4138:	8c 71       	andi	r24, 0x1C	; 28
    413a:	09 f0       	breq	.+2      	; 0x413e <__stack+0x13f>
    413c:	1e cf       	rjmp	.-452    	; 0x3f7a <f_open+0x88>
    413e:	94 cf       	rjmp	.-216    	; 0x4068 <__stack+0x69>
    4140:	86 e0       	ldi	r24, 0x06	; 6
    4142:	9d a5       	ldd	r25, Y+45	; 0x2d
    4144:	9c 71       	andi	r25, 0x1C	; 28
    4146:	09 f0       	breq	.+2      	; 0x414a <__stack+0x14b>
    4148:	08 cf       	rjmp	.-496    	; 0x3f5a <f_open+0x68>
    414a:	99 cf       	rjmp	.-206    	; 0x407e <__stack+0x7f>
    414c:	87 e0       	ldi	r24, 0x07	; 7
    414e:	09 c0       	rjmp	.+18     	; 0x4162 <__stack+0x163>
    4150:	88 e0       	ldi	r24, 0x08	; 8
    4152:	07 c0       	rjmp	.+14     	; 0x4162 <__stack+0x163>
    4154:	84 e0       	ldi	r24, 0x04	; 4
    4156:	05 c0       	rjmp	.+10     	; 0x4162 <__stack+0x163>
    4158:	87 e0       	ldi	r24, 0x07	; 7
    415a:	03 c0       	rjmp	.+6      	; 0x4162 <__stack+0x163>
    415c:	9d a5       	ldd	r25, Y+45	; 0x2d
    415e:	98 60       	ori	r25, 0x08	; 8
    4160:	9d a7       	std	Y+45, r25	; 0x2d
    4162:	ad 96       	adiw	r28, 0x2d	; 45
    4164:	cd bf       	out	0x3d, r28	; 61
    4166:	de bf       	out	0x3e, r29	; 62
    4168:	df 91       	pop	r29
    416a:	cf 91       	pop	r28
    416c:	1f 91       	pop	r17
    416e:	0f 91       	pop	r16
    4170:	ff 90       	pop	r15
    4172:	ef 90       	pop	r14
    4174:	08 95       	ret

00004176 <f_write>:
    4176:	6f 92       	push	r6
    4178:	7f 92       	push	r7
    417a:	8f 92       	push	r8
    417c:	9f 92       	push	r9
    417e:	af 92       	push	r10
    4180:	bf 92       	push	r11
    4182:	cf 92       	push	r12
    4184:	df 92       	push	r13
    4186:	ef 92       	push	r14
    4188:	ff 92       	push	r15
    418a:	0f 93       	push	r16
    418c:	1f 93       	push	r17
    418e:	cf 93       	push	r28
    4190:	df 93       	push	r29
    4192:	cd b7       	in	r28, 0x3d	; 61
    4194:	de b7       	in	r29, 0x3e	; 62
    4196:	2f 97       	sbiw	r28, 0x0f	; 15
    4198:	cd bf       	out	0x3d, r28	; 61
    419a:	de bf       	out	0x3e, r29	; 62
    419c:	7c 01       	movw	r14, r24
    419e:	5b 01       	movw	r10, r22
    41a0:	4e 87       	std	Y+14, r20	; 0x0e
    41a2:	5f 87       	std	Y+15, r21	; 0x0f
    41a4:	69 01       	movw	r12, r18
    41a6:	d9 01       	movw	r26, r18
    41a8:	1d 92       	st	X+, r1
    41aa:	1c 92       	st	X, r1
    41ac:	0e 94 db 10 	call	0x21b6	; 0x21b6 <validate>
    41b0:	81 11       	cpse	r24, r1
    41b2:	24 c2       	rjmp	.+1096   	; 0x45fc <f_write+0x486>
    41b4:	f7 01       	movw	r30, r14
    41b6:	85 81       	ldd	r24, Z+5	; 0x05
    41b8:	88 23       	and	r24, r24
    41ba:	11 f0       	breq	.+4      	; 0x41c0 <f_write+0x4a>
    41bc:	85 81       	ldd	r24, Z+5	; 0x05
    41be:	1e c2       	rjmp	.+1084   	; 0x45fc <f_write+0x486>
    41c0:	84 81       	ldd	r24, Z+4	; 0x04
    41c2:	81 ff       	sbrs	r24, 1
    41c4:	1a c2       	rjmp	.+1076   	; 0x45fa <f_write+0x484>
    41c6:	46 81       	ldd	r20, Z+6	; 0x06
    41c8:	57 81       	ldd	r21, Z+7	; 0x07
    41ca:	60 85       	ldd	r22, Z+8	; 0x08
    41cc:	71 85       	ldd	r23, Z+9	; 0x09
    41ce:	2e 85       	ldd	r18, Y+14	; 0x0e
    41d0:	3f 85       	ldd	r19, Y+15	; 0x0f
    41d2:	86 81       	ldd	r24, Z+6	; 0x06
    41d4:	97 81       	ldd	r25, Z+7	; 0x07
    41d6:	a0 85       	ldd	r26, Z+8	; 0x08
    41d8:	b1 85       	ldd	r27, Z+9	; 0x09
    41da:	42 0f       	add	r20, r18
    41dc:	53 1f       	adc	r21, r19
    41de:	61 1d       	adc	r22, r1
    41e0:	71 1d       	adc	r23, r1
    41e2:	48 17       	cp	r20, r24
    41e4:	59 07       	cpc	r21, r25
    41e6:	6a 07       	cpc	r22, r26
    41e8:	7b 07       	cpc	r23, r27
    41ea:	10 f4       	brcc	.+4      	; 0x41f0 <f_write+0x7a>
    41ec:	1e 86       	std	Y+14, r1	; 0x0e
    41ee:	1f 86       	std	Y+15, r1	; 0x0f
    41f0:	8e 85       	ldd	r24, Y+14	; 0x0e
    41f2:	9f 85       	ldd	r25, Y+15	; 0x0f
    41f4:	89 2b       	or	r24, r25
    41f6:	09 f4       	brne	.+2      	; 0x41fa <f_write+0x84>
    41f8:	e1 c1       	rjmp	.+962    	; 0x45bc <f_write+0x446>
    41fa:	81 2c       	mov	r8, r1
    41fc:	68 94       	set
    41fe:	99 24       	eor	r9, r9
    4200:	91 f8       	bld	r9, 1
    4202:	37 01       	movw	r6, r14
    4204:	b0 e2       	ldi	r27, 0x20	; 32
    4206:	6b 0e       	add	r6, r27
    4208:	71 1c       	adc	r7, r1
    420a:	f7 01       	movw	r30, r14
    420c:	86 81       	ldd	r24, Z+6	; 0x06
    420e:	97 81       	ldd	r25, Z+7	; 0x07
    4210:	a0 85       	ldd	r26, Z+8	; 0x08
    4212:	b1 85       	ldd	r27, Z+9	; 0x09
    4214:	91 70       	andi	r25, 0x01	; 1
    4216:	aa 27       	eor	r26, r26
    4218:	bb 27       	eor	r27, r27
    421a:	89 2b       	or	r24, r25
    421c:	8a 2b       	or	r24, r26
    421e:	8b 2b       	or	r24, r27
    4220:	09 f0       	breq	.+2      	; 0x4224 <f_write+0xae>
    4222:	75 c1       	rjmp	.+746    	; 0x450e <f_write+0x398>
    4224:	46 81       	ldd	r20, Z+6	; 0x06
    4226:	57 81       	ldd	r21, Z+7	; 0x07
    4228:	60 85       	ldd	r22, Z+8	; 0x08
    422a:	71 85       	ldd	r23, Z+9	; 0x09
    422c:	01 90       	ld	r0, Z+
    422e:	f0 81       	ld	r31, Z
    4230:	e0 2d       	mov	r30, r0
    4232:	82 81       	ldd	r24, Z+2	; 0x02
    4234:	03 2e       	mov	r0, r19
    4236:	39 e0       	ldi	r19, 0x09	; 9
    4238:	76 95       	lsr	r23
    423a:	67 95       	ror	r22
    423c:	57 95       	ror	r21
    423e:	47 95       	ror	r20
    4240:	3a 95       	dec	r19
    4242:	d1 f7       	brne	.-12     	; 0x4238 <f_write+0xc2>
    4244:	30 2d       	mov	r19, r0
    4246:	81 50       	subi	r24, 0x01	; 1
    4248:	48 23       	and	r20, r24
    424a:	4d 87       	std	Y+13, r20	; 0x0d
    424c:	8d 85       	ldd	r24, Y+13	; 0x0d
    424e:	81 11       	cpse	r24, r1
    4250:	70 c0       	rjmp	.+224    	; 0x4332 <f_write+0x1bc>
    4252:	d7 01       	movw	r26, r14
    4254:	16 96       	adiw	r26, 0x06	; 6
    4256:	4d 91       	ld	r20, X+
    4258:	5d 91       	ld	r21, X+
    425a:	6d 91       	ld	r22, X+
    425c:	7c 91       	ld	r23, X
    425e:	19 97       	sbiw	r26, 0x09	; 9
    4260:	45 2b       	or	r20, r21
    4262:	46 2b       	or	r20, r22
    4264:	47 2b       	or	r20, r23
    4266:	e1 f4       	brne	.+56     	; 0x42a0 <f_write+0x12a>
    4268:	1e 96       	adiw	r26, 0x0e	; 14
    426a:	4d 91       	ld	r20, X+
    426c:	5d 91       	ld	r21, X+
    426e:	6d 91       	ld	r22, X+
    4270:	7c 91       	ld	r23, X
    4272:	51 97       	sbiw	r26, 0x11	; 17
    4274:	49 83       	std	Y+1, r20	; 0x01
    4276:	5a 83       	std	Y+2, r21	; 0x02
    4278:	6b 83       	std	Y+3, r22	; 0x03
    427a:	7c 83       	std	Y+4, r23	; 0x04
    427c:	49 81       	ldd	r20, Y+1	; 0x01
    427e:	5a 81       	ldd	r21, Y+2	; 0x02
    4280:	6b 81       	ldd	r22, Y+3	; 0x03
    4282:	7c 81       	ldd	r23, Y+4	; 0x04
    4284:	45 2b       	or	r20, r21
    4286:	46 2b       	or	r20, r22
    4288:	47 2b       	or	r20, r23
    428a:	b9 f4       	brne	.+46     	; 0x42ba <f_write+0x144>
    428c:	40 e0       	ldi	r20, 0x00	; 0
    428e:	50 e0       	ldi	r21, 0x00	; 0
    4290:	ba 01       	movw	r22, r20
    4292:	cf 01       	movw	r24, r30
    4294:	18 d8       	rcall	.-4048   	; 0x32c6 <create_chain>
    4296:	69 83       	std	Y+1, r22	; 0x01
    4298:	7a 83       	std	Y+2, r23	; 0x02
    429a:	8b 83       	std	Y+3, r24	; 0x03
    429c:	9c 83       	std	Y+4, r25	; 0x04
    429e:	0d c0       	rjmp	.+26     	; 0x42ba <f_write+0x144>
    42a0:	d7 01       	movw	r26, r14
    42a2:	52 96       	adiw	r26, 0x12	; 18
    42a4:	4d 91       	ld	r20, X+
    42a6:	5d 91       	ld	r21, X+
    42a8:	6d 91       	ld	r22, X+
    42aa:	7c 91       	ld	r23, X
    42ac:	55 97       	sbiw	r26, 0x15	; 21
    42ae:	cf 01       	movw	r24, r30
    42b0:	0a d8       	rcall	.-4076   	; 0x32c6 <create_chain>
    42b2:	69 83       	std	Y+1, r22	; 0x01
    42b4:	7a 83       	std	Y+2, r23	; 0x02
    42b6:	8b 83       	std	Y+3, r24	; 0x03
    42b8:	9c 83       	std	Y+4, r25	; 0x04
    42ba:	89 81       	ldd	r24, Y+1	; 0x01
    42bc:	9a 81       	ldd	r25, Y+2	; 0x02
    42be:	ab 81       	ldd	r26, Y+3	; 0x03
    42c0:	bc 81       	ldd	r27, Y+4	; 0x04
    42c2:	89 2b       	or	r24, r25
    42c4:	8a 2b       	or	r24, r26
    42c6:	8b 2b       	or	r24, r27
    42c8:	09 f4       	brne	.+2      	; 0x42cc <f_write+0x156>
    42ca:	78 c1       	rjmp	.+752    	; 0x45bc <f_write+0x446>
    42cc:	89 81       	ldd	r24, Y+1	; 0x01
    42ce:	9a 81       	ldd	r25, Y+2	; 0x02
    42d0:	ab 81       	ldd	r26, Y+3	; 0x03
    42d2:	bc 81       	ldd	r27, Y+4	; 0x04
    42d4:	01 97       	sbiw	r24, 0x01	; 1
    42d6:	a1 05       	cpc	r26, r1
    42d8:	b1 05       	cpc	r27, r1
    42da:	21 f4       	brne	.+8      	; 0x42e4 <f_write+0x16e>
    42dc:	82 e0       	ldi	r24, 0x02	; 2
    42de:	f7 01       	movw	r30, r14
    42e0:	85 83       	std	Z+5, r24	; 0x05
    42e2:	8c c1       	rjmp	.+792    	; 0x45fc <f_write+0x486>
    42e4:	89 81       	ldd	r24, Y+1	; 0x01
    42e6:	9a 81       	ldd	r25, Y+2	; 0x02
    42e8:	ab 81       	ldd	r26, Y+3	; 0x03
    42ea:	bc 81       	ldd	r27, Y+4	; 0x04
    42ec:	8f 3f       	cpi	r24, 0xFF	; 255
    42ee:	9f 4f       	sbci	r25, 0xFF	; 255
    42f0:	af 4f       	sbci	r26, 0xFF	; 255
    42f2:	bf 4f       	sbci	r27, 0xFF	; 255
    42f4:	29 f4       	brne	.+10     	; 0x4300 <f_write+0x18a>
    42f6:	81 e0       	ldi	r24, 0x01	; 1
    42f8:	d7 01       	movw	r26, r14
    42fa:	15 96       	adiw	r26, 0x05	; 5
    42fc:	8c 93       	st	X, r24
    42fe:	7e c1       	rjmp	.+764    	; 0x45fc <f_write+0x486>
    4300:	89 81       	ldd	r24, Y+1	; 0x01
    4302:	9a 81       	ldd	r25, Y+2	; 0x02
    4304:	ab 81       	ldd	r26, Y+3	; 0x03
    4306:	bc 81       	ldd	r27, Y+4	; 0x04
    4308:	f7 01       	movw	r30, r14
    430a:	82 8b       	std	Z+18, r24	; 0x12
    430c:	93 8b       	std	Z+19, r25	; 0x13
    430e:	a4 8b       	std	Z+20, r26	; 0x14
    4310:	b5 8b       	std	Z+21, r27	; 0x15
    4312:	86 85       	ldd	r24, Z+14	; 0x0e
    4314:	97 85       	ldd	r25, Z+15	; 0x0f
    4316:	a0 89       	ldd	r26, Z+16	; 0x10
    4318:	b1 89       	ldd	r27, Z+17	; 0x11
    431a:	89 2b       	or	r24, r25
    431c:	8a 2b       	or	r24, r26
    431e:	8b 2b       	or	r24, r27
    4320:	41 f4       	brne	.+16     	; 0x4332 <f_write+0x1bc>
    4322:	89 81       	ldd	r24, Y+1	; 0x01
    4324:	9a 81       	ldd	r25, Y+2	; 0x02
    4326:	ab 81       	ldd	r26, Y+3	; 0x03
    4328:	bc 81       	ldd	r27, Y+4	; 0x04
    432a:	86 87       	std	Z+14, r24	; 0x0e
    432c:	97 87       	std	Z+15, r25	; 0x0f
    432e:	a0 8b       	std	Z+16, r26	; 0x10
    4330:	b1 8b       	std	Z+17, r27	; 0x11
    4332:	d7 01       	movw	r26, r14
    4334:	14 96       	adiw	r26, 0x04	; 4
    4336:	8c 91       	ld	r24, X
    4338:	14 97       	sbiw	r26, 0x04	; 4
    433a:	86 ff       	sbrs	r24, 6
    433c:	1b c0       	rjmp	.+54     	; 0x4374 <f_write+0x1fe>
    433e:	56 96       	adiw	r26, 0x16	; 22
    4340:	2d 91       	ld	r18, X+
    4342:	3d 91       	ld	r19, X+
    4344:	4d 91       	ld	r20, X+
    4346:	5c 91       	ld	r21, X
    4348:	59 97       	sbiw	r26, 0x19	; 25
    434a:	ed 91       	ld	r30, X+
    434c:	fc 91       	ld	r31, X
    434e:	81 81       	ldd	r24, Z+1	; 0x01
    4350:	01 e0       	ldi	r16, 0x01	; 1
    4352:	10 e0       	ldi	r17, 0x00	; 0
    4354:	b3 01       	movw	r22, r6
    4356:	0e 94 5b 39 	call	0x72b6	; 0x72b6 <disk_write>
    435a:	88 23       	and	r24, r24
    435c:	21 f0       	breq	.+8      	; 0x4366 <f_write+0x1f0>
    435e:	81 e0       	ldi	r24, 0x01	; 1
    4360:	f7 01       	movw	r30, r14
    4362:	85 83       	std	Z+5, r24	; 0x05
    4364:	4b c1       	rjmp	.+662    	; 0x45fc <f_write+0x486>
    4366:	d7 01       	movw	r26, r14
    4368:	14 96       	adiw	r26, 0x04	; 4
    436a:	8c 91       	ld	r24, X
    436c:	14 97       	sbiw	r26, 0x04	; 4
    436e:	8f 7b       	andi	r24, 0xBF	; 191
    4370:	14 96       	adiw	r26, 0x04	; 4
    4372:	8c 93       	st	X, r24
    4374:	f7 01       	movw	r30, r14
    4376:	42 89       	ldd	r20, Z+18	; 0x12
    4378:	53 89       	ldd	r21, Z+19	; 0x13
    437a:	64 89       	ldd	r22, Z+20	; 0x14
    437c:	75 89       	ldd	r23, Z+21	; 0x15
    437e:	80 81       	ld	r24, Z
    4380:	91 81       	ldd	r25, Z+1	; 0x01
    4382:	0e 94 59 15 	call	0x2ab2	; 0x2ab2 <clust2sect>
    4386:	6d 83       	std	Y+5, r22	; 0x05
    4388:	7e 83       	std	Y+6, r23	; 0x06
    438a:	8f 83       	std	Y+7, r24	; 0x07
    438c:	98 87       	std	Y+8, r25	; 0x08
    438e:	8d 81       	ldd	r24, Y+5	; 0x05
    4390:	9e 81       	ldd	r25, Y+6	; 0x06
    4392:	af 81       	ldd	r26, Y+7	; 0x07
    4394:	b8 85       	ldd	r27, Y+8	; 0x08
    4396:	89 2b       	or	r24, r25
    4398:	8a 2b       	or	r24, r26
    439a:	8b 2b       	or	r24, r27
    439c:	29 f4       	brne	.+10     	; 0x43a8 <f_write+0x232>
    439e:	82 e0       	ldi	r24, 0x02	; 2
    43a0:	d7 01       	movw	r26, r14
    43a2:	15 96       	adiw	r26, 0x05	; 5
    43a4:	8c 93       	st	X, r24
    43a6:	2a c1       	rjmp	.+596    	; 0x45fc <f_write+0x486>
    43a8:	2d 85       	ldd	r18, Y+13	; 0x0d
    43aa:	8d 81       	ldd	r24, Y+5	; 0x05
    43ac:	9e 81       	ldd	r25, Y+6	; 0x06
    43ae:	af 81       	ldd	r26, Y+7	; 0x07
    43b0:	b8 85       	ldd	r27, Y+8	; 0x08
    43b2:	82 0f       	add	r24, r18
    43b4:	91 1d       	adc	r25, r1
    43b6:	a1 1d       	adc	r26, r1
    43b8:	b1 1d       	adc	r27, r1
    43ba:	8d 83       	std	Y+5, r24	; 0x05
    43bc:	9e 83       	std	Y+6, r25	; 0x06
    43be:	af 83       	std	Y+7, r26	; 0x07
    43c0:	b8 87       	std	Y+8, r27	; 0x08
    43c2:	8e 85       	ldd	r24, Y+14	; 0x0e
    43c4:	9f 85       	ldd	r25, Y+15	; 0x0f
    43c6:	89 2f       	mov	r24, r25
    43c8:	99 27       	eor	r25, r25
    43ca:	86 95       	lsr	r24
    43cc:	8b 87       	std	Y+11, r24	; 0x0b
    43ce:	9c 87       	std	Y+12, r25	; 0x0c
    43d0:	8b 85       	ldd	r24, Y+11	; 0x0b
    43d2:	9c 85       	ldd	r25, Y+12	; 0x0c
    43d4:	89 2b       	or	r24, r25
    43d6:	09 f4       	brne	.+2      	; 0x43da <f_write+0x264>
    43d8:	62 c0       	rjmp	.+196    	; 0x449e <f_write+0x328>
    43da:	9d 85       	ldd	r25, Y+13	; 0x0d
    43dc:	2b 85       	ldd	r18, Y+11	; 0x0b
    43de:	3c 85       	ldd	r19, Y+12	; 0x0c
    43e0:	d7 01       	movw	r26, r14
    43e2:	ed 91       	ld	r30, X+
    43e4:	fc 91       	ld	r31, X
    43e6:	82 81       	ldd	r24, Z+2	; 0x02
    43e8:	29 0f       	add	r18, r25
    43ea:	31 1d       	adc	r19, r1
    43ec:	90 e0       	ldi	r25, 0x00	; 0
    43ee:	82 17       	cp	r24, r18
    43f0:	93 07       	cpc	r25, r19
    43f2:	38 f4       	brcc	.+14     	; 0x4402 <f_write+0x28c>
    43f4:	82 81       	ldd	r24, Z+2	; 0x02
    43f6:	2d 85       	ldd	r18, Y+13	; 0x0d
    43f8:	90 e0       	ldi	r25, 0x00	; 0
    43fa:	82 1b       	sub	r24, r18
    43fc:	91 09       	sbc	r25, r1
    43fe:	8b 87       	std	Y+11, r24	; 0x0b
    4400:	9c 87       	std	Y+12, r25	; 0x0c
    4402:	0b 85       	ldd	r16, Y+11	; 0x0b
    4404:	1c 85       	ldd	r17, Y+12	; 0x0c
    4406:	2d 81       	ldd	r18, Y+5	; 0x05
    4408:	3e 81       	ldd	r19, Y+6	; 0x06
    440a:	4f 81       	ldd	r20, Y+7	; 0x07
    440c:	58 85       	ldd	r21, Y+8	; 0x08
    440e:	81 81       	ldd	r24, Z+1	; 0x01
    4410:	b5 01       	movw	r22, r10
    4412:	0e 94 5b 39 	call	0x72b6	; 0x72b6 <disk_write>
    4416:	88 23       	and	r24, r24
    4418:	21 f0       	breq	.+8      	; 0x4422 <f_write+0x2ac>
    441a:	81 e0       	ldi	r24, 0x01	; 1
    441c:	f7 01       	movw	r30, r14
    441e:	85 83       	std	Z+5, r24	; 0x05
    4420:	ed c0       	rjmp	.+474    	; 0x45fc <f_write+0x486>
    4422:	d7 01       	movw	r26, r14
    4424:	56 96       	adiw	r26, 0x16	; 22
    4426:	4d 91       	ld	r20, X+
    4428:	5d 91       	ld	r21, X+
    442a:	6d 91       	ld	r22, X+
    442c:	7c 91       	ld	r23, X
    442e:	59 97       	sbiw	r26, 0x19	; 25
    4430:	0d 81       	ldd	r16, Y+5	; 0x05
    4432:	1e 81       	ldd	r17, Y+6	; 0x06
    4434:	2f 81       	ldd	r18, Y+7	; 0x07
    4436:	38 85       	ldd	r19, Y+8	; 0x08
    4438:	8b 85       	ldd	r24, Y+11	; 0x0b
    443a:	9c 85       	ldd	r25, Y+12	; 0x0c
    443c:	40 1b       	sub	r20, r16
    443e:	51 0b       	sbc	r21, r17
    4440:	62 0b       	sbc	r22, r18
    4442:	73 0b       	sbc	r23, r19
    4444:	a0 e0       	ldi	r26, 0x00	; 0
    4446:	b0 e0       	ldi	r27, 0x00	; 0
    4448:	48 17       	cp	r20, r24
    444a:	59 07       	cpc	r21, r25
    444c:	6a 07       	cpc	r22, r26
    444e:	7b 07       	cpc	r23, r27
    4450:	f0 f4       	brcc	.+60     	; 0x448e <f_write+0x318>
    4452:	f7 01       	movw	r30, r14
    4454:	86 89       	ldd	r24, Z+22	; 0x16
    4456:	97 89       	ldd	r25, Z+23	; 0x17
    4458:	a0 8d       	ldd	r26, Z+24	; 0x18
    445a:	b1 8d       	ldd	r27, Z+25	; 0x19
    445c:	4d 81       	ldd	r20, Y+5	; 0x05
    445e:	5e 81       	ldd	r21, Y+6	; 0x06
    4460:	6f 81       	ldd	r22, Y+7	; 0x07
    4462:	78 85       	ldd	r23, Y+8	; 0x08
    4464:	84 1b       	sub	r24, r20
    4466:	95 0b       	sbc	r25, r21
    4468:	a6 0b       	sbc	r26, r22
    446a:	b7 0b       	sbc	r27, r23
    446c:	98 2f       	mov	r25, r24
    446e:	88 27       	eor	r24, r24
    4470:	99 0f       	add	r25, r25
    4472:	b5 01       	movw	r22, r10
    4474:	68 0f       	add	r22, r24
    4476:	79 1f       	adc	r23, r25
    4478:	a4 01       	movw	r20, r8
    447a:	c3 01       	movw	r24, r6
    447c:	0e 94 95 0e 	call	0x1d2a	; 0x1d2a <mem_cpy>
    4480:	d7 01       	movw	r26, r14
    4482:	14 96       	adiw	r26, 0x04	; 4
    4484:	8c 91       	ld	r24, X
    4486:	14 97       	sbiw	r26, 0x04	; 4
    4488:	8f 7b       	andi	r24, 0xBF	; 191
    448a:	14 96       	adiw	r26, 0x04	; 4
    448c:	8c 93       	st	X, r24
    448e:	8b 85       	ldd	r24, Y+11	; 0x0b
    4490:	9c 85       	ldd	r25, Y+12	; 0x0c
    4492:	98 2f       	mov	r25, r24
    4494:	88 27       	eor	r24, r24
    4496:	99 0f       	add	r25, r25
    4498:	89 87       	std	Y+9, r24	; 0x09
    449a:	9a 87       	std	Y+10, r25	; 0x0a
    449c:	65 c0       	rjmp	.+202    	; 0x4568 <f_write+0x3f2>
    449e:	f7 01       	movw	r30, r14
    44a0:	46 89       	ldd	r20, Z+22	; 0x16
    44a2:	57 89       	ldd	r21, Z+23	; 0x17
    44a4:	60 8d       	ldd	r22, Z+24	; 0x18
    44a6:	71 8d       	ldd	r23, Z+25	; 0x19
    44a8:	8d 81       	ldd	r24, Y+5	; 0x05
    44aa:	9e 81       	ldd	r25, Y+6	; 0x06
    44ac:	af 81       	ldd	r26, Y+7	; 0x07
    44ae:	b8 85       	ldd	r27, Y+8	; 0x08
    44b0:	48 17       	cp	r20, r24
    44b2:	59 07       	cpc	r21, r25
    44b4:	6a 07       	cpc	r22, r26
    44b6:	7b 07       	cpc	r23, r27
    44b8:	09 f1       	breq	.+66     	; 0x44fc <f_write+0x386>
    44ba:	46 81       	ldd	r20, Z+6	; 0x06
    44bc:	57 81       	ldd	r21, Z+7	; 0x07
    44be:	60 85       	ldd	r22, Z+8	; 0x08
    44c0:	71 85       	ldd	r23, Z+9	; 0x09
    44c2:	82 85       	ldd	r24, Z+10	; 0x0a
    44c4:	93 85       	ldd	r25, Z+11	; 0x0b
    44c6:	a4 85       	ldd	r26, Z+12	; 0x0c
    44c8:	b5 85       	ldd	r27, Z+13	; 0x0d
    44ca:	48 17       	cp	r20, r24
    44cc:	59 07       	cpc	r21, r25
    44ce:	6a 07       	cpc	r22, r26
    44d0:	7b 07       	cpc	r23, r27
    44d2:	a0 f4       	brcc	.+40     	; 0x44fc <f_write+0x386>
    44d4:	2d 81       	ldd	r18, Y+5	; 0x05
    44d6:	3e 81       	ldd	r19, Y+6	; 0x06
    44d8:	4f 81       	ldd	r20, Y+7	; 0x07
    44da:	58 85       	ldd	r21, Y+8	; 0x08
    44dc:	01 90       	ld	r0, Z+
    44de:	f0 81       	ld	r31, Z
    44e0:	e0 2d       	mov	r30, r0
    44e2:	81 81       	ldd	r24, Z+1	; 0x01
    44e4:	01 e0       	ldi	r16, 0x01	; 1
    44e6:	10 e0       	ldi	r17, 0x00	; 0
    44e8:	b3 01       	movw	r22, r6
    44ea:	0e 94 9e 38 	call	0x713c	; 0x713c <disk_read>
    44ee:	88 23       	and	r24, r24
    44f0:	29 f0       	breq	.+10     	; 0x44fc <f_write+0x386>
    44f2:	81 e0       	ldi	r24, 0x01	; 1
    44f4:	d7 01       	movw	r26, r14
    44f6:	15 96       	adiw	r26, 0x05	; 5
    44f8:	8c 93       	st	X, r24
    44fa:	80 c0       	rjmp	.+256    	; 0x45fc <f_write+0x486>
    44fc:	8d 81       	ldd	r24, Y+5	; 0x05
    44fe:	9e 81       	ldd	r25, Y+6	; 0x06
    4500:	af 81       	ldd	r26, Y+7	; 0x07
    4502:	b8 85       	ldd	r27, Y+8	; 0x08
    4504:	f7 01       	movw	r30, r14
    4506:	86 8b       	std	Z+22, r24	; 0x16
    4508:	97 8b       	std	Z+23, r25	; 0x17
    450a:	a0 8f       	std	Z+24, r26	; 0x18
    450c:	b1 8f       	std	Z+25, r27	; 0x19
    450e:	f7 01       	movw	r30, r14
    4510:	86 81       	ldd	r24, Z+6	; 0x06
    4512:	97 81       	ldd	r25, Z+7	; 0x07
    4514:	a0 85       	ldd	r26, Z+8	; 0x08
    4516:	b1 85       	ldd	r27, Z+9	; 0x09
    4518:	91 70       	andi	r25, 0x01	; 1
    451a:	94 01       	movw	r18, r8
    451c:	28 1b       	sub	r18, r24
    451e:	39 0b       	sbc	r19, r25
    4520:	29 87       	std	Y+9, r18	; 0x09
    4522:	3a 87       	std	Y+10, r19	; 0x0a
    4524:	29 85       	ldd	r18, Y+9	; 0x09
    4526:	3a 85       	ldd	r19, Y+10	; 0x0a
    4528:	8e 85       	ldd	r24, Y+14	; 0x0e
    452a:	9f 85       	ldd	r25, Y+15	; 0x0f
    452c:	82 17       	cp	r24, r18
    452e:	93 07       	cpc	r25, r19
    4530:	20 f4       	brcc	.+8      	; 0x453a <f_write+0x3c4>
    4532:	8e 85       	ldd	r24, Y+14	; 0x0e
    4534:	9f 85       	ldd	r25, Y+15	; 0x0f
    4536:	89 87       	std	Y+9, r24	; 0x09
    4538:	9a 87       	std	Y+10, r25	; 0x0a
    453a:	49 85       	ldd	r20, Y+9	; 0x09
    453c:	5a 85       	ldd	r21, Y+10	; 0x0a
    453e:	f7 01       	movw	r30, r14
    4540:	86 81       	ldd	r24, Z+6	; 0x06
    4542:	97 81       	ldd	r25, Z+7	; 0x07
    4544:	a0 85       	ldd	r26, Z+8	; 0x08
    4546:	b1 85       	ldd	r27, Z+9	; 0x09
    4548:	91 70       	andi	r25, 0x01	; 1
    454a:	aa 27       	eor	r26, r26
    454c:	bb 27       	eor	r27, r27
    454e:	80 96       	adiw	r24, 0x20	; 32
    4550:	b5 01       	movw	r22, r10
    4552:	8e 0d       	add	r24, r14
    4554:	9f 1d       	adc	r25, r15
    4556:	0e 94 95 0e 	call	0x1d2a	; 0x1d2a <mem_cpy>
    455a:	d7 01       	movw	r26, r14
    455c:	14 96       	adiw	r26, 0x04	; 4
    455e:	8c 91       	ld	r24, X
    4560:	14 97       	sbiw	r26, 0x04	; 4
    4562:	80 64       	ori	r24, 0x40	; 64
    4564:	14 96       	adiw	r26, 0x04	; 4
    4566:	8c 93       	st	X, r24
    4568:	89 85       	ldd	r24, Y+9	; 0x09
    456a:	9a 85       	ldd	r25, Y+10	; 0x0a
    456c:	a8 0e       	add	r10, r24
    456e:	b9 1e       	adc	r11, r25
    4570:	f7 01       	movw	r30, r14
    4572:	86 81       	ldd	r24, Z+6	; 0x06
    4574:	97 81       	ldd	r25, Z+7	; 0x07
    4576:	a0 85       	ldd	r26, Z+8	; 0x08
    4578:	b1 85       	ldd	r27, Z+9	; 0x09
    457a:	29 85       	ldd	r18, Y+9	; 0x09
    457c:	3a 85       	ldd	r19, Y+10	; 0x0a
    457e:	82 0f       	add	r24, r18
    4580:	93 1f       	adc	r25, r19
    4582:	a1 1d       	adc	r26, r1
    4584:	b1 1d       	adc	r27, r1
    4586:	86 83       	std	Z+6, r24	; 0x06
    4588:	97 83       	std	Z+7, r25	; 0x07
    458a:	a0 87       	std	Z+8, r26	; 0x08
    458c:	b1 87       	std	Z+9, r27	; 0x09
    458e:	d6 01       	movw	r26, r12
    4590:	2d 91       	ld	r18, X+
    4592:	3c 91       	ld	r19, X
    4594:	11 97       	sbiw	r26, 0x01	; 1
    4596:	89 85       	ldd	r24, Y+9	; 0x09
    4598:	9a 85       	ldd	r25, Y+10	; 0x0a
    459a:	82 0f       	add	r24, r18
    459c:	93 1f       	adc	r25, r19
    459e:	8d 93       	st	X+, r24
    45a0:	9c 93       	st	X, r25
    45a2:	8e 85       	ldd	r24, Y+14	; 0x0e
    45a4:	9f 85       	ldd	r25, Y+15	; 0x0f
    45a6:	29 85       	ldd	r18, Y+9	; 0x09
    45a8:	3a 85       	ldd	r19, Y+10	; 0x0a
    45aa:	82 1b       	sub	r24, r18
    45ac:	93 0b       	sbc	r25, r19
    45ae:	8e 87       	std	Y+14, r24	; 0x0e
    45b0:	9f 87       	std	Y+15, r25	; 0x0f
    45b2:	8e 85       	ldd	r24, Y+14	; 0x0e
    45b4:	9f 85       	ldd	r25, Y+15	; 0x0f
    45b6:	89 2b       	or	r24, r25
    45b8:	09 f0       	breq	.+2      	; 0x45bc <f_write+0x446>
    45ba:	27 ce       	rjmp	.-946    	; 0x420a <f_write+0x94>
    45bc:	f7 01       	movw	r30, r14
    45be:	46 81       	ldd	r20, Z+6	; 0x06
    45c0:	57 81       	ldd	r21, Z+7	; 0x07
    45c2:	60 85       	ldd	r22, Z+8	; 0x08
    45c4:	71 85       	ldd	r23, Z+9	; 0x09
    45c6:	82 85       	ldd	r24, Z+10	; 0x0a
    45c8:	93 85       	ldd	r25, Z+11	; 0x0b
    45ca:	a4 85       	ldd	r26, Z+12	; 0x0c
    45cc:	b5 85       	ldd	r27, Z+13	; 0x0d
    45ce:	84 17       	cp	r24, r20
    45d0:	95 07       	cpc	r25, r21
    45d2:	a6 07       	cpc	r26, r22
    45d4:	b7 07       	cpc	r27, r23
    45d6:	40 f4       	brcc	.+16     	; 0x45e8 <f_write+0x472>
    45d8:	86 81       	ldd	r24, Z+6	; 0x06
    45da:	97 81       	ldd	r25, Z+7	; 0x07
    45dc:	a0 85       	ldd	r26, Z+8	; 0x08
    45de:	b1 85       	ldd	r27, Z+9	; 0x09
    45e0:	82 87       	std	Z+10, r24	; 0x0a
    45e2:	93 87       	std	Z+11, r25	; 0x0b
    45e4:	a4 87       	std	Z+12, r26	; 0x0c
    45e6:	b5 87       	std	Z+13, r27	; 0x0d
    45e8:	d7 01       	movw	r26, r14
    45ea:	14 96       	adiw	r26, 0x04	; 4
    45ec:	8c 91       	ld	r24, X
    45ee:	14 97       	sbiw	r26, 0x04	; 4
    45f0:	80 62       	ori	r24, 0x20	; 32
    45f2:	14 96       	adiw	r26, 0x04	; 4
    45f4:	8c 93       	st	X, r24
    45f6:	80 e0       	ldi	r24, 0x00	; 0
    45f8:	01 c0       	rjmp	.+2      	; 0x45fc <f_write+0x486>
    45fa:	87 e0       	ldi	r24, 0x07	; 7
    45fc:	2f 96       	adiw	r28, 0x0f	; 15
    45fe:	cd bf       	out	0x3d, r28	; 61
    4600:	de bf       	out	0x3e, r29	; 62
    4602:	df 91       	pop	r29
    4604:	cf 91       	pop	r28
    4606:	1f 91       	pop	r17
    4608:	0f 91       	pop	r16
    460a:	ff 90       	pop	r15
    460c:	ef 90       	pop	r14
    460e:	df 90       	pop	r13
    4610:	cf 90       	pop	r12
    4612:	bf 90       	pop	r11
    4614:	af 90       	pop	r10
    4616:	9f 90       	pop	r9
    4618:	8f 90       	pop	r8
    461a:	7f 90       	pop	r7
    461c:	6f 90       	pop	r6
    461e:	08 95       	ret

00004620 <putc_bfd>:
    4620:	df 92       	push	r13
    4622:	ef 92       	push	r14
    4624:	ff 92       	push	r15
    4626:	0f 93       	push	r16
    4628:	1f 93       	push	r17
    462a:	cf 93       	push	r28
    462c:	df 93       	push	r29
    462e:	1f 92       	push	r1
    4630:	1f 92       	push	r1
    4632:	cd b7       	in	r28, 0x3d	; 61
    4634:	de b7       	in	r29, 0x3e	; 62
    4636:	8c 01       	movw	r16, r24
    4638:	d6 2e       	mov	r13, r22
    463a:	2a e0       	ldi	r18, 0x0A	; 10
    463c:	62 13       	cpse	r22, r18
    463e:	02 c0       	rjmp	.+4      	; 0x4644 <putc_bfd+0x24>
    4640:	6d e0       	ldi	r22, 0x0D	; 13
    4642:	ee df       	rcall	.-36     	; 0x4620 <putc_bfd>
    4644:	f8 01       	movw	r30, r16
    4646:	82 81       	ldd	r24, Z+2	; 0x02
    4648:	93 81       	ldd	r25, Z+3	; 0x03
    464a:	99 23       	and	r25, r25
    464c:	64 f1       	brlt	.+88     	; 0x46a6 <putc_bfd+0x86>
    464e:	7c 01       	movw	r14, r24
    4650:	ff ef       	ldi	r31, 0xFF	; 255
    4652:	ef 1a       	sub	r14, r31
    4654:	ff 0a       	sbc	r15, r31
    4656:	f8 01       	movw	r30, r16
    4658:	e8 0f       	add	r30, r24
    465a:	f9 1f       	adc	r31, r25
    465c:	d6 82       	std	Z+6, r13	; 0x06
    465e:	2d e3       	ldi	r18, 0x3D	; 61
    4660:	e2 16       	cp	r14, r18
    4662:	f1 04       	cpc	r15, r1
    4664:	c4 f0       	brlt	.+48     	; 0x4696 <putc_bfd+0x76>
    4666:	9e 01       	movw	r18, r28
    4668:	2f 5f       	subi	r18, 0xFF	; 255
    466a:	3f 4f       	sbci	r19, 0xFF	; 255
    466c:	a7 01       	movw	r20, r14
    466e:	b8 01       	movw	r22, r16
    4670:	6a 5f       	subi	r22, 0xFA	; 250
    4672:	7f 4f       	sbci	r23, 0xFF	; 255
    4674:	f8 01       	movw	r30, r16
    4676:	80 81       	ld	r24, Z
    4678:	91 81       	ldd	r25, Z+1	; 0x01
    467a:	7d dd       	rcall	.-1286   	; 0x4176 <f_write>
    467c:	29 81       	ldd	r18, Y+1	; 0x01
    467e:	3a 81       	ldd	r19, Y+2	; 0x02
    4680:	81 e0       	ldi	r24, 0x01	; 1
    4682:	90 e0       	ldi	r25, 0x00	; 0
    4684:	e2 16       	cp	r14, r18
    4686:	f3 06       	cpc	r15, r19
    4688:	11 f4       	brne	.+4      	; 0x468e <putc_bfd+0x6e>
    468a:	80 e0       	ldi	r24, 0x00	; 0
    468c:	90 e0       	ldi	r25, 0x00	; 0
    468e:	ee 24       	eor	r14, r14
    4690:	ff 24       	eor	r15, r15
    4692:	e8 1a       	sub	r14, r24
    4694:	f9 0a       	sbc	r15, r25
    4696:	f8 01       	movw	r30, r16
    4698:	e2 82       	std	Z+2, r14	; 0x02
    469a:	f3 82       	std	Z+3, r15	; 0x03
    469c:	84 81       	ldd	r24, Z+4	; 0x04
    469e:	95 81       	ldd	r25, Z+5	; 0x05
    46a0:	01 96       	adiw	r24, 0x01	; 1
    46a2:	84 83       	std	Z+4, r24	; 0x04
    46a4:	95 83       	std	Z+5, r25	; 0x05
    46a6:	0f 90       	pop	r0
    46a8:	0f 90       	pop	r0
    46aa:	df 91       	pop	r29
    46ac:	cf 91       	pop	r28
    46ae:	1f 91       	pop	r17
    46b0:	0f 91       	pop	r16
    46b2:	ff 90       	pop	r15
    46b4:	ef 90       	pop	r14
    46b6:	df 90       	pop	r13
    46b8:	08 95       	ret

000046ba <f_sync>:
    46ba:	ef 92       	push	r14
    46bc:	ff 92       	push	r15
    46be:	0f 93       	push	r16
    46c0:	1f 93       	push	r17
    46c2:	cf 93       	push	r28
    46c4:	df 93       	push	r29
    46c6:	00 d0       	rcall	.+0      	; 0x46c8 <f_sync+0xe>
    46c8:	1f 92       	push	r1
    46ca:	cd b7       	in	r28, 0x3d	; 61
    46cc:	de b7       	in	r29, 0x3e	; 62
    46ce:	7c 01       	movw	r14, r24
    46d0:	0e 94 db 10 	call	0x21b6	; 0x21b6 <validate>
    46d4:	81 11       	cpse	r24, r1
    46d6:	a1 c0       	rjmp	.+322    	; 0x481a <f_sync+0x160>
    46d8:	d7 01       	movw	r26, r14
    46da:	14 96       	adiw	r26, 0x04	; 4
    46dc:	8c 91       	ld	r24, X
    46de:	14 97       	sbiw	r26, 0x04	; 4
    46e0:	85 ff       	sbrs	r24, 5
    46e2:	98 c0       	rjmp	.+304    	; 0x4814 <f_sync+0x15a>
    46e4:	14 96       	adiw	r26, 0x04	; 4
    46e6:	8c 91       	ld	r24, X
    46e8:	14 97       	sbiw	r26, 0x04	; 4
    46ea:	86 ff       	sbrs	r24, 6
    46ec:	16 c0       	rjmp	.+44     	; 0x471a <f_sync+0x60>
    46ee:	56 96       	adiw	r26, 0x16	; 22
    46f0:	2d 91       	ld	r18, X+
    46f2:	3d 91       	ld	r19, X+
    46f4:	4d 91       	ld	r20, X+
    46f6:	5c 91       	ld	r21, X
    46f8:	59 97       	sbiw	r26, 0x19	; 25
    46fa:	ed 91       	ld	r30, X+
    46fc:	fc 91       	ld	r31, X
    46fe:	81 81       	ldd	r24, Z+1	; 0x01
    4700:	01 e0       	ldi	r16, 0x01	; 1
    4702:	10 e0       	ldi	r17, 0x00	; 0
    4704:	b7 01       	movw	r22, r14
    4706:	60 5e       	subi	r22, 0xE0	; 224
    4708:	7f 4f       	sbci	r23, 0xFF	; 255
    470a:	0e 94 5b 39 	call	0x72b6	; 0x72b6 <disk_write>
    470e:	81 11       	cpse	r24, r1
    4710:	83 c0       	rjmp	.+262    	; 0x4818 <f_sync+0x15e>
    4712:	f7 01       	movw	r30, r14
    4714:	84 81       	ldd	r24, Z+4	; 0x04
    4716:	8f 7b       	andi	r24, 0xBF	; 191
    4718:	84 83       	std	Z+4, r24	; 0x04
    471a:	d7 01       	movw	r26, r14
    471c:	5a 96       	adiw	r26, 0x1a	; 26
    471e:	4d 91       	ld	r20, X+
    4720:	5d 91       	ld	r21, X+
    4722:	6d 91       	ld	r22, X+
    4724:	7c 91       	ld	r23, X
    4726:	5d 97       	sbiw	r26, 0x1d	; 29
    4728:	8d 91       	ld	r24, X+
    472a:	9c 91       	ld	r25, X
    472c:	0e 94 17 10 	call	0x202e	; 0x202e <move_window>
    4730:	81 11       	cpse	r24, r1
    4732:	73 c0       	rjmp	.+230    	; 0x481a <f_sync+0x160>
    4734:	f7 01       	movw	r30, r14
    4736:	06 8d       	ldd	r16, Z+30	; 0x1e
    4738:	17 8d       	ldd	r17, Z+31	; 0x1f
    473a:	d8 01       	movw	r26, r16
    473c:	1b 96       	adiw	r26, 0x0b	; 11
    473e:	8c 91       	ld	r24, X
    4740:	1b 97       	sbiw	r26, 0x0b	; 11
    4742:	80 62       	ori	r24, 0x20	; 32
    4744:	1b 96       	adiw	r26, 0x0b	; 11
    4746:	8c 93       	st	X, r24
    4748:	82 85       	ldd	r24, Z+10	; 0x0a
    474a:	93 85       	ldd	r25, Z+11	; 0x0b
    474c:	a4 85       	ldd	r26, Z+12	; 0x0c
    474e:	b5 85       	ldd	r27, Z+13	; 0x0d
    4750:	f8 01       	movw	r30, r16
    4752:	84 8f       	std	Z+28, r24	; 0x1c
    4754:	f7 01       	movw	r30, r14
    4756:	82 85       	ldd	r24, Z+10	; 0x0a
    4758:	93 85       	ldd	r25, Z+11	; 0x0b
    475a:	a4 85       	ldd	r26, Z+12	; 0x0c
    475c:	b5 85       	ldd	r27, Z+13	; 0x0d
    475e:	89 2f       	mov	r24, r25
    4760:	99 27       	eor	r25, r25
    4762:	d8 01       	movw	r26, r16
    4764:	5d 96       	adiw	r26, 0x1d	; 29
    4766:	8c 93       	st	X, r24
    4768:	82 85       	ldd	r24, Z+10	; 0x0a
    476a:	93 85       	ldd	r25, Z+11	; 0x0b
    476c:	a4 85       	ldd	r26, Z+12	; 0x0c
    476e:	b5 85       	ldd	r27, Z+13	; 0x0d
    4770:	cd 01       	movw	r24, r26
    4772:	aa 27       	eor	r26, r26
    4774:	bb 27       	eor	r27, r27
    4776:	f8 01       	movw	r30, r16
    4778:	86 8f       	std	Z+30, r24	; 0x1e
    477a:	f7 01       	movw	r30, r14
    477c:	82 85       	ldd	r24, Z+10	; 0x0a
    477e:	93 85       	ldd	r25, Z+11	; 0x0b
    4780:	a4 85       	ldd	r26, Z+12	; 0x0c
    4782:	b5 85       	ldd	r27, Z+13	; 0x0d
    4784:	8b 2f       	mov	r24, r27
    4786:	99 27       	eor	r25, r25
    4788:	aa 27       	eor	r26, r26
    478a:	bb 27       	eor	r27, r27
    478c:	f8 01       	movw	r30, r16
    478e:	87 8f       	std	Z+31, r24	; 0x1f
    4790:	d7 01       	movw	r26, r14
    4792:	1e 96       	adiw	r26, 0x0e	; 14
    4794:	4d 91       	ld	r20, X+
    4796:	5d 91       	ld	r21, X+
    4798:	6d 91       	ld	r22, X+
    479a:	7c 91       	ld	r23, X
    479c:	51 97       	sbiw	r26, 0x11	; 17
    479e:	c8 01       	movw	r24, r16
    47a0:	0e 94 1b 0f 	call	0x1e36	; 0x1e36 <st_clust>
    47a4:	0e 94 6f 35 	call	0x6ade	; 0x6ade <get_fattime>
    47a8:	69 83       	std	Y+1, r22	; 0x01
    47aa:	7a 83       	std	Y+2, r23	; 0x02
    47ac:	8b 83       	std	Y+3, r24	; 0x03
    47ae:	9c 83       	std	Y+4, r25	; 0x04
    47b0:	89 81       	ldd	r24, Y+1	; 0x01
    47b2:	9a 81       	ldd	r25, Y+2	; 0x02
    47b4:	ab 81       	ldd	r26, Y+3	; 0x03
    47b6:	bc 81       	ldd	r27, Y+4	; 0x04
    47b8:	f8 01       	movw	r30, r16
    47ba:	86 8b       	std	Z+22, r24	; 0x16
    47bc:	89 81       	ldd	r24, Y+1	; 0x01
    47be:	9a 81       	ldd	r25, Y+2	; 0x02
    47c0:	ab 81       	ldd	r26, Y+3	; 0x03
    47c2:	bc 81       	ldd	r27, Y+4	; 0x04
    47c4:	89 2f       	mov	r24, r25
    47c6:	99 27       	eor	r25, r25
    47c8:	87 8b       	std	Z+23, r24	; 0x17
    47ca:	89 81       	ldd	r24, Y+1	; 0x01
    47cc:	9a 81       	ldd	r25, Y+2	; 0x02
    47ce:	ab 81       	ldd	r26, Y+3	; 0x03
    47d0:	bc 81       	ldd	r27, Y+4	; 0x04
    47d2:	cd 01       	movw	r24, r26
    47d4:	aa 27       	eor	r26, r26
    47d6:	bb 27       	eor	r27, r27
    47d8:	80 8f       	std	Z+24, r24	; 0x18
    47da:	49 81       	ldd	r20, Y+1	; 0x01
    47dc:	5a 81       	ldd	r21, Y+2	; 0x02
    47de:	6b 81       	ldd	r22, Y+3	; 0x03
    47e0:	7c 81       	ldd	r23, Y+4	; 0x04
    47e2:	47 2f       	mov	r20, r23
    47e4:	55 27       	eor	r21, r21
    47e6:	66 27       	eor	r22, r22
    47e8:	77 27       	eor	r23, r23
    47ea:	41 8f       	std	Z+25, r20	; 0x19
    47ec:	12 8a       	std	Z+18, r1	; 0x12
    47ee:	13 8a       	std	Z+19, r1	; 0x13
    47f0:	d7 01       	movw	r26, r14
    47f2:	14 96       	adiw	r26, 0x04	; 4
    47f4:	8c 91       	ld	r24, X
    47f6:	14 97       	sbiw	r26, 0x04	; 4
    47f8:	8f 7d       	andi	r24, 0xDF	; 223
    47fa:	14 96       	adiw	r26, 0x04	; 4
    47fc:	8c 93       	st	X, r24
    47fe:	14 97       	sbiw	r26, 0x04	; 4
    4800:	ed 91       	ld	r30, X+
    4802:	fc 91       	ld	r31, X
    4804:	11 97       	sbiw	r26, 0x01	; 1
    4806:	81 e0       	ldi	r24, 0x01	; 1
    4808:	84 83       	std	Z+4, r24	; 0x04
    480a:	8d 91       	ld	r24, X+
    480c:	9c 91       	ld	r25, X
    480e:	0e 94 ba 14 	call	0x2974	; 0x2974 <sync_fs>
    4812:	03 c0       	rjmp	.+6      	; 0x481a <f_sync+0x160>
    4814:	80 e0       	ldi	r24, 0x00	; 0
    4816:	01 c0       	rjmp	.+2      	; 0x481a <f_sync+0x160>
    4818:	81 e0       	ldi	r24, 0x01	; 1
    481a:	24 96       	adiw	r28, 0x04	; 4
    481c:	cd bf       	out	0x3d, r28	; 61
    481e:	de bf       	out	0x3e, r29	; 62
    4820:	df 91       	pop	r29
    4822:	cf 91       	pop	r28
    4824:	1f 91       	pop	r17
    4826:	0f 91       	pop	r16
    4828:	ff 90       	pop	r15
    482a:	ef 90       	pop	r14
    482c:	08 95       	ret

0000482e <f_close>:
    482e:	cf 93       	push	r28
    4830:	df 93       	push	r29
    4832:	ec 01       	movw	r28, r24
    4834:	42 df       	rcall	.-380    	; 0x46ba <f_sync>
    4836:	81 11       	cpse	r24, r1
    4838:	07 c0       	rjmp	.+14     	; 0x4848 <f_close+0x1a>
    483a:	ce 01       	movw	r24, r28
    483c:	0e 94 db 10 	call	0x21b6	; 0x21b6 <validate>
    4840:	81 11       	cpse	r24, r1
    4842:	02 c0       	rjmp	.+4      	; 0x4848 <f_close+0x1a>
    4844:	18 82       	st	Y, r1
    4846:	19 82       	std	Y+1, r1	; 0x01
    4848:	df 91       	pop	r29
    484a:	cf 91       	pop	r28
    484c:	08 95       	ret

0000484e <f_lseek>:
    484e:	4f 92       	push	r4
    4850:	5f 92       	push	r5
    4852:	6f 92       	push	r6
    4854:	7f 92       	push	r7
    4856:	8f 92       	push	r8
    4858:	9f 92       	push	r9
    485a:	af 92       	push	r10
    485c:	bf 92       	push	r11
    485e:	cf 92       	push	r12
    4860:	df 92       	push	r13
    4862:	ef 92       	push	r14
    4864:	ff 92       	push	r15
    4866:	0f 93       	push	r16
    4868:	1f 93       	push	r17
    486a:	cf 93       	push	r28
    486c:	df 93       	push	r29
    486e:	cd b7       	in	r28, 0x3d	; 61
    4870:	de b7       	in	r29, 0x3e	; 62
    4872:	68 97       	sbiw	r28, 0x18	; 24
    4874:	cd bf       	out	0x3d, r28	; 61
    4876:	de bf       	out	0x3e, r29	; 62
    4878:	7c 01       	movw	r14, r24
    487a:	49 8b       	std	Y+17, r20	; 0x11
    487c:	5a 8b       	std	Y+18, r21	; 0x12
    487e:	6b 8b       	std	Y+19, r22	; 0x13
    4880:	7c 8b       	std	Y+20, r23	; 0x14
    4882:	0e 94 db 10 	call	0x21b6	; 0x21b6 <validate>
    4886:	81 11       	cpse	r24, r1
    4888:	71 c2       	rjmp	.+1250   	; 0x4d6c <f_lseek+0x51e>
    488a:	d7 01       	movw	r26, r14
    488c:	15 96       	adiw	r26, 0x05	; 5
    488e:	8c 91       	ld	r24, X
    4890:	15 97       	sbiw	r26, 0x05	; 5
    4892:	88 23       	and	r24, r24
    4894:	19 f0       	breq	.+6      	; 0x489c <f_lseek+0x4e>
    4896:	15 96       	adiw	r26, 0x05	; 5
    4898:	8c 91       	ld	r24, X
    489a:	68 c2       	rjmp	.+1232   	; 0x4d6c <f_lseek+0x51e>
    489c:	f7 01       	movw	r30, r14
    489e:	42 85       	ldd	r20, Z+10	; 0x0a
    48a0:	53 85       	ldd	r21, Z+11	; 0x0b
    48a2:	64 85       	ldd	r22, Z+12	; 0x0c
    48a4:	75 85       	ldd	r23, Z+13	; 0x0d
    48a6:	89 89       	ldd	r24, Y+17	; 0x11
    48a8:	9a 89       	ldd	r25, Y+18	; 0x12
    48aa:	ab 89       	ldd	r26, Y+19	; 0x13
    48ac:	bc 89       	ldd	r27, Y+20	; 0x14
    48ae:	48 17       	cp	r20, r24
    48b0:	59 07       	cpc	r21, r25
    48b2:	6a 07       	cpc	r22, r26
    48b4:	7b 07       	cpc	r23, r27
    48b6:	58 f4       	brcc	.+22     	; 0x48ce <f_lseek+0x80>
    48b8:	84 81       	ldd	r24, Z+4	; 0x04
    48ba:	81 fd       	sbrc	r24, 1
    48bc:	08 c0       	rjmp	.+16     	; 0x48ce <f_lseek+0x80>
    48be:	82 85       	ldd	r24, Z+10	; 0x0a
    48c0:	93 85       	ldd	r25, Z+11	; 0x0b
    48c2:	a4 85       	ldd	r26, Z+12	; 0x0c
    48c4:	b5 85       	ldd	r27, Z+13	; 0x0d
    48c6:	89 8b       	std	Y+17, r24	; 0x11
    48c8:	9a 8b       	std	Y+18, r25	; 0x12
    48ca:	ab 8b       	std	Y+19, r26	; 0x13
    48cc:	bc 8b       	std	Y+20, r27	; 0x14
    48ce:	f7 01       	movw	r30, r14
    48d0:	86 81       	ldd	r24, Z+6	; 0x06
    48d2:	97 81       	ldd	r25, Z+7	; 0x07
    48d4:	a0 85       	ldd	r26, Z+8	; 0x08
    48d6:	b1 85       	ldd	r27, Z+9	; 0x09
    48d8:	89 83       	std	Y+1, r24	; 0x01
    48da:	9a 83       	std	Y+2, r25	; 0x02
    48dc:	ab 83       	std	Y+3, r26	; 0x03
    48de:	bc 83       	std	Y+4, r27	; 0x04
    48e0:	1d 82       	std	Y+5, r1	; 0x05
    48e2:	1e 82       	std	Y+6, r1	; 0x06
    48e4:	1f 82       	std	Y+7, r1	; 0x07
    48e6:	18 86       	std	Y+8, r1	; 0x08
    48e8:	16 82       	std	Z+6, r1	; 0x06
    48ea:	17 82       	std	Z+7, r1	; 0x07
    48ec:	10 86       	std	Z+8, r1	; 0x08
    48ee:	11 86       	std	Z+9, r1	; 0x09
    48f0:	89 89       	ldd	r24, Y+17	; 0x11
    48f2:	9a 89       	ldd	r25, Y+18	; 0x12
    48f4:	ab 89       	ldd	r26, Y+19	; 0x13
    48f6:	bc 89       	ldd	r27, Y+20	; 0x14
    48f8:	89 2b       	or	r24, r25
    48fa:	8a 2b       	or	r24, r26
    48fc:	8b 2b       	or	r24, r27
    48fe:	09 f4       	brne	.+2      	; 0x4902 <f_lseek+0xb4>
    4900:	bf c1       	rjmp	.+894    	; 0x4c80 <f_lseek+0x432>
    4902:	00 81       	ld	r16, Z
    4904:	11 81       	ldd	r17, Z+1	; 0x01
    4906:	d8 01       	movw	r26, r16
    4908:	12 96       	adiw	r26, 0x02	; 2
    490a:	8c 91       	ld	r24, X
    490c:	90 e0       	ldi	r25, 0x00	; 0
    490e:	a0 e0       	ldi	r26, 0x00	; 0
    4910:	b0 e0       	ldi	r27, 0x00	; 0
    4912:	07 2e       	mov	r0, r23
    4914:	79 e0       	ldi	r23, 0x09	; 9
    4916:	88 0f       	add	r24, r24
    4918:	99 1f       	adc	r25, r25
    491a:	aa 1f       	adc	r26, r26
    491c:	bb 1f       	adc	r27, r27
    491e:	7a 95       	dec	r23
    4920:	d1 f7       	brne	.-12     	; 0x4916 <f_lseek+0xc8>
    4922:	70 2d       	mov	r23, r0
    4924:	89 87       	std	Y+9, r24	; 0x09
    4926:	9a 87       	std	Y+10, r25	; 0x0a
    4928:	ab 87       	std	Y+11, r26	; 0x0b
    492a:	bc 87       	std	Y+12, r27	; 0x0c
    492c:	49 81       	ldd	r20, Y+1	; 0x01
    492e:	5a 81       	ldd	r21, Y+2	; 0x02
    4930:	6b 81       	ldd	r22, Y+3	; 0x03
    4932:	7c 81       	ldd	r23, Y+4	; 0x04
    4934:	45 2b       	or	r20, r21
    4936:	46 2b       	or	r20, r22
    4938:	47 2b       	or	r20, r23
    493a:	09 f4       	brne	.+2      	; 0x493e <f_lseek+0xf0>
    493c:	63 c0       	rjmp	.+198    	; 0x4a04 <f_lseek+0x1b6>
    493e:	89 89       	ldd	r24, Y+17	; 0x11
    4940:	9a 89       	ldd	r25, Y+18	; 0x12
    4942:	ab 89       	ldd	r26, Y+19	; 0x13
    4944:	bc 89       	ldd	r27, Y+20	; 0x14
    4946:	29 85       	ldd	r18, Y+9	; 0x09
    4948:	3a 85       	ldd	r19, Y+10	; 0x0a
    494a:	4b 85       	ldd	r20, Y+11	; 0x0b
    494c:	5c 85       	ldd	r21, Y+12	; 0x0c
    494e:	a9 80       	ldd	r10, Y+1	; 0x01
    4950:	ba 80       	ldd	r11, Y+2	; 0x02
    4952:	cb 80       	ldd	r12, Y+3	; 0x03
    4954:	dc 80       	ldd	r13, Y+4	; 0x04
    4956:	ad 8a       	std	Y+21, r10	; 0x15
    4958:	be 8a       	std	Y+22, r11	; 0x16
    495a:	cf 8a       	std	Y+23, r12	; 0x17
    495c:	d8 8e       	std	Y+24, r13	; 0x18
    495e:	49 84       	ldd	r4, Y+9	; 0x09
    4960:	5a 84       	ldd	r5, Y+10	; 0x0a
    4962:	6b 84       	ldd	r6, Y+11	; 0x0b
    4964:	7c 84       	ldd	r7, Y+12	; 0x0c
    4966:	bc 01       	movw	r22, r24
    4968:	cd 01       	movw	r24, r26
    496a:	61 50       	subi	r22, 0x01	; 1
    496c:	71 09       	sbc	r23, r1
    496e:	81 09       	sbc	r24, r1
    4970:	91 09       	sbc	r25, r1
    4972:	0e 94 3c 3e 	call	0x7c78	; 0x7c78 <__udivmodsi4>
    4976:	49 01       	movw	r8, r18
    4978:	5a 01       	movw	r10, r20
    497a:	6d 89       	ldd	r22, Y+21	; 0x15
    497c:	7e 89       	ldd	r23, Y+22	; 0x16
    497e:	8f 89       	ldd	r24, Y+23	; 0x17
    4980:	98 8d       	ldd	r25, Y+24	; 0x18
    4982:	61 50       	subi	r22, 0x01	; 1
    4984:	71 09       	sbc	r23, r1
    4986:	81 09       	sbc	r24, r1
    4988:	91 09       	sbc	r25, r1
    498a:	a3 01       	movw	r20, r6
    498c:	92 01       	movw	r18, r4
    498e:	0e 94 3c 3e 	call	0x7c78	; 0x7c78 <__udivmodsi4>
    4992:	82 16       	cp	r8, r18
    4994:	93 06       	cpc	r9, r19
    4996:	a4 06       	cpc	r10, r20
    4998:	b5 06       	cpc	r11, r21
    499a:	a0 f1       	brcs	.+104    	; 0x4a04 <f_lseek+0x1b6>
    499c:	89 81       	ldd	r24, Y+1	; 0x01
    499e:	9a 81       	ldd	r25, Y+2	; 0x02
    49a0:	ab 81       	ldd	r26, Y+3	; 0x03
    49a2:	bc 81       	ldd	r27, Y+4	; 0x04
    49a4:	49 85       	ldd	r20, Y+9	; 0x09
    49a6:	5a 85       	ldd	r21, Y+10	; 0x0a
    49a8:	6b 85       	ldd	r22, Y+11	; 0x0b
    49aa:	7c 85       	ldd	r23, Y+12	; 0x0c
    49ac:	70 95       	com	r23
    49ae:	60 95       	com	r22
    49b0:	50 95       	com	r21
    49b2:	41 95       	neg	r20
    49b4:	5f 4f       	sbci	r21, 0xFF	; 255
    49b6:	6f 4f       	sbci	r22, 0xFF	; 255
    49b8:	7f 4f       	sbci	r23, 0xFF	; 255
    49ba:	01 97       	sbiw	r24, 0x01	; 1
    49bc:	a1 09       	sbc	r26, r1
    49be:	b1 09       	sbc	r27, r1
    49c0:	84 23       	and	r24, r20
    49c2:	95 23       	and	r25, r21
    49c4:	a6 23       	and	r26, r22
    49c6:	b7 23       	and	r27, r23
    49c8:	f7 01       	movw	r30, r14
    49ca:	86 83       	std	Z+6, r24	; 0x06
    49cc:	97 83       	std	Z+7, r25	; 0x07
    49ce:	a0 87       	std	Z+8, r26	; 0x08
    49d0:	b1 87       	std	Z+9, r27	; 0x09
    49d2:	89 89       	ldd	r24, Y+17	; 0x11
    49d4:	9a 89       	ldd	r25, Y+18	; 0x12
    49d6:	ab 89       	ldd	r26, Y+19	; 0x13
    49d8:	bc 89       	ldd	r27, Y+20	; 0x14
    49da:	46 81       	ldd	r20, Z+6	; 0x06
    49dc:	57 81       	ldd	r21, Z+7	; 0x07
    49de:	60 85       	ldd	r22, Z+8	; 0x08
    49e0:	71 85       	ldd	r23, Z+9	; 0x09
    49e2:	84 1b       	sub	r24, r20
    49e4:	95 0b       	sbc	r25, r21
    49e6:	a6 0b       	sbc	r26, r22
    49e8:	b7 0b       	sbc	r27, r23
    49ea:	89 8b       	std	Y+17, r24	; 0x11
    49ec:	9a 8b       	std	Y+18, r25	; 0x12
    49ee:	ab 8b       	std	Y+19, r26	; 0x13
    49f0:	bc 8b       	std	Y+20, r27	; 0x14
    49f2:	82 89       	ldd	r24, Z+18	; 0x12
    49f4:	93 89       	ldd	r25, Z+19	; 0x13
    49f6:	a4 89       	ldd	r26, Z+20	; 0x14
    49f8:	b5 89       	ldd	r27, Z+21	; 0x15
    49fa:	8d 87       	std	Y+13, r24	; 0x0d
    49fc:	9e 87       	std	Y+14, r25	; 0x0e
    49fe:	af 87       	std	Y+15, r26	; 0x0f
    4a00:	b8 8b       	std	Y+16, r27	; 0x10
    4a02:	48 c0       	rjmp	.+144    	; 0x4a94 <f_lseek+0x246>
    4a04:	f7 01       	movw	r30, r14
    4a06:	86 85       	ldd	r24, Z+14	; 0x0e
    4a08:	97 85       	ldd	r25, Z+15	; 0x0f
    4a0a:	a0 89       	ldd	r26, Z+16	; 0x10
    4a0c:	b1 89       	ldd	r27, Z+17	; 0x11
    4a0e:	8d 87       	std	Y+13, r24	; 0x0d
    4a10:	9e 87       	std	Y+14, r25	; 0x0e
    4a12:	af 87       	std	Y+15, r26	; 0x0f
    4a14:	b8 8b       	std	Y+16, r27	; 0x10
    4a16:	8d 85       	ldd	r24, Y+13	; 0x0d
    4a18:	9e 85       	ldd	r25, Y+14	; 0x0e
    4a1a:	af 85       	ldd	r26, Y+15	; 0x0f
    4a1c:	b8 89       	ldd	r27, Y+16	; 0x10
    4a1e:	89 2b       	or	r24, r25
    4a20:	8a 2b       	or	r24, r26
    4a22:	8b 2b       	or	r24, r27
    4a24:	71 f5       	brne	.+92     	; 0x4a82 <f_lseek+0x234>
    4a26:	40 e0       	ldi	r20, 0x00	; 0
    4a28:	50 e0       	ldi	r21, 0x00	; 0
    4a2a:	ba 01       	movw	r22, r20
    4a2c:	c8 01       	movw	r24, r16
    4a2e:	0e 94 63 19 	call	0x32c6	; 0x32c6 <create_chain>
    4a32:	6d 87       	std	Y+13, r22	; 0x0d
    4a34:	7e 87       	std	Y+14, r23	; 0x0e
    4a36:	8f 87       	std	Y+15, r24	; 0x0f
    4a38:	98 8b       	std	Y+16, r25	; 0x10
    4a3a:	8d 85       	ldd	r24, Y+13	; 0x0d
    4a3c:	9e 85       	ldd	r25, Y+14	; 0x0e
    4a3e:	af 85       	ldd	r26, Y+15	; 0x0f
    4a40:	b8 89       	ldd	r27, Y+16	; 0x10
    4a42:	01 97       	sbiw	r24, 0x01	; 1
    4a44:	a1 05       	cpc	r26, r1
    4a46:	b1 05       	cpc	r27, r1
    4a48:	29 f4       	brne	.+10     	; 0x4a54 <f_lseek+0x206>
    4a4a:	82 e0       	ldi	r24, 0x02	; 2
    4a4c:	d7 01       	movw	r26, r14
    4a4e:	15 96       	adiw	r26, 0x05	; 5
    4a50:	8c 93       	st	X, r24
    4a52:	8c c1       	rjmp	.+792    	; 0x4d6c <f_lseek+0x51e>
    4a54:	8d 85       	ldd	r24, Y+13	; 0x0d
    4a56:	9e 85       	ldd	r25, Y+14	; 0x0e
    4a58:	af 85       	ldd	r26, Y+15	; 0x0f
    4a5a:	b8 89       	ldd	r27, Y+16	; 0x10
    4a5c:	8f 3f       	cpi	r24, 0xFF	; 255
    4a5e:	9f 4f       	sbci	r25, 0xFF	; 255
    4a60:	af 4f       	sbci	r26, 0xFF	; 255
    4a62:	bf 4f       	sbci	r27, 0xFF	; 255
    4a64:	29 f4       	brne	.+10     	; 0x4a70 <f_lseek+0x222>
    4a66:	81 e0       	ldi	r24, 0x01	; 1
    4a68:	d7 01       	movw	r26, r14
    4a6a:	15 96       	adiw	r26, 0x05	; 5
    4a6c:	8c 93       	st	X, r24
    4a6e:	7e c1       	rjmp	.+764    	; 0x4d6c <f_lseek+0x51e>
    4a70:	8d 85       	ldd	r24, Y+13	; 0x0d
    4a72:	9e 85       	ldd	r25, Y+14	; 0x0e
    4a74:	af 85       	ldd	r26, Y+15	; 0x0f
    4a76:	b8 89       	ldd	r27, Y+16	; 0x10
    4a78:	f7 01       	movw	r30, r14
    4a7a:	86 87       	std	Z+14, r24	; 0x0e
    4a7c:	97 87       	std	Z+15, r25	; 0x0f
    4a7e:	a0 8b       	std	Z+16, r26	; 0x10
    4a80:	b1 8b       	std	Z+17, r27	; 0x11
    4a82:	8d 85       	ldd	r24, Y+13	; 0x0d
    4a84:	9e 85       	ldd	r25, Y+14	; 0x0e
    4a86:	af 85       	ldd	r26, Y+15	; 0x0f
    4a88:	b8 89       	ldd	r27, Y+16	; 0x10
    4a8a:	f7 01       	movw	r30, r14
    4a8c:	82 8b       	std	Z+18, r24	; 0x12
    4a8e:	93 8b       	std	Z+19, r25	; 0x13
    4a90:	a4 8b       	std	Z+20, r26	; 0x14
    4a92:	b5 8b       	std	Z+21, r27	; 0x15
    4a94:	8d 85       	ldd	r24, Y+13	; 0x0d
    4a96:	9e 85       	ldd	r25, Y+14	; 0x0e
    4a98:	af 85       	ldd	r26, Y+15	; 0x0f
    4a9a:	b8 89       	ldd	r27, Y+16	; 0x10
    4a9c:	89 2b       	or	r24, r25
    4a9e:	8a 2b       	or	r24, r26
    4aa0:	8b 2b       	or	r24, r27
    4aa2:	09 f4       	brne	.+2      	; 0x4aa6 <f_lseek+0x258>
    4aa4:	ed c0       	rjmp	.+474    	; 0x4c80 <f_lseek+0x432>
    4aa6:	49 89       	ldd	r20, Y+17	; 0x11
    4aa8:	5a 89       	ldd	r21, Y+18	; 0x12
    4aaa:	6b 89       	ldd	r22, Y+19	; 0x13
    4aac:	7c 89       	ldd	r23, Y+20	; 0x14
    4aae:	89 85       	ldd	r24, Y+9	; 0x09
    4ab0:	9a 85       	ldd	r25, Y+10	; 0x0a
    4ab2:	ab 85       	ldd	r26, Y+11	; 0x0b
    4ab4:	bc 85       	ldd	r27, Y+12	; 0x0c
    4ab6:	84 17       	cp	r24, r20
    4ab8:	95 07       	cpc	r25, r21
    4aba:	a6 07       	cpc	r26, r22
    4abc:	b7 07       	cpc	r27, r23
    4abe:	08 f0       	brcs	.+2      	; 0x4ac2 <f_lseek+0x274>
    4ac0:	91 c0       	rjmp	.+290    	; 0x4be4 <f_lseek+0x396>
    4ac2:	d7 01       	movw	r26, r14
    4ac4:	14 96       	adiw	r26, 0x04	; 4
    4ac6:	8c 91       	ld	r24, X
    4ac8:	14 97       	sbiw	r26, 0x04	; 4
    4aca:	81 ff       	sbrs	r24, 1
    4acc:	1d c0       	rjmp	.+58     	; 0x4b08 <f_lseek+0x2ba>
    4ace:	4d 85       	ldd	r20, Y+13	; 0x0d
    4ad0:	5e 85       	ldd	r21, Y+14	; 0x0e
    4ad2:	6f 85       	ldd	r22, Y+15	; 0x0f
    4ad4:	78 89       	ldd	r23, Y+16	; 0x10
    4ad6:	8d 91       	ld	r24, X+
    4ad8:	9c 91       	ld	r25, X
    4ada:	0e 94 63 19 	call	0x32c6	; 0x32c6 <create_chain>
    4ade:	6d 87       	std	Y+13, r22	; 0x0d
    4ae0:	7e 87       	std	Y+14, r23	; 0x0e
    4ae2:	8f 87       	std	Y+15, r24	; 0x0f
    4ae4:	98 8b       	std	Y+16, r25	; 0x10
    4ae6:	8d 85       	ldd	r24, Y+13	; 0x0d
    4ae8:	9e 85       	ldd	r25, Y+14	; 0x0e
    4aea:	af 85       	ldd	r26, Y+15	; 0x0f
    4aec:	b8 89       	ldd	r27, Y+16	; 0x10
    4aee:	89 2b       	or	r24, r25
    4af0:	8a 2b       	or	r24, r26
    4af2:	8b 2b       	or	r24, r27
    4af4:	b1 f4       	brne	.+44     	; 0x4b22 <f_lseek+0x2d4>
    4af6:	89 85       	ldd	r24, Y+9	; 0x09
    4af8:	9a 85       	ldd	r25, Y+10	; 0x0a
    4afa:	ab 85       	ldd	r26, Y+11	; 0x0b
    4afc:	bc 85       	ldd	r27, Y+12	; 0x0c
    4afe:	89 8b       	std	Y+17, r24	; 0x11
    4b00:	9a 8b       	std	Y+18, r25	; 0x12
    4b02:	ab 8b       	std	Y+19, r26	; 0x13
    4b04:	bc 8b       	std	Y+20, r27	; 0x14
    4b06:	6e c0       	rjmp	.+220    	; 0x4be4 <f_lseek+0x396>
    4b08:	4d 85       	ldd	r20, Y+13	; 0x0d
    4b0a:	5e 85       	ldd	r21, Y+14	; 0x0e
    4b0c:	6f 85       	ldd	r22, Y+15	; 0x0f
    4b0e:	78 89       	ldd	r23, Y+16	; 0x10
    4b10:	f7 01       	movw	r30, r14
    4b12:	80 81       	ld	r24, Z
    4b14:	91 81       	ldd	r25, Z+1	; 0x01
    4b16:	0e 94 a7 15 	call	0x2b4e	; 0x2b4e <get_fat>
    4b1a:	6d 87       	std	Y+13, r22	; 0x0d
    4b1c:	7e 87       	std	Y+14, r23	; 0x0e
    4b1e:	8f 87       	std	Y+15, r24	; 0x0f
    4b20:	98 8b       	std	Y+16, r25	; 0x10
    4b22:	4d 85       	ldd	r20, Y+13	; 0x0d
    4b24:	5e 85       	ldd	r21, Y+14	; 0x0e
    4b26:	6f 85       	ldd	r22, Y+15	; 0x0f
    4b28:	78 89       	ldd	r23, Y+16	; 0x10
    4b2a:	4f 3f       	cpi	r20, 0xFF	; 255
    4b2c:	5f 4f       	sbci	r21, 0xFF	; 255
    4b2e:	6f 4f       	sbci	r22, 0xFF	; 255
    4b30:	7f 4f       	sbci	r23, 0xFF	; 255
    4b32:	29 f4       	brne	.+10     	; 0x4b3e <f_lseek+0x2f0>
    4b34:	81 e0       	ldi	r24, 0x01	; 1
    4b36:	d7 01       	movw	r26, r14
    4b38:	15 96       	adiw	r26, 0x05	; 5
    4b3a:	8c 93       	st	X, r24
    4b3c:	17 c1       	rjmp	.+558    	; 0x4d6c <f_lseek+0x51e>
    4b3e:	8d 85       	ldd	r24, Y+13	; 0x0d
    4b40:	9e 85       	ldd	r25, Y+14	; 0x0e
    4b42:	af 85       	ldd	r26, Y+15	; 0x0f
    4b44:	b8 89       	ldd	r27, Y+16	; 0x10
    4b46:	02 97       	sbiw	r24, 0x02	; 2
    4b48:	a1 05       	cpc	r26, r1
    4b4a:	b1 05       	cpc	r27, r1
    4b4c:	80 f0       	brcs	.+32     	; 0x4b6e <f_lseek+0x320>
    4b4e:	d7 01       	movw	r26, r14
    4b50:	ed 91       	ld	r30, X+
    4b52:	fc 91       	ld	r31, X
    4b54:	42 89       	ldd	r20, Z+18	; 0x12
    4b56:	53 89       	ldd	r21, Z+19	; 0x13
    4b58:	64 89       	ldd	r22, Z+20	; 0x14
    4b5a:	75 89       	ldd	r23, Z+21	; 0x15
    4b5c:	8d 85       	ldd	r24, Y+13	; 0x0d
    4b5e:	9e 85       	ldd	r25, Y+14	; 0x0e
    4b60:	af 85       	ldd	r26, Y+15	; 0x0f
    4b62:	b8 89       	ldd	r27, Y+16	; 0x10
    4b64:	84 17       	cp	r24, r20
    4b66:	95 07       	cpc	r25, r21
    4b68:	a6 07       	cpc	r26, r22
    4b6a:	b7 07       	cpc	r27, r23
    4b6c:	20 f0       	brcs	.+8      	; 0x4b76 <f_lseek+0x328>
    4b6e:	82 e0       	ldi	r24, 0x02	; 2
    4b70:	f7 01       	movw	r30, r14
    4b72:	85 83       	std	Z+5, r24	; 0x05
    4b74:	fb c0       	rjmp	.+502    	; 0x4d6c <f_lseek+0x51e>
    4b76:	8d 85       	ldd	r24, Y+13	; 0x0d
    4b78:	9e 85       	ldd	r25, Y+14	; 0x0e
    4b7a:	af 85       	ldd	r26, Y+15	; 0x0f
    4b7c:	b8 89       	ldd	r27, Y+16	; 0x10
    4b7e:	f7 01       	movw	r30, r14
    4b80:	82 8b       	std	Z+18, r24	; 0x12
    4b82:	93 8b       	std	Z+19, r25	; 0x13
    4b84:	a4 8b       	std	Z+20, r26	; 0x14
    4b86:	b5 8b       	std	Z+21, r27	; 0x15
    4b88:	86 81       	ldd	r24, Z+6	; 0x06
    4b8a:	97 81       	ldd	r25, Z+7	; 0x07
    4b8c:	a0 85       	ldd	r26, Z+8	; 0x08
    4b8e:	b1 85       	ldd	r27, Z+9	; 0x09
    4b90:	49 85       	ldd	r20, Y+9	; 0x09
    4b92:	5a 85       	ldd	r21, Y+10	; 0x0a
    4b94:	6b 85       	ldd	r22, Y+11	; 0x0b
    4b96:	7c 85       	ldd	r23, Y+12	; 0x0c
    4b98:	84 0f       	add	r24, r20
    4b9a:	95 1f       	adc	r25, r21
    4b9c:	a6 1f       	adc	r26, r22
    4b9e:	b7 1f       	adc	r27, r23
    4ba0:	86 83       	std	Z+6, r24	; 0x06
    4ba2:	97 83       	std	Z+7, r25	; 0x07
    4ba4:	a0 87       	std	Z+8, r26	; 0x08
    4ba6:	b1 87       	std	Z+9, r27	; 0x09
    4ba8:	89 89       	ldd	r24, Y+17	; 0x11
    4baa:	9a 89       	ldd	r25, Y+18	; 0x12
    4bac:	ab 89       	ldd	r26, Y+19	; 0x13
    4bae:	bc 89       	ldd	r27, Y+20	; 0x14
    4bb0:	49 85       	ldd	r20, Y+9	; 0x09
    4bb2:	5a 85       	ldd	r21, Y+10	; 0x0a
    4bb4:	6b 85       	ldd	r22, Y+11	; 0x0b
    4bb6:	7c 85       	ldd	r23, Y+12	; 0x0c
    4bb8:	84 1b       	sub	r24, r20
    4bba:	95 0b       	sbc	r25, r21
    4bbc:	a6 0b       	sbc	r26, r22
    4bbe:	b7 0b       	sbc	r27, r23
    4bc0:	89 8b       	std	Y+17, r24	; 0x11
    4bc2:	9a 8b       	std	Y+18, r25	; 0x12
    4bc4:	ab 8b       	std	Y+19, r26	; 0x13
    4bc6:	bc 8b       	std	Y+20, r27	; 0x14
    4bc8:	49 89       	ldd	r20, Y+17	; 0x11
    4bca:	5a 89       	ldd	r21, Y+18	; 0x12
    4bcc:	6b 89       	ldd	r22, Y+19	; 0x13
    4bce:	7c 89       	ldd	r23, Y+20	; 0x14
    4bd0:	89 85       	ldd	r24, Y+9	; 0x09
    4bd2:	9a 85       	ldd	r25, Y+10	; 0x0a
    4bd4:	ab 85       	ldd	r26, Y+11	; 0x0b
    4bd6:	bc 85       	ldd	r27, Y+12	; 0x0c
    4bd8:	84 17       	cp	r24, r20
    4bda:	95 07       	cpc	r25, r21
    4bdc:	a6 07       	cpc	r26, r22
    4bde:	b7 07       	cpc	r27, r23
    4be0:	08 f4       	brcc	.+2      	; 0x4be4 <f_lseek+0x396>
    4be2:	6f cf       	rjmp	.-290    	; 0x4ac2 <f_lseek+0x274>
    4be4:	f7 01       	movw	r30, r14
    4be6:	86 81       	ldd	r24, Z+6	; 0x06
    4be8:	97 81       	ldd	r25, Z+7	; 0x07
    4bea:	a0 85       	ldd	r26, Z+8	; 0x08
    4bec:	b1 85       	ldd	r27, Z+9	; 0x09
    4bee:	49 89       	ldd	r20, Y+17	; 0x11
    4bf0:	5a 89       	ldd	r21, Y+18	; 0x12
    4bf2:	6b 89       	ldd	r22, Y+19	; 0x13
    4bf4:	7c 89       	ldd	r23, Y+20	; 0x14
    4bf6:	84 0f       	add	r24, r20
    4bf8:	95 1f       	adc	r25, r21
    4bfa:	a6 1f       	adc	r26, r22
    4bfc:	b7 1f       	adc	r27, r23
    4bfe:	86 83       	std	Z+6, r24	; 0x06
    4c00:	97 83       	std	Z+7, r25	; 0x07
    4c02:	a0 87       	std	Z+8, r26	; 0x08
    4c04:	b1 87       	std	Z+9, r27	; 0x09
    4c06:	89 89       	ldd	r24, Y+17	; 0x11
    4c08:	9a 89       	ldd	r25, Y+18	; 0x12
    4c0a:	ab 89       	ldd	r26, Y+19	; 0x13
    4c0c:	bc 89       	ldd	r27, Y+20	; 0x14
    4c0e:	91 70       	andi	r25, 0x01	; 1
    4c10:	aa 27       	eor	r26, r26
    4c12:	bb 27       	eor	r27, r27
    4c14:	89 2b       	or	r24, r25
    4c16:	8a 2b       	or	r24, r26
    4c18:	8b 2b       	or	r24, r27
    4c1a:	91 f1       	breq	.+100    	; 0x4c80 <f_lseek+0x432>
    4c1c:	4d 85       	ldd	r20, Y+13	; 0x0d
    4c1e:	5e 85       	ldd	r21, Y+14	; 0x0e
    4c20:	6f 85       	ldd	r22, Y+15	; 0x0f
    4c22:	78 89       	ldd	r23, Y+16	; 0x10
    4c24:	80 81       	ld	r24, Z
    4c26:	91 81       	ldd	r25, Z+1	; 0x01
    4c28:	0e 94 59 15 	call	0x2ab2	; 0x2ab2 <clust2sect>
    4c2c:	6d 83       	std	Y+5, r22	; 0x05
    4c2e:	7e 83       	std	Y+6, r23	; 0x06
    4c30:	8f 83       	std	Y+7, r24	; 0x07
    4c32:	98 87       	std	Y+8, r25	; 0x08
    4c34:	8d 81       	ldd	r24, Y+5	; 0x05
    4c36:	9e 81       	ldd	r25, Y+6	; 0x06
    4c38:	af 81       	ldd	r26, Y+7	; 0x07
    4c3a:	b8 85       	ldd	r27, Y+8	; 0x08
    4c3c:	89 2b       	or	r24, r25
    4c3e:	8a 2b       	or	r24, r26
    4c40:	8b 2b       	or	r24, r27
    4c42:	29 f4       	brne	.+10     	; 0x4c4e <f_lseek+0x400>
    4c44:	82 e0       	ldi	r24, 0x02	; 2
    4c46:	d7 01       	movw	r26, r14
    4c48:	15 96       	adiw	r26, 0x05	; 5
    4c4a:	8c 93       	st	X, r24
    4c4c:	8f c0       	rjmp	.+286    	; 0x4d6c <f_lseek+0x51e>
    4c4e:	89 89       	ldd	r24, Y+17	; 0x11
    4c50:	9a 89       	ldd	r25, Y+18	; 0x12
    4c52:	ab 89       	ldd	r26, Y+19	; 0x13
    4c54:	bc 89       	ldd	r27, Y+20	; 0x14
    4c56:	4d 81       	ldd	r20, Y+5	; 0x05
    4c58:	5e 81       	ldd	r21, Y+6	; 0x06
    4c5a:	6f 81       	ldd	r22, Y+7	; 0x07
    4c5c:	78 85       	ldd	r23, Y+8	; 0x08
    4c5e:	07 2e       	mov	r0, r23
    4c60:	79 e0       	ldi	r23, 0x09	; 9
    4c62:	b6 95       	lsr	r27
    4c64:	a7 95       	ror	r26
    4c66:	97 95       	ror	r25
    4c68:	87 95       	ror	r24
    4c6a:	7a 95       	dec	r23
    4c6c:	d1 f7       	brne	.-12     	; 0x4c62 <f_lseek+0x414>
    4c6e:	70 2d       	mov	r23, r0
    4c70:	84 0f       	add	r24, r20
    4c72:	95 1f       	adc	r25, r21
    4c74:	a6 1f       	adc	r26, r22
    4c76:	b7 1f       	adc	r27, r23
    4c78:	8d 83       	std	Y+5, r24	; 0x05
    4c7a:	9e 83       	std	Y+6, r25	; 0x06
    4c7c:	af 83       	std	Y+7, r26	; 0x07
    4c7e:	b8 87       	std	Y+8, r27	; 0x08
    4c80:	f7 01       	movw	r30, r14
    4c82:	86 81       	ldd	r24, Z+6	; 0x06
    4c84:	97 81       	ldd	r25, Z+7	; 0x07
    4c86:	a0 85       	ldd	r26, Z+8	; 0x08
    4c88:	b1 85       	ldd	r27, Z+9	; 0x09
    4c8a:	91 70       	andi	r25, 0x01	; 1
    4c8c:	aa 27       	eor	r26, r26
    4c8e:	bb 27       	eor	r27, r27
    4c90:	89 2b       	or	r24, r25
    4c92:	8a 2b       	or	r24, r26
    4c94:	8b 2b       	or	r24, r27
    4c96:	09 f4       	brne	.+2      	; 0x4c9a <f_lseek+0x44c>
    4c98:	48 c0       	rjmp	.+144    	; 0x4d2a <f_lseek+0x4dc>
    4c9a:	46 89       	ldd	r20, Z+22	; 0x16
    4c9c:	57 89       	ldd	r21, Z+23	; 0x17
    4c9e:	60 8d       	ldd	r22, Z+24	; 0x18
    4ca0:	71 8d       	ldd	r23, Z+25	; 0x19
    4ca2:	8d 81       	ldd	r24, Y+5	; 0x05
    4ca4:	9e 81       	ldd	r25, Y+6	; 0x06
    4ca6:	af 81       	ldd	r26, Y+7	; 0x07
    4ca8:	b8 85       	ldd	r27, Y+8	; 0x08
    4caa:	48 17       	cp	r20, r24
    4cac:	59 07       	cpc	r21, r25
    4cae:	6a 07       	cpc	r22, r26
    4cb0:	7b 07       	cpc	r23, r27
    4cb2:	d9 f1       	breq	.+118    	; 0x4d2a <f_lseek+0x4dc>
    4cb4:	84 81       	ldd	r24, Z+4	; 0x04
    4cb6:	86 ff       	sbrs	r24, 6
    4cb8:	1a c0       	rjmp	.+52     	; 0x4cee <f_lseek+0x4a0>
    4cba:	26 89       	ldd	r18, Z+22	; 0x16
    4cbc:	37 89       	ldd	r19, Z+23	; 0x17
    4cbe:	40 8d       	ldd	r20, Z+24	; 0x18
    4cc0:	51 8d       	ldd	r21, Z+25	; 0x19
    4cc2:	01 90       	ld	r0, Z+
    4cc4:	f0 81       	ld	r31, Z
    4cc6:	e0 2d       	mov	r30, r0
    4cc8:	81 81       	ldd	r24, Z+1	; 0x01
    4cca:	01 e0       	ldi	r16, 0x01	; 1
    4ccc:	10 e0       	ldi	r17, 0x00	; 0
    4cce:	b7 01       	movw	r22, r14
    4cd0:	60 5e       	subi	r22, 0xE0	; 224
    4cd2:	7f 4f       	sbci	r23, 0xFF	; 255
    4cd4:	0e 94 5b 39 	call	0x72b6	; 0x72b6 <disk_write>
    4cd8:	88 23       	and	r24, r24
    4cda:	29 f0       	breq	.+10     	; 0x4ce6 <f_lseek+0x498>
    4cdc:	81 e0       	ldi	r24, 0x01	; 1
    4cde:	d7 01       	movw	r26, r14
    4ce0:	15 96       	adiw	r26, 0x05	; 5
    4ce2:	8c 93       	st	X, r24
    4ce4:	43 c0       	rjmp	.+134    	; 0x4d6c <f_lseek+0x51e>
    4ce6:	f7 01       	movw	r30, r14
    4ce8:	84 81       	ldd	r24, Z+4	; 0x04
    4cea:	8f 7b       	andi	r24, 0xBF	; 191
    4cec:	84 83       	std	Z+4, r24	; 0x04
    4cee:	2d 81       	ldd	r18, Y+5	; 0x05
    4cf0:	3e 81       	ldd	r19, Y+6	; 0x06
    4cf2:	4f 81       	ldd	r20, Y+7	; 0x07
    4cf4:	58 85       	ldd	r21, Y+8	; 0x08
    4cf6:	d7 01       	movw	r26, r14
    4cf8:	ed 91       	ld	r30, X+
    4cfa:	fc 91       	ld	r31, X
    4cfc:	81 81       	ldd	r24, Z+1	; 0x01
    4cfe:	01 e0       	ldi	r16, 0x01	; 1
    4d00:	10 e0       	ldi	r17, 0x00	; 0
    4d02:	b7 01       	movw	r22, r14
    4d04:	60 5e       	subi	r22, 0xE0	; 224
    4d06:	7f 4f       	sbci	r23, 0xFF	; 255
    4d08:	0e 94 9e 38 	call	0x713c	; 0x713c <disk_read>
    4d0c:	88 23       	and	r24, r24
    4d0e:	21 f0       	breq	.+8      	; 0x4d18 <f_lseek+0x4ca>
    4d10:	81 e0       	ldi	r24, 0x01	; 1
    4d12:	f7 01       	movw	r30, r14
    4d14:	85 83       	std	Z+5, r24	; 0x05
    4d16:	2a c0       	rjmp	.+84     	; 0x4d6c <f_lseek+0x51e>
    4d18:	8d 81       	ldd	r24, Y+5	; 0x05
    4d1a:	9e 81       	ldd	r25, Y+6	; 0x06
    4d1c:	af 81       	ldd	r26, Y+7	; 0x07
    4d1e:	b8 85       	ldd	r27, Y+8	; 0x08
    4d20:	f7 01       	movw	r30, r14
    4d22:	86 8b       	std	Z+22, r24	; 0x16
    4d24:	97 8b       	std	Z+23, r25	; 0x17
    4d26:	a0 8f       	std	Z+24, r26	; 0x18
    4d28:	b1 8f       	std	Z+25, r27	; 0x19
    4d2a:	d7 01       	movw	r26, r14
    4d2c:	16 96       	adiw	r26, 0x06	; 6
    4d2e:	4d 91       	ld	r20, X+
    4d30:	5d 91       	ld	r21, X+
    4d32:	6d 91       	ld	r22, X+
    4d34:	7c 91       	ld	r23, X
    4d36:	19 97       	sbiw	r26, 0x09	; 9
    4d38:	1a 96       	adiw	r26, 0x0a	; 10
    4d3a:	8d 91       	ld	r24, X+
    4d3c:	9d 91       	ld	r25, X+
    4d3e:	0d 90       	ld	r0, X+
    4d40:	bc 91       	ld	r27, X
    4d42:	a0 2d       	mov	r26, r0
    4d44:	84 17       	cp	r24, r20
    4d46:	95 07       	cpc	r25, r21
    4d48:	a6 07       	cpc	r26, r22
    4d4a:	b7 07       	cpc	r27, r23
    4d4c:	70 f4       	brcc	.+28     	; 0x4d6a <f_lseek+0x51c>
    4d4e:	f7 01       	movw	r30, r14
    4d50:	86 81       	ldd	r24, Z+6	; 0x06
    4d52:	97 81       	ldd	r25, Z+7	; 0x07
    4d54:	a0 85       	ldd	r26, Z+8	; 0x08
    4d56:	b1 85       	ldd	r27, Z+9	; 0x09
    4d58:	82 87       	std	Z+10, r24	; 0x0a
    4d5a:	93 87       	std	Z+11, r25	; 0x0b
    4d5c:	a4 87       	std	Z+12, r26	; 0x0c
    4d5e:	b5 87       	std	Z+13, r27	; 0x0d
    4d60:	84 81       	ldd	r24, Z+4	; 0x04
    4d62:	80 62       	ori	r24, 0x20	; 32
    4d64:	84 83       	std	Z+4, r24	; 0x04
    4d66:	80 e0       	ldi	r24, 0x00	; 0
    4d68:	01 c0       	rjmp	.+2      	; 0x4d6c <f_lseek+0x51e>
    4d6a:	80 e0       	ldi	r24, 0x00	; 0
    4d6c:	68 96       	adiw	r28, 0x18	; 24
    4d6e:	cd bf       	out	0x3d, r28	; 61
    4d70:	de bf       	out	0x3e, r29	; 62
    4d72:	df 91       	pop	r29
    4d74:	cf 91       	pop	r28
    4d76:	1f 91       	pop	r17
    4d78:	0f 91       	pop	r16
    4d7a:	ff 90       	pop	r15
    4d7c:	ef 90       	pop	r14
    4d7e:	df 90       	pop	r13
    4d80:	cf 90       	pop	r12
    4d82:	bf 90       	pop	r11
    4d84:	af 90       	pop	r10
    4d86:	9f 90       	pop	r9
    4d88:	8f 90       	pop	r8
    4d8a:	7f 90       	pop	r7
    4d8c:	6f 90       	pop	r6
    4d8e:	5f 90       	pop	r5
    4d90:	4f 90       	pop	r4
    4d92:	08 95       	ret

00004d94 <f_putc>:

int f_putc (
	TCHAR c,	/* A character to be output */
	FIL* fp		/* Pointer to the file object */
)
{
    4d94:	cf 93       	push	r28
    4d96:	df 93       	push	r29
    4d98:	cd b7       	in	r28, 0x3d	; 61
    4d9a:	de b7       	in	r29, 0x3e	; 62
    4d9c:	c8 54       	subi	r28, 0x48	; 72
    4d9e:	d1 09       	sbc	r29, r1
    4da0:	cd bf       	out	0x3d, r28	; 61
    4da2:	de bf       	out	0x3e, r29	; 62
	putbuff pb;
	UINT nw;


	pb.fp = fp;			/* Initialize output buffer */
    4da4:	69 83       	std	Y+1, r22	; 0x01
    4da6:	7a 83       	std	Y+2, r23	; 0x02
	pb.nchr = pb.idx = 0;
    4da8:	1b 82       	std	Y+3, r1	; 0x03
    4daa:	1c 82       	std	Y+4, r1	; 0x04
    4dac:	1d 82       	std	Y+5, r1	; 0x05
    4dae:	1e 82       	std	Y+6, r1	; 0x06

	putc_bfd(&pb, c);	/* Put a character */
    4db0:	68 2f       	mov	r22, r24
    4db2:	ce 01       	movw	r24, r28
    4db4:	01 96       	adiw	r24, 0x01	; 1
    4db6:	34 dc       	rcall	.-1944   	; 0x4620 <putc_bfd>

	if (   pb.idx >= 0	/* Flush buffered characters to the file */
    4db8:	4b 81       	ldd	r20, Y+3	; 0x03
    4dba:	5c 81       	ldd	r21, Y+4	; 0x04
    4dbc:	55 23       	and	r21, r21
    4dbe:	bc f0       	brlt	.+46     	; 0x4dee <f_putc+0x5a>
		&& f_write(pb.fp, pb.buf, (UINT)pb.idx, &nw) == FR_OK
    4dc0:	9e 01       	movw	r18, r28
    4dc2:	29 5b       	subi	r18, 0xB9	; 185
    4dc4:	3f 4f       	sbci	r19, 0xFF	; 255
    4dc6:	be 01       	movw	r22, r28
    4dc8:	69 5f       	subi	r22, 0xF9	; 249
    4dca:	7f 4f       	sbci	r23, 0xFF	; 255
    4dcc:	89 81       	ldd	r24, Y+1	; 0x01
    4dce:	9a 81       	ldd	r25, Y+2	; 0x02
    4dd0:	d2 d9       	rcall	.-3164   	; 0x4176 <f_write>
    4dd2:	81 11       	cpse	r24, r1
    4dd4:	0f c0       	rjmp	.+30     	; 0x4df4 <f_putc+0x60>
		&& (UINT)pb.idx == nw) return pb.nchr;
    4dd6:	29 96       	adiw	r28, 0x09	; 9
    4dd8:	8e ad       	ldd	r24, Y+62	; 0x3e
    4dda:	9f ad       	ldd	r25, Y+63	; 0x3f
    4ddc:	29 97       	sbiw	r28, 0x09	; 9
    4dde:	2b 81       	ldd	r18, Y+3	; 0x03
    4de0:	3c 81       	ldd	r19, Y+4	; 0x04
    4de2:	28 17       	cp	r18, r24
    4de4:	39 07       	cpc	r19, r25
    4de6:	49 f4       	brne	.+18     	; 0x4dfa <f_putc+0x66>
    4de8:	8d 81       	ldd	r24, Y+5	; 0x05
    4dea:	9e 81       	ldd	r25, Y+6	; 0x06
    4dec:	08 c0       	rjmp	.+16     	; 0x4dfe <f_putc+0x6a>
	return EOF;
    4dee:	8f ef       	ldi	r24, 0xFF	; 255
    4df0:	9f ef       	ldi	r25, 0xFF	; 255
    4df2:	05 c0       	rjmp	.+10     	; 0x4dfe <f_putc+0x6a>
    4df4:	8f ef       	ldi	r24, 0xFF	; 255
    4df6:	9f ef       	ldi	r25, 0xFF	; 255
    4df8:	02 c0       	rjmp	.+4      	; 0x4dfe <f_putc+0x6a>
    4dfa:	8f ef       	ldi	r24, 0xFF	; 255
    4dfc:	9f ef       	ldi	r25, 0xFF	; 255
}
    4dfe:	c8 5b       	subi	r28, 0xB8	; 184
    4e00:	df 4f       	sbci	r29, 0xFF	; 255
    4e02:	cd bf       	out	0x3d, r28	; 61
    4e04:	de bf       	out	0x3e, r29	; 62
    4e06:	df 91       	pop	r29
    4e08:	cf 91       	pop	r28
    4e0a:	08 95       	ret

00004e0c <f_puts>:

int f_puts (
	const TCHAR* str,	/* Pointer to the string to be output */
	FIL* fp				/* Pointer to the file object */
)
{
    4e0c:	0f 93       	push	r16
    4e0e:	1f 93       	push	r17
    4e10:	cf 93       	push	r28
    4e12:	df 93       	push	r29
    4e14:	cd b7       	in	r28, 0x3d	; 61
    4e16:	de b7       	in	r29, 0x3e	; 62
    4e18:	c8 54       	subi	r28, 0x48	; 72
    4e1a:	d1 09       	sbc	r29, r1
    4e1c:	cd bf       	out	0x3d, r28	; 61
    4e1e:	de bf       	out	0x3e, r29	; 62
	putbuff pb;
	UINT nw;


	pb.fp = fp;				/* Initialize output buffer */
    4e20:	69 83       	std	Y+1, r22	; 0x01
    4e22:	7a 83       	std	Y+2, r23	; 0x02
	pb.nchr = pb.idx = 0;
    4e24:	1b 82       	std	Y+3, r1	; 0x03
    4e26:	1c 82       	std	Y+4, r1	; 0x04
    4e28:	1d 82       	std	Y+5, r1	; 0x05
    4e2a:	1e 82       	std	Y+6, r1	; 0x06

	while (*str)			/* Put the string */
    4e2c:	fc 01       	movw	r30, r24
    4e2e:	60 81       	ld	r22, Z
    4e30:	66 23       	and	r22, r22
    4e32:	59 f0       	breq	.+22     	; 0x4e4a <f_puts+0x3e>
    4e34:	8c 01       	movw	r16, r24
    4e36:	0f 5f       	subi	r16, 0xFF	; 255
    4e38:	1f 4f       	sbci	r17, 0xFF	; 255
		putc_bfd(&pb, *str++);
    4e3a:	ce 01       	movw	r24, r28
    4e3c:	01 96       	adiw	r24, 0x01	; 1
    4e3e:	f0 db       	rcall	.-2080   	; 0x4620 <putc_bfd>


	pb.fp = fp;				/* Initialize output buffer */
	pb.nchr = pb.idx = 0;

	while (*str)			/* Put the string */
    4e40:	f8 01       	movw	r30, r16
    4e42:	61 91       	ld	r22, Z+
    4e44:	8f 01       	movw	r16, r30
    4e46:	61 11       	cpse	r22, r1
    4e48:	f8 cf       	rjmp	.-16     	; 0x4e3a <f_puts+0x2e>
		putc_bfd(&pb, *str++);

	if (   pb.idx >= 0		/* Flush buffered characters to the file */
    4e4a:	4b 81       	ldd	r20, Y+3	; 0x03
    4e4c:	5c 81       	ldd	r21, Y+4	; 0x04
    4e4e:	55 23       	and	r21, r21
    4e50:	bc f0       	brlt	.+46     	; 0x4e80 <f_puts+0x74>
		&& f_write(pb.fp, pb.buf, (UINT)pb.idx, &nw) == FR_OK
    4e52:	9e 01       	movw	r18, r28
    4e54:	29 5b       	subi	r18, 0xB9	; 185
    4e56:	3f 4f       	sbci	r19, 0xFF	; 255
    4e58:	be 01       	movw	r22, r28
    4e5a:	69 5f       	subi	r22, 0xF9	; 249
    4e5c:	7f 4f       	sbci	r23, 0xFF	; 255
    4e5e:	89 81       	ldd	r24, Y+1	; 0x01
    4e60:	9a 81       	ldd	r25, Y+2	; 0x02
    4e62:	89 d9       	rcall	.-3310   	; 0x4176 <f_write>
    4e64:	81 11       	cpse	r24, r1
    4e66:	0f c0       	rjmp	.+30     	; 0x4e86 <f_puts+0x7a>
		&& (UINT)pb.idx == nw) return pb.nchr;
    4e68:	29 96       	adiw	r28, 0x09	; 9
    4e6a:	8e ad       	ldd	r24, Y+62	; 0x3e
    4e6c:	9f ad       	ldd	r25, Y+63	; 0x3f
    4e6e:	29 97       	sbiw	r28, 0x09	; 9
    4e70:	2b 81       	ldd	r18, Y+3	; 0x03
    4e72:	3c 81       	ldd	r19, Y+4	; 0x04
    4e74:	28 17       	cp	r18, r24
    4e76:	39 07       	cpc	r19, r25
    4e78:	49 f4       	brne	.+18     	; 0x4e8c <f_puts+0x80>
    4e7a:	8d 81       	ldd	r24, Y+5	; 0x05
    4e7c:	9e 81       	ldd	r25, Y+6	; 0x06
    4e7e:	08 c0       	rjmp	.+16     	; 0x4e90 <f_puts+0x84>
	return EOF;
    4e80:	8f ef       	ldi	r24, 0xFF	; 255
    4e82:	9f ef       	ldi	r25, 0xFF	; 255
    4e84:	05 c0       	rjmp	.+10     	; 0x4e90 <f_puts+0x84>
    4e86:	8f ef       	ldi	r24, 0xFF	; 255
    4e88:	9f ef       	ldi	r25, 0xFF	; 255
    4e8a:	02 c0       	rjmp	.+4      	; 0x4e90 <f_puts+0x84>
    4e8c:	8f ef       	ldi	r24, 0xFF	; 255
    4e8e:	9f ef       	ldi	r25, 0xFF	; 255
}
    4e90:	c8 5b       	subi	r28, 0xB8	; 184
    4e92:	df 4f       	sbci	r29, 0xFF	; 255
    4e94:	cd bf       	out	0x3d, r28	; 61
    4e96:	de bf       	out	0x3e, r29	; 62
    4e98:	df 91       	pop	r29
    4e9a:	cf 91       	pop	r28
    4e9c:	1f 91       	pop	r17
    4e9e:	0f 91       	pop	r16
    4ea0:	08 95       	ret

00004ea2 <_ZN3GPSC1Ev>:
		char c = uart.rxDequeue();
		lcd->write(c);
		
	}*/

}
    4ea2:	af 92       	push	r10
    4ea4:	bf 92       	push	r11
    4ea6:	cf 92       	push	r12
    4ea8:	ef 92       	push	r14
    4eaa:	0f 93       	push	r16
    4eac:	cf 93       	push	r28
    4eae:	df 93       	push	r29
    4eb0:	ec 01       	movw	r28, r24
    4eb2:	8b e0       	ldi	r24, 0x0B	; 11
    4eb4:	e0 e2       	ldi	r30, 0x20	; 32
    4eb6:	f0 e2       	ldi	r31, 0x20	; 32
    4eb8:	de 01       	movw	r26, r28
    4eba:	01 90       	ld	r0, Z+
    4ebc:	0d 92       	st	X+, r0
    4ebe:	8a 95       	dec	r24
    4ec0:	e1 f7       	brne	.-8      	; 0x4eba <_ZN3GPSC1Ev+0x18>
    4ec2:	8a e0       	ldi	r24, 0x0A	; 10
    4ec4:	eb e2       	ldi	r30, 0x2B	; 43
    4ec6:	f0 e2       	ldi	r31, 0x20	; 32
    4ec8:	de 01       	movw	r26, r28
    4eca:	1b 96       	adiw	r26, 0x0b	; 11
    4ecc:	01 90       	ld	r0, Z+
    4ece:	0d 92       	st	X+, r0
    4ed0:	8a 95       	dec	r24
    4ed2:	e1 f7       	brne	.-8      	; 0x4ecc <_ZN3GPSC1Ev+0x2a>
    4ed4:	fe 01       	movw	r30, r28
    4ed6:	ee 5a       	subi	r30, 0xAE	; 174
    4ed8:	ff 4f       	sbci	r31, 0xFF	; 255
    4eda:	10 82       	st	Z, r1
    4edc:	31 96       	adiw	r30, 0x01	; 1
    4ede:	10 82       	st	Z, r1
    4ee0:	5e 01       	movw	r10, r28
    4ee2:	84 e5       	ldi	r24, 0x54	; 84
    4ee4:	a8 0e       	add	r10, r24
    4ee6:	b1 1c       	adc	r11, r1
    4ee8:	40 e5       	ldi	r20, 0x50	; 80
    4eea:	50 e0       	ldi	r21, 0x00	; 0
    4eec:	6c ed       	ldi	r22, 0xDC	; 220
    4eee:	70 e0       	ldi	r23, 0x00	; 0
    4ef0:	c5 01       	movw	r24, r10
    4ef2:	0e 94 68 3c 	call	0x78d0	; 0x78d0 <_ZN10UartDriverC1Eii>
    4ef6:	0f 2e       	mov	r0, r31
    4ef8:	f0 e5       	ldi	r31, 0x50	; 80
    4efa:	cf 2e       	mov	r12, r31
    4efc:	f0 2d       	mov	r31, r0
    4efe:	0f 2e       	mov	r0, r31
    4f00:	fc e0       	ldi	r31, 0x0C	; 12
    4f02:	ef 2e       	mov	r14, r31
    4f04:	f0 2d       	mov	r31, r0
    4f06:	00 e0       	ldi	r16, 0x00	; 0
    4f08:	23 e0       	ldi	r18, 0x03	; 3
    4f0a:	40 e0       	ldi	r20, 0x00	; 0
    4f0c:	60 eb       	ldi	r22, 0xB0	; 176
    4f0e:	79 e0       	ldi	r23, 0x09	; 9
    4f10:	c5 01       	movw	r24, r10
    4f12:	0e 94 7f 3c 	call	0x78fe	; 0x78fe <_ZN10UartDriver4initEP12USART_structN10ParityMode5PMODEEN8CharSize6CHSIZEEbcc>
    4f16:	1d 8a       	std	Y+21, r1	; 0x15
    4f18:	1e 8a       	std	Y+22, r1	; 0x16
    4f1a:	de 01       	movw	r26, r28
    4f1c:	57 96       	adiw	r26, 0x17	; 23
    4f1e:	80 e0       	ldi	r24, 0x00	; 0
    4f20:	1d 92       	st	X+, r1
    4f22:	8f 5f       	subi	r24, 0xFF	; 255
    4f24:	8b 33       	cpi	r24, 0x3B	; 59
    4f26:	e1 f7       	brne	.-8      	; 0x4f20 <_ZN3GPSC1Ev+0x7e>
    4f28:	df 91       	pop	r29
    4f2a:	cf 91       	pop	r28
    4f2c:	0f 91       	pop	r16
    4f2e:	ef 90       	pop	r14
    4f30:	cf 90       	pop	r12
    4f32:	bf 90       	pop	r11
    4f34:	af 90       	pop	r10
    4f36:	08 95       	ret

00004f38 <_ZN3GPS4dumpEP3FIL>:
    4f38:	8c 5a       	subi	r24, 0xAC	; 172
    4f3a:	9f 4f       	sbci	r25, 0xFF	; 255
    4f3c:	0c 94 7b 3c 	jmp	0x78f6	; 0x78f6 <_ZN10UartDriver4dumpEP3FIL>
    4f40:	08 95       	ret

00004f42 <_ZN3GPS11cmdToStringEN4NMEA3CMDEPc>:
    4f42:	0f 93       	push	r16
    4f44:	1f 93       	push	r17
    4f46:	ca 01       	movw	r24, r20
    4f48:	20 e3       	ldi	r18, 0x30	; 48
    4f4a:	fa 01       	movw	r30, r20
    4f4c:	20 83       	st	Z, r18
    4f4e:	06 2f       	mov	r16, r22
    4f50:	10 e0       	ldi	r17, 0x00	; 0
    4f52:	07 30       	cpi	r16, 0x07	; 7
    4f54:	11 05       	cpc	r17, r1
    4f56:	00 f5       	brcc	.+64     	; 0x4f98 <_ZN3GPS11cmdToStringEN4NMEA3CMDEPc+0x56>
    4f58:	f8 01       	movw	r30, r16
    4f5a:	e2 5e       	subi	r30, 0xE2	; 226
    4f5c:	fe 4f       	sbci	r31, 0xFE	; 254
    4f5e:	0c 94 5e 3e 	jmp	0x7cbc	; 0x7cbc <__tablejump2__>
    4f62:	20 e3       	ldi	r18, 0x30	; 48
    4f64:	fa 01       	movw	r30, r20
    4f66:	21 83       	std	Z+1, r18	; 0x01
    4f68:	17 c0       	rjmp	.+46     	; 0x4f98 <_ZN3GPS11cmdToStringEN4NMEA3CMDEPc+0x56>
    4f6a:	21 e3       	ldi	r18, 0x31	; 49
    4f6c:	fa 01       	movw	r30, r20
    4f6e:	21 83       	std	Z+1, r18	; 0x01
    4f70:	13 c0       	rjmp	.+38     	; 0x4f98 <_ZN3GPS11cmdToStringEN4NMEA3CMDEPc+0x56>
    4f72:	22 e3       	ldi	r18, 0x32	; 50
    4f74:	fa 01       	movw	r30, r20
    4f76:	21 83       	std	Z+1, r18	; 0x01
    4f78:	0f c0       	rjmp	.+30     	; 0x4f98 <_ZN3GPS11cmdToStringEN4NMEA3CMDEPc+0x56>
    4f7a:	23 e3       	ldi	r18, 0x33	; 51
    4f7c:	fa 01       	movw	r30, r20
    4f7e:	21 83       	std	Z+1, r18	; 0x01
    4f80:	0b c0       	rjmp	.+22     	; 0x4f98 <_ZN3GPS11cmdToStringEN4NMEA3CMDEPc+0x56>
    4f82:	24 e3       	ldi	r18, 0x34	; 52
    4f84:	fa 01       	movw	r30, r20
    4f86:	21 83       	std	Z+1, r18	; 0x01
    4f88:	07 c0       	rjmp	.+14     	; 0x4f98 <_ZN3GPS11cmdToStringEN4NMEA3CMDEPc+0x56>
    4f8a:	25 e3       	ldi	r18, 0x35	; 53
    4f8c:	fa 01       	movw	r30, r20
    4f8e:	21 83       	std	Z+1, r18	; 0x01
    4f90:	03 c0       	rjmp	.+6      	; 0x4f98 <_ZN3GPS11cmdToStringEN4NMEA3CMDEPc+0x56>
    4f92:	28 e3       	ldi	r18, 0x38	; 56
    4f94:	fa 01       	movw	r30, r20
    4f96:	21 83       	std	Z+1, r18	; 0x01
    4f98:	1f 91       	pop	r17
    4f9a:	0f 91       	pop	r16
    4f9c:	08 95       	ret

00004f9e <_ZN3GPS11setPeriodicEN4NMEA3CMDEh>:
    4f9e:	af 92       	push	r10
    4fa0:	bf 92       	push	r11
    4fa2:	cf 92       	push	r12
    4fa4:	df 92       	push	r13
    4fa6:	ef 92       	push	r14
    4fa8:	ff 92       	push	r15
    4faa:	0f 93       	push	r16
    4fac:	1f 93       	push	r17
    4fae:	cf 93       	push	r28
    4fb0:	df 93       	push	r29
    4fb2:	00 d0       	rcall	.+0      	; 0x4fb4 <_ZN3GPS11setPeriodicEN4NMEA3CMDEh+0x16>
    4fb4:	00 d0       	rcall	.+0      	; 0x4fb6 <_ZN3GPS11setPeriodicEN4NMEA3CMDEh+0x18>
    4fb6:	cd b7       	in	r28, 0x3d	; 61
    4fb8:	de b7       	in	r29, 0x3e	; 62
    4fba:	6c 01       	movw	r12, r24
    4fbc:	a6 2e       	mov	r10, r22
    4fbe:	4e 83       	std	Y+6, r20	; 0x06
    4fc0:	1d 82       	std	Y+5, r1	; 0x05
    4fc2:	2d 81       	ldd	r18, Y+5	; 0x05
    4fc4:	8c 01       	movw	r16, r24
    4fc6:	0c 5a       	subi	r16, 0xAC	; 172
    4fc8:	1f 4f       	sbci	r17, 0xFF	; 255
    4fca:	49 e0       	ldi	r20, 0x09	; 9
    4fcc:	50 e0       	ldi	r21, 0x00	; 0
    4fce:	6f e6       	ldi	r22, 0x6F	; 111
    4fd0:	70 e2       	ldi	r23, 0x20	; 32
    4fd2:	c8 01       	movw	r24, r16
    4fd4:	0e 94 16 3d 	call	0x7a2c	; 0x7a2c <_ZN10UartDriver10sendStringEPKcih>
    4fd8:	8d 83       	std	Y+5, r24	; 0x05
    4fda:	bd 80       	ldd	r11, Y+5	; 0x05
    4fdc:	ce 01       	movw	r24, r28
    4fde:	01 96       	adiw	r24, 0x01	; 1
    4fe0:	7c 01       	movw	r14, r24
    4fe2:	ac 01       	movw	r20, r24
    4fe4:	6a 2d       	mov	r22, r10
    4fe6:	c6 01       	movw	r24, r12
    4fe8:	ac df       	rcall	.-168    	; 0x4f42 <_ZN3GPS11cmdToStringEN4NMEA3CMDEPc>
    4fea:	2b 2d       	mov	r18, r11
    4fec:	42 e0       	ldi	r20, 0x02	; 2
    4fee:	50 e0       	ldi	r21, 0x00	; 0
    4ff0:	bc 01       	movw	r22, r24
    4ff2:	c8 01       	movw	r24, r16
    4ff4:	0e 94 16 3d 	call	0x7a2c	; 0x7a2c <_ZN10UartDriver10sendStringEPKcih>
    4ff8:	8d 83       	std	Y+5, r24	; 0x05
    4ffa:	2d 81       	ldd	r18, Y+5	; 0x05
    4ffc:	44 e0       	ldi	r20, 0x04	; 4
    4ffe:	50 e0       	ldi	r21, 0x00	; 0
    5000:	69 e7       	ldi	r22, 0x79	; 121
    5002:	70 e2       	ldi	r23, 0x20	; 32
    5004:	c8 01       	movw	r24, r16
    5006:	0e 94 16 3d 	call	0x7a2c	; 0x7a2c <_ZN10UartDriver10sendStringEPKcih>
    500a:	8d 83       	std	Y+5, r24	; 0x05
    500c:	8e 81       	ldd	r24, Y+6	; 0x06
    500e:	1f 92       	push	r1
    5010:	8f 93       	push	r24
    5012:	8e e7       	ldi	r24, 0x7E	; 126
    5014:	90 e2       	ldi	r25, 0x20	; 32
    5016:	9f 93       	push	r25
    5018:	8f 93       	push	r24
    501a:	ff 92       	push	r15
    501c:	ef 92       	push	r14
    501e:	0e 94 cb 3f 	call	0x7f96	; 0x7f96 <sprintf>
    5022:	2d 81       	ldd	r18, Y+5	; 0x05
    5024:	43 e0       	ldi	r20, 0x03	; 3
    5026:	50 e0       	ldi	r21, 0x00	; 0
    5028:	b7 01       	movw	r22, r14
    502a:	c8 01       	movw	r24, r16
    502c:	0e 94 16 3d 	call	0x7a2c	; 0x7a2c <_ZN10UartDriver10sendStringEPKcih>
    5030:	8d 83       	std	Y+5, r24	; 0x05
    5032:	2d 81       	ldd	r18, Y+5	; 0x05
    5034:	44 e0       	ldi	r20, 0x04	; 4
    5036:	50 e0       	ldi	r21, 0x00	; 0
    5038:	63 e8       	ldi	r22, 0x83	; 131
    503a:	70 e2       	ldi	r23, 0x20	; 32
    503c:	c8 01       	movw	r24, r16
    503e:	0e 94 16 3d 	call	0x7a2c	; 0x7a2c <_ZN10UartDriver10sendStringEPKcih>
    5042:	8d 83       	std	Y+5, r24	; 0x05
    5044:	dd 80       	ldd	r13, Y+5	; 0x05
    5046:	8d 81       	ldd	r24, Y+5	; 0x05
    5048:	40 e1       	ldi	r20, 0x10	; 16
    504a:	b7 01       	movw	r22, r14
    504c:	90 e0       	ldi	r25, 0x00	; 0
    504e:	0e 94 a8 3f 	call	0x7f50	; 0x7f50 <__itoa_ncheck>
    5052:	2d 2d       	mov	r18, r13
    5054:	42 e0       	ldi	r20, 0x02	; 2
    5056:	50 e0       	ldi	r21, 0x00	; 0
    5058:	bc 01       	movw	r22, r24
    505a:	c8 01       	movw	r24, r16
    505c:	0e 94 16 3d 	call	0x7a2c	; 0x7a2c <_ZN10UartDriver10sendStringEPKcih>
    5060:	2d 81       	ldd	r18, Y+5	; 0x05
    5062:	42 e0       	ldi	r20, 0x02	; 2
    5064:	50 e0       	ldi	r21, 0x00	; 0
    5066:	65 e9       	ldi	r22, 0x95	; 149
    5068:	70 e2       	ldi	r23, 0x20	; 32
    506a:	c8 01       	movw	r24, r16
    506c:	0e 94 16 3d 	call	0x7a2c	; 0x7a2c <_ZN10UartDriver10sendStringEPKcih>
    5070:	0f 90       	pop	r0
    5072:	0f 90       	pop	r0
    5074:	0f 90       	pop	r0
    5076:	0f 90       	pop	r0
    5078:	0f 90       	pop	r0
    507a:	0f 90       	pop	r0
    507c:	26 96       	adiw	r28, 0x06	; 6
    507e:	cd bf       	out	0x3d, r28	; 61
    5080:	de bf       	out	0x3e, r29	; 62
    5082:	df 91       	pop	r29
    5084:	cf 91       	pop	r28
    5086:	1f 91       	pop	r17
    5088:	0f 91       	pop	r16
    508a:	ff 90       	pop	r15
    508c:	ef 90       	pop	r14
    508e:	df 90       	pop	r13
    5090:	cf 90       	pop	r12
    5092:	bf 90       	pop	r11
    5094:	af 90       	pop	r10
    5096:	08 95       	ret

00005098 <_ZN3GPS4initEv>:
    5098:	cf 93       	push	r28
    509a:	df 93       	push	r29
    509c:	ec 01       	movw	r28, r24
    509e:	20 e0       	ldi	r18, 0x00	; 0
    50a0:	4f e0       	ldi	r20, 0x0F	; 15
    50a2:	50 e0       	ldi	r21, 0x00	; 0
    50a4:	68 e8       	ldi	r22, 0x88	; 136
    50a6:	70 e2       	ldi	r23, 0x20	; 32
    50a8:	8c 5a       	subi	r24, 0xAC	; 172
    50aa:	9f 4f       	sbci	r25, 0xFF	; 255
    50ac:	0e 94 16 3d 	call	0x7a2c	; 0x7a2c <_ZN10UartDriver10sendStringEPKcih>
    50b0:	2f ef       	ldi	r18, 0xFF	; 255
    50b2:	83 ec       	ldi	r24, 0xC3	; 195
    50b4:	99 e0       	ldi	r25, 0x09	; 9
    50b6:	21 50       	subi	r18, 0x01	; 1
    50b8:	80 40       	sbci	r24, 0x00	; 0
    50ba:	90 40       	sbci	r25, 0x00	; 0
    50bc:	e1 f7       	brne	.-8      	; 0x50b6 <_ZN3GPS4initEv+0x1e>
    50be:	00 c0       	rjmp	.+0      	; 0x50c0 <_ZN3GPS4initEv+0x28>
    50c0:	00 00       	nop
    50c2:	40 e0       	ldi	r20, 0x00	; 0
    50c4:	60 e0       	ldi	r22, 0x00	; 0
    50c6:	ce 01       	movw	r24, r28
    50c8:	6a df       	rcall	.-300    	; 0x4f9e <_ZN3GPS11setPeriodicEN4NMEA3CMDEh>
    50ca:	2f ef       	ldi	r18, 0xFF	; 255
    50cc:	83 ec       	ldi	r24, 0xC3	; 195
    50ce:	99 e0       	ldi	r25, 0x09	; 9
    50d0:	21 50       	subi	r18, 0x01	; 1
    50d2:	80 40       	sbci	r24, 0x00	; 0
    50d4:	90 40       	sbci	r25, 0x00	; 0
    50d6:	e1 f7       	brne	.-8      	; 0x50d0 <_ZN3GPS4initEv+0x38>
    50d8:	00 c0       	rjmp	.+0      	; 0x50da <_ZN3GPS4initEv+0x42>
    50da:	00 00       	nop
    50dc:	40 e0       	ldi	r20, 0x00	; 0
    50de:	65 e0       	ldi	r22, 0x05	; 5
    50e0:	ce 01       	movw	r24, r28
    50e2:	5d df       	rcall	.-326    	; 0x4f9e <_ZN3GPS11setPeriodicEN4NMEA3CMDEh>
    50e4:	2f ef       	ldi	r18, 0xFF	; 255
    50e6:	83 ec       	ldi	r24, 0xC3	; 195
    50e8:	99 e0       	ldi	r25, 0x09	; 9
    50ea:	21 50       	subi	r18, 0x01	; 1
    50ec:	80 40       	sbci	r24, 0x00	; 0
    50ee:	90 40       	sbci	r25, 0x00	; 0
    50f0:	e1 f7       	brne	.-8      	; 0x50ea <_ZN3GPS4initEv+0x52>
    50f2:	00 c0       	rjmp	.+0      	; 0x50f4 <_ZN3GPS4initEv+0x5c>
    50f4:	00 00       	nop
    50f6:	40 e0       	ldi	r20, 0x00	; 0
    50f8:	62 e0       	ldi	r22, 0x02	; 2
    50fa:	ce 01       	movw	r24, r28
    50fc:	50 df       	rcall	.-352    	; 0x4f9e <_ZN3GPS11setPeriodicEN4NMEA3CMDEh>
    50fe:	2f ef       	ldi	r18, 0xFF	; 255
    5100:	83 ec       	ldi	r24, 0xC3	; 195
    5102:	99 e0       	ldi	r25, 0x09	; 9
    5104:	21 50       	subi	r18, 0x01	; 1
    5106:	80 40       	sbci	r24, 0x00	; 0
    5108:	90 40       	sbci	r25, 0x00	; 0
    510a:	e1 f7       	brne	.-8      	; 0x5104 <_ZN3GPS4initEv+0x6c>
    510c:	00 c0       	rjmp	.+0      	; 0x510e <_ZN3GPS4initEv+0x76>
    510e:	00 00       	nop
    5110:	40 e0       	ldi	r20, 0x00	; 0
    5112:	61 e0       	ldi	r22, 0x01	; 1
    5114:	ce 01       	movw	r24, r28
    5116:	43 df       	rcall	.-378    	; 0x4f9e <_ZN3GPS11setPeriodicEN4NMEA3CMDEh>
    5118:	2f ef       	ldi	r18, 0xFF	; 255
    511a:	83 ec       	ldi	r24, 0xC3	; 195
    511c:	99 e0       	ldi	r25, 0x09	; 9
    511e:	21 50       	subi	r18, 0x01	; 1
    5120:	80 40       	sbci	r24, 0x00	; 0
    5122:	90 40       	sbci	r25, 0x00	; 0
    5124:	e1 f7       	brne	.-8      	; 0x511e <_ZN3GPS4initEv+0x86>
    5126:	00 c0       	rjmp	.+0      	; 0x5128 <_ZN3GPS4initEv+0x90>
    5128:	00 00       	nop
    512a:	41 e0       	ldi	r20, 0x01	; 1
    512c:	63 e0       	ldi	r22, 0x03	; 3
    512e:	ce 01       	movw	r24, r28
    5130:	36 df       	rcall	.-404    	; 0x4f9e <_ZN3GPS11setPeriodicEN4NMEA3CMDEh>
    5132:	2f ef       	ldi	r18, 0xFF	; 255
    5134:	83 ec       	ldi	r24, 0xC3	; 195
    5136:	99 e0       	ldi	r25, 0x09	; 9
    5138:	21 50       	subi	r18, 0x01	; 1
    513a:	80 40       	sbci	r24, 0x00	; 0
    513c:	90 40       	sbci	r25, 0x00	; 0
    513e:	e1 f7       	brne	.-8      	; 0x5138 <_ZN3GPS4initEv+0xa0>
    5140:	00 c0       	rjmp	.+0      	; 0x5142 <_ZN3GPS4initEv+0xaa>
    5142:	00 00       	nop
    5144:	40 e0       	ldi	r20, 0x00	; 0
    5146:	64 e0       	ldi	r22, 0x04	; 4
    5148:	ce 01       	movw	r24, r28
    514a:	29 df       	rcall	.-430    	; 0x4f9e <_ZN3GPS11setPeriodicEN4NMEA3CMDEh>
    514c:	2f ef       	ldi	r18, 0xFF	; 255
    514e:	83 ec       	ldi	r24, 0xC3	; 195
    5150:	99 e0       	ldi	r25, 0x09	; 9
    5152:	21 50       	subi	r18, 0x01	; 1
    5154:	80 40       	sbci	r24, 0x00	; 0
    5156:	90 40       	sbci	r25, 0x00	; 0
    5158:	e1 f7       	brne	.-8      	; 0x5152 <_ZN3GPS4initEv+0xba>
    515a:	00 c0       	rjmp	.+0      	; 0x515c <_ZN3GPS4initEv+0xc4>
    515c:	00 00       	nop
    515e:	40 e0       	ldi	r20, 0x00	; 0
    5160:	66 e0       	ldi	r22, 0x06	; 6
    5162:	ce 01       	movw	r24, r28
    5164:	1c df       	rcall	.-456    	; 0x4f9e <_ZN3GPS11setPeriodicEN4NMEA3CMDEh>
    5166:	df 91       	pop	r29
    5168:	cf 91       	pop	r28
    516a:	08 95       	ret

0000516c <_ZN3GPS13interceptByteEv>:
    516c:	ff 92       	push	r15
    516e:	0f 93       	push	r16
    5170:	1f 93       	push	r17
    5172:	cf 93       	push	r28
    5174:	df 93       	push	r29
    5176:	ec 01       	movw	r28, r24
    5178:	8c 01       	movw	r16, r24
    517a:	0c 5a       	subi	r16, 0xAC	; 172
    517c:	1f 4f       	sbci	r17, 0xFF	; 255
    517e:	c8 01       	movw	r24, r16
    5180:	0e 94 12 3d 	call	0x7a24	; 0x7a24 <_ZN10UartDriver11getUARTPortEv>
    5184:	fc 01       	movw	r30, r24
    5186:	f0 80       	ld	r15, Z
    5188:	fe 01       	movw	r30, r28
    518a:	ee 5a       	subi	r30, 0xAE	; 174
    518c:	ff 4f       	sbci	r31, 0xFF	; 255
    518e:	80 81       	ld	r24, Z
    5190:	88 23       	and	r24, r24
    5192:	61 f0       	breq	.+24     	; 0x51ac <_ZN3GPS13interceptByteEv+0x40>
    5194:	6f 2d       	mov	r22, r15
    5196:	c8 01       	movw	r24, r16
    5198:	0e 94 fe 3c 	call	0x79fc	; 0x79fc <_ZN10UartDriver7rcvByteEc>
    519c:	fa e0       	ldi	r31, 0x0A	; 10
    519e:	ff 12       	cpse	r15, r31
    51a0:	05 c0       	rjmp	.+10     	; 0x51ac <_ZN3GPS13interceptByteEv+0x40>
    51a2:	cd 5a       	subi	r28, 0xAD	; 173
    51a4:	df 4f       	sbci	r29, 0xFF	; 255
    51a6:	88 81       	ld	r24, Y
    51a8:	8f 5f       	subi	r24, 0xFF	; 255
    51aa:	88 83       	st	Y, r24
    51ac:	df 91       	pop	r29
    51ae:	cf 91       	pop	r28
    51b0:	1f 91       	pop	r17
    51b2:	0f 91       	pop	r16
    51b4:	ff 90       	pop	r15
    51b6:	08 95       	ret

000051b8 <_ZN3GPS15updateRegistersEv>:
    51b8:	4f 92       	push	r4
    51ba:	5f 92       	push	r5
    51bc:	6f 92       	push	r6
    51be:	7f 92       	push	r7
    51c0:	8f 92       	push	r8
    51c2:	9f 92       	push	r9
    51c4:	af 92       	push	r10
    51c6:	bf 92       	push	r11
    51c8:	cf 92       	push	r12
    51ca:	df 92       	push	r13
    51cc:	ef 92       	push	r14
    51ce:	ff 92       	push	r15
    51d0:	0f 93       	push	r16
    51d2:	1f 93       	push	r17
    51d4:	cf 93       	push	r28
    51d6:	df 93       	push	r29
    51d8:	ec 01       	movw	r28, r24
    51da:	fc 01       	movw	r30, r24
    51dc:	ed 5a       	subi	r30, 0xAD	; 173
    51de:	ff 4f       	sbci	r31, 0xFF	; 255
    51e0:	80 81       	ld	r24, Z
    51e2:	88 23       	and	r24, r24
    51e4:	09 f4       	brne	.+2      	; 0x51e8 <_ZN3GPS15updateRegistersEv+0x30>
    51e6:	c1 c0       	rjmp	.+386    	; 0x536a <_ZN3GPS15updateRegistersEv+0x1b2>
    51e8:	82 30       	cpi	r24, 0x02	; 2
    51ea:	88 f0       	brcs	.+34     	; 0x520e <_ZN3GPS15updateRegistersEv+0x56>
    51ec:	8e 01       	movw	r16, r28
    51ee:	0c 5a       	subi	r16, 0xAC	; 172
    51f0:	1f 4f       	sbci	r17, 0xFF	; 255
    51f2:	7f 01       	movw	r14, r30
    51f4:	c8 01       	movw	r24, r16
    51f6:	0e 94 02 3d 	call	0x7a04	; 0x7a04 <_ZN10UartDriver9rxDequeueEv>
    51fa:	8a 30       	cpi	r24, 0x0A	; 10
    51fc:	d9 f7       	brne	.-10     	; 0x51f4 <_ZN3GPS15updateRegistersEv+0x3c>
    51fe:	f8 94       	cli
    5200:	f7 01       	movw	r30, r14
    5202:	80 81       	ld	r24, Z
    5204:	81 50       	subi	r24, 0x01	; 1
    5206:	80 83       	st	Z, r24
    5208:	78 94       	sei
    520a:	82 30       	cpi	r24, 0x02	; 2
    520c:	98 f7       	brcc	.-26     	; 0x51f4 <_ZN3GPS15updateRegistersEv+0x3c>
    520e:	8e 01       	movw	r16, r28
    5210:	0c 5a       	subi	r16, 0xAC	; 172
    5212:	1f 4f       	sbci	r17, 0xFF	; 255
    5214:	c8 01       	movw	r24, r16
    5216:	0e 94 02 3d 	call	0x7a04	; 0x7a04 <_ZN10UartDriver9rxDequeueEv>
    521a:	e8 2e       	mov	r14, r24
    521c:	c8 01       	movw	r24, r16
    521e:	0e 94 02 3d 	call	0x7a04	; 0x7a04 <_ZN10UartDriver9rxDequeueEv>
    5222:	87 34       	cpi	r24, 0x47	; 71
    5224:	39 f4       	brne	.+14     	; 0x5234 <_ZN3GPS15updateRegistersEv+0x7c>
    5226:	ff 24       	eor	r15, r15
    5228:	f3 94       	inc	r15
    522a:	f4 e2       	ldi	r31, 0x24	; 36
    522c:	ef 12       	cpse	r14, r31
    522e:	04 c0       	rjmp	.+8      	; 0x5238 <_ZN3GPS15updateRegistersEv+0x80>
    5230:	f1 2c       	mov	r15, r1
    5232:	02 c0       	rjmp	.+4      	; 0x5238 <_ZN3GPS15updateRegistersEv+0x80>
    5234:	ff 24       	eor	r15, r15
    5236:	f3 94       	inc	r15
    5238:	c8 01       	movw	r24, r16
    523a:	0e 94 02 3d 	call	0x7a04	; 0x7a04 <_ZN10UartDriver9rxDequeueEv>
    523e:	80 35       	cpi	r24, 0x50	; 80
    5240:	11 f0       	breq	.+4      	; 0x5246 <_ZN3GPS15updateRegistersEv+0x8e>
    5242:	ff 24       	eor	r15, r15
    5244:	f3 94       	inc	r15
    5246:	c8 01       	movw	r24, r16
    5248:	0e 94 02 3d 	call	0x7a04	; 0x7a04 <_ZN10UartDriver9rxDequeueEv>
    524c:	82 35       	cpi	r24, 0x52	; 82
    524e:	11 f0       	breq	.+4      	; 0x5254 <_ZN3GPS15updateRegistersEv+0x9c>
    5250:	ff 24       	eor	r15, r15
    5252:	f3 94       	inc	r15
    5254:	c8 01       	movw	r24, r16
    5256:	0e 94 02 3d 	call	0x7a04	; 0x7a04 <_ZN10UartDriver9rxDequeueEv>
    525a:	8d 34       	cpi	r24, 0x4D	; 77
    525c:	11 f0       	breq	.+4      	; 0x5262 <_ZN3GPS15updateRegistersEv+0xaa>
    525e:	ff 24       	eor	r15, r15
    5260:	f3 94       	inc	r15
    5262:	c8 01       	movw	r24, r16
    5264:	0e 94 02 3d 	call	0x7a04	; 0x7a04 <_ZN10UartDriver9rxDequeueEv>
    5268:	83 34       	cpi	r24, 0x43	; 67
    526a:	09 f0       	breq	.+2      	; 0x526e <_ZN3GPS15updateRegistersEv+0xb6>
    526c:	7a c0       	rjmp	.+244    	; 0x5362 <_ZN3GPS15updateRegistersEv+0x1aa>
    526e:	c8 01       	movw	r24, r16
    5270:	0e 94 02 3d 	call	0x7a04	; 0x7a04 <_ZN10UartDriver9rxDequeueEv>
    5274:	8c 32       	cpi	r24, 0x2C	; 44
    5276:	11 f4       	brne	.+4      	; 0x527c <_ZN3GPS15updateRegistersEv+0xc4>
    5278:	ff 20       	and	r15, r15
    527a:	91 f0       	breq	.+36     	; 0x52a0 <_ZN3GPS15updateRegistersEv+0xe8>
    527c:	c8 01       	movw	r24, r16
    527e:	0e 94 06 3d 	call	0x7a0c	; 0x7a0c <_ZN10UartDriver9rxIsEmptyEv>
    5282:	81 11       	cpse	r24, r1
    5284:	05 c0       	rjmp	.+10     	; 0x5290 <_ZN3GPS15updateRegistersEv+0xd8>
    5286:	c8 01       	movw	r24, r16
    5288:	0e 94 02 3d 	call	0x7a04	; 0x7a04 <_ZN10UartDriver9rxDequeueEv>
    528c:	8a 30       	cpi	r24, 0x0A	; 10
    528e:	b1 f7       	brne	.-20     	; 0x527c <_ZN3GPS15updateRegistersEv+0xc4>
    5290:	f8 94       	cli
    5292:	cd 5a       	subi	r28, 0xAD	; 173
    5294:	df 4f       	sbci	r29, 0xFF	; 255
    5296:	88 81       	ld	r24, Y
    5298:	81 50       	subi	r24, 0x01	; 1
    529a:	88 83       	st	Y, r24
    529c:	78 94       	sei
    529e:	65 c0       	rjmp	.+202    	; 0x536a <_ZN3GPS15updateRegistersEv+0x1b2>
    52a0:	4e 01       	movw	r8, r28
    52a2:	3e 01       	movw	r6, r28
    52a4:	8a e0       	ldi	r24, 0x0A	; 10
    52a6:	68 0e       	add	r6, r24
    52a8:	71 1c       	adc	r7, r1
    52aa:	6e 01       	movw	r12, r28
    52ac:	aa 24       	eor	r10, r10
    52ae:	a3 94       	inc	r10
    52b0:	b1 2c       	mov	r11, r1
    52b2:	76 01       	movw	r14, r12
    52b4:	e8 18       	sub	r14, r8
    52b6:	f9 08       	sbc	r15, r9
    52b8:	f6 01       	movw	r30, r12
    52ba:	51 90       	ld	r5, Z+
    52bc:	6f 01       	movw	r12, r30
    52be:	c5 01       	movw	r24, r10
    52c0:	02 c0       	rjmp	.+4      	; 0x52c6 <_ZN3GPS15updateRegistersEv+0x10e>
    52c2:	88 0f       	add	r24, r24
    52c4:	99 1f       	adc	r25, r25
    52c6:	ea 94       	dec	r14
    52c8:	e2 f7       	brpl	.-8      	; 0x52c2 <_ZN3GPS15updateRegistersEv+0x10a>
    52ca:	7c 01       	movw	r14, r24
    52cc:	19 c0       	rjmp	.+50     	; 0x5300 <_ZN3GPS15updateRegistersEv+0x148>
    52ce:	c8 01       	movw	r24, r16
    52d0:	0e 94 06 3d 	call	0x7a0c	; 0x7a0c <_ZN10UartDriver9rxIsEmptyEv>
    52d4:	88 23       	and	r24, r24
    52d6:	09 f0       	breq	.+2      	; 0x52da <_ZN3GPS15updateRegistersEv+0x122>
    52d8:	00 00       	nop
    52da:	25 2d       	mov	r18, r5
    52dc:	30 e0       	ldi	r19, 0x00	; 0
    52de:	fe 01       	movw	r30, r28
    52e0:	e2 0f       	add	r30, r18
    52e2:	f3 1f       	adc	r31, r19
    52e4:	87 89       	ldd	r24, Z+23	; 0x17
    52e6:	84 15       	cp	r24, r4
    52e8:	31 f0       	breq	.+12     	; 0x52f6 <_ZN3GPS15updateRegistersEv+0x13e>
    52ea:	8d 89       	ldd	r24, Y+21	; 0x15
    52ec:	9e 89       	ldd	r25, Y+22	; 0x16
    52ee:	8e 29       	or	r24, r14
    52f0:	9f 29       	or	r25, r15
    52f2:	8d 8b       	std	Y+21, r24	; 0x15
    52f4:	9e 8b       	std	Y+22, r25	; 0x16
    52f6:	53 94       	inc	r5
    52f8:	fe 01       	movw	r30, r28
    52fa:	e2 0f       	add	r30, r18
    52fc:	f3 1f       	adc	r31, r19
    52fe:	47 8a       	std	Z+23, r4	; 0x17
    5300:	c8 01       	movw	r24, r16
    5302:	0e 94 02 3d 	call	0x7a04	; 0x7a04 <_ZN10UartDriver9rxDequeueEv>
    5306:	48 2e       	mov	r4, r24
    5308:	9c e2       	ldi	r25, 0x2C	; 44
    530a:	89 13       	cpse	r24, r25
    530c:	e0 cf       	rjmp	.-64     	; 0x52ce <_ZN3GPS15updateRegistersEv+0x116>
    530e:	f6 01       	movw	r30, r12
    5310:	40 81       	ld	r20, Z
    5312:	54 16       	cp	r5, r20
    5314:	a8 f4       	brcc	.+42     	; 0x5340 <_ZN3GPS15updateRegistersEv+0x188>
    5316:	85 2d       	mov	r24, r5
    5318:	90 e0       	ldi	r25, 0x00	; 0
    531a:	fe 01       	movw	r30, r28
    531c:	e8 0f       	add	r30, r24
    531e:	f9 1f       	adc	r31, r25
    5320:	27 89       	ldd	r18, Z+23	; 0x17
    5322:	22 23       	and	r18, r18
    5324:	31 f0       	breq	.+12     	; 0x5332 <_ZN3GPS15updateRegistersEv+0x17a>
    5326:	2d 89       	ldd	r18, Y+21	; 0x15
    5328:	3e 89       	ldd	r19, Y+22	; 0x16
    532a:	2e 29       	or	r18, r14
    532c:	3f 29       	or	r19, r15
    532e:	2d 8b       	std	Y+21, r18	; 0x15
    5330:	3e 8b       	std	Y+22, r19	; 0x16
    5332:	53 94       	inc	r5
    5334:	fe 01       	movw	r30, r28
    5336:	e8 0f       	add	r30, r24
    5338:	f9 1f       	adc	r31, r25
    533a:	17 8a       	std	Z+23, r1	; 0x17
    533c:	54 16       	cp	r5, r20
    533e:	58 f3       	brcs	.-42     	; 0x5316 <_ZN3GPS15updateRegistersEv+0x15e>
    5340:	c6 14       	cp	r12, r6
    5342:	d7 04       	cpc	r13, r7
    5344:	09 f0       	breq	.+2      	; 0x5348 <_ZN3GPS15updateRegistersEv+0x190>
    5346:	b5 cf       	rjmp	.-150    	; 0x52b2 <_ZN3GPS15updateRegistersEv+0xfa>
    5348:	c8 01       	movw	r24, r16
    534a:	0e 94 02 3d 	call	0x7a04	; 0x7a04 <_ZN10UartDriver9rxDequeueEv>
    534e:	8a 30       	cpi	r24, 0x0A	; 10
    5350:	d9 f7       	brne	.-10     	; 0x5348 <_ZN3GPS15updateRegistersEv+0x190>
    5352:	f8 94       	cli
    5354:	cd 5a       	subi	r28, 0xAD	; 173
    5356:	df 4f       	sbci	r29, 0xFF	; 255
    5358:	88 81       	ld	r24, Y
    535a:	81 50       	subi	r24, 0x01	; 1
    535c:	88 83       	st	Y, r24
    535e:	78 94       	sei
    5360:	04 c0       	rjmp	.+8      	; 0x536a <_ZN3GPS15updateRegistersEv+0x1b2>
    5362:	c8 01       	movw	r24, r16
    5364:	0e 94 02 3d 	call	0x7a04	; 0x7a04 <_ZN10UartDriver9rxDequeueEv>
    5368:	89 cf       	rjmp	.-238    	; 0x527c <_ZN3GPS15updateRegistersEv+0xc4>
    536a:	df 91       	pop	r29
    536c:	cf 91       	pop	r28
    536e:	1f 91       	pop	r17
    5370:	0f 91       	pop	r16
    5372:	ff 90       	pop	r15
    5374:	ef 90       	pop	r14
    5376:	df 90       	pop	r13
    5378:	cf 90       	pop	r12
    537a:	bf 90       	pop	r11
    537c:	af 90       	pop	r10
    537e:	9f 90       	pop	r9
    5380:	8f 90       	pop	r8
    5382:	7f 90       	pop	r7
    5384:	6f 90       	pop	r6
    5386:	5f 90       	pop	r5
    5388:	4f 90       	pop	r4
    538a:	08 95       	ret

0000538c <_ZN3GPS9getStatusEv>:
    538c:	fc 01       	movw	r30, r24
    538e:	85 89       	ldd	r24, Z+21	; 0x15
    5390:	96 89       	ldd	r25, Z+22	; 0x16
    5392:	08 95       	ret

00005394 <_ZN3GPS11clearStatusEv>:
    5394:	fc 01       	movw	r30, r24
    5396:	15 8a       	std	Z+21, r1	; 0x15
    5398:	16 8a       	std	Z+22, r1	; 0x16
    539a:	08 95       	ret

0000539c <_ZN3GPS8retrieveEN6GPSVAL3VALEPc>:

char * GPS::retrieve(GPSVAL::VAL value, char * b) {
    539c:	ef 92       	push	r14
    539e:	ff 92       	push	r15
    53a0:	0f 93       	push	r16
    53a2:	1f 93       	push	r17
    53a4:	cf 93       	push	r28
    53a6:	df 93       	push	r29
	uint8_t i,y;
	y = 0;
	for (i = offsets[value]; i<offsets[value] + sizes[value]; i++, y++) {
    53a8:	c6 2f       	mov	r28, r22
    53aa:	d0 e0       	ldi	r29, 0x00	; 0
    53ac:	fc 01       	movw	r30, r24
    53ae:	ec 0f       	add	r30, r28
    53b0:	fd 1f       	adc	r31, r29
    53b2:	00 81       	ld	r16, Z
    53b4:	20 2f       	mov	r18, r16
    53b6:	30 e0       	ldi	r19, 0x00	; 0
    53b8:	63 85       	ldd	r22, Z+11	; 0x0b
    53ba:	79 01       	movw	r14, r18
    53bc:	e6 0e       	add	r14, r22
    53be:	f1 1c       	adc	r15, r1
    53c0:	2e 15       	cp	r18, r14
    53c2:	3f 05       	cpc	r19, r15
    53c4:	64 f5       	brge	.+88     	; 0x541e <_ZN3GPS8retrieveEN6GPSVAL3VALEPc+0x82>
		b[y] = buffer[i];
    53c6:	fc 01       	movw	r30, r24
    53c8:	e2 0f       	add	r30, r18
    53ca:	f3 1f       	adc	r31, r19
    53cc:	27 89       	ldd	r18, Z+23	; 0x17
    53ce:	da 01       	movw	r26, r20
    53d0:	2c 93       	st	X, r18
		if (buffer[i] == '\0') return b;
    53d2:	27 89       	ldd	r18, Z+23	; 0x17
    53d4:	22 23       	and	r18, r18
    53d6:	41 f1       	breq	.+80     	; 0x5428 <_ZN3GPS8retrieveEN6GPSVAL3VALEPc+0x8c>
}

char * GPS::retrieve(GPSVAL::VAL value, char * b) {
	uint8_t i,y;
	y = 0;
	for (i = offsets[value]; i<offsets[value] + sizes[value]; i++, y++) {
    53d8:	10 2f       	mov	r17, r16
    53da:	c8 0f       	add	r28, r24
    53dc:	d9 1f       	adc	r29, r25
    53de:	be 01       	movw	r22, r28
    53e0:	65 5f       	subi	r22, 0xF5	; 245
    53e2:	7f 4f       	sbci	r23, 0xFF	; 255
    53e4:	0c c0       	rjmp	.+24     	; 0x53fe <_ZN3GPS8retrieveEN6GPSVAL3VALEPc+0x62>
		b[y] = buffer[i];
    53e6:	fc 01       	movw	r30, r24
    53e8:	e2 0f       	add	r30, r18
    53ea:	f3 1f       	adc	r31, r19
    53ec:	27 89       	ldd	r18, Z+23	; 0x17
    53ee:	7a 01       	movw	r14, r20
    53f0:	ea 0e       	add	r14, r26
    53f2:	f1 1c       	adc	r15, r1
    53f4:	d7 01       	movw	r26, r14
    53f6:	2c 93       	st	X, r18
		if (buffer[i] == '\0') return b;
    53f8:	27 89       	ldd	r18, Z+23	; 0x17
    53fa:	22 23       	and	r18, r18
    53fc:	a9 f0       	breq	.+42     	; 0x5428 <_ZN3GPS8retrieveEN6GPSVAL3VALEPc+0x8c>
}

char * GPS::retrieve(GPSVAL::VAL value, char * b) {
	uint8_t i,y;
	y = 0;
	for (i = offsets[value]; i<offsets[value] + sizes[value]; i++, y++) {
    53fe:	1f 5f       	subi	r17, 0xFF	; 255
    5400:	a1 2f       	mov	r26, r17
    5402:	a0 1b       	sub	r26, r16
    5404:	21 2f       	mov	r18, r17
    5406:	30 e0       	ldi	r19, 0x00	; 0
    5408:	b8 81       	ld	r27, Y
    540a:	fb 01       	movw	r30, r22
    540c:	f0 80       	ld	r15, Z
    540e:	ef 2d       	mov	r30, r15
    5410:	f0 e0       	ldi	r31, 0x00	; 0
    5412:	eb 0f       	add	r30, r27
    5414:	f1 1d       	adc	r31, r1
    5416:	2e 17       	cp	r18, r30
    5418:	3f 07       	cpc	r19, r31
    541a:	2c f3       	brlt	.-54     	; 0x53e6 <_ZN3GPS8retrieveEN6GPSVAL3VALEPc+0x4a>
    541c:	01 c0       	rjmp	.+2      	; 0x5420 <_ZN3GPS8retrieveEN6GPSVAL3VALEPc+0x84>

}

char * GPS::retrieve(GPSVAL::VAL value, char * b) {
	uint8_t i,y;
	y = 0;
    541e:	a0 e0       	ldi	r26, 0x00	; 0
	for (i = offsets[value]; i<offsets[value] + sizes[value]; i++, y++) {
		b[y] = buffer[i];
		if (buffer[i] == '\0') return b;
	}
	b[y] = '\0';
    5420:	fa 01       	movw	r30, r20
    5422:	ea 0f       	add	r30, r26
    5424:	f1 1d       	adc	r31, r1
    5426:	10 82       	st	Z, r1
	return b;
}
    5428:	ca 01       	movw	r24, r20
    542a:	df 91       	pop	r29
    542c:	cf 91       	pop	r28
    542e:	1f 91       	pop	r17
    5430:	0f 91       	pop	r16
    5432:	ff 90       	pop	r15
    5434:	ef 90       	pop	r14
    5436:	08 95       	ret

00005438 <_ZN3GPS9handleDREEv>:

 void GPS::handleDRE() {
    5438:	0f 93       	push	r16
    543a:	1f 93       	push	r17
    543c:	cf 93       	push	r28
    543e:	df 93       	push	r29
	 if (!uart.txIsEmpty()) {
    5440:	ec 01       	movw	r28, r24
    5442:	cc 5a       	subi	r28, 0xAC	; 172
    5444:	df 4f       	sbci	r29, 0xFF	; 255
    5446:	ce 01       	movw	r24, r28
    5448:	0e 94 0a 3d 	call	0x7a14	; 0x7a14 <_ZN10UartDriver9txIsEmptyEv>
    544c:	81 11       	cpse	r24, r1
    544e:	0a c0       	rjmp	.+20     	; 0x5464 <_ZN3GPS9handleDREEv+0x2c>
		 uart.getUARTPort()->DATA = uart.txDequeue();
    5450:	ce 01       	movw	r24, r28
    5452:	0e 94 12 3d 	call	0x7a24	; 0x7a24 <_ZN10UartDriver11getUARTPortEv>
    5456:	8c 01       	movw	r16, r24
    5458:	ce 01       	movw	r24, r28
    545a:	0e 94 0e 3d 	call	0x7a1c	; 0x7a1c <_ZN10UartDriver9txDequeueEv>
    545e:	f8 01       	movw	r30, r16
    5460:	80 83       	st	Z, r24
    5462:	07 c0       	rjmp	.+14     	; 0x5472 <_ZN3GPS9handleDREEv+0x3a>
	 } else {
		 uart.getUARTPort()->CTRLA &= ~(0x03); //Disable DREint
    5464:	ce 01       	movw	r24, r28
    5466:	0e 94 12 3d 	call	0x7a24	; 0x7a24 <_ZN10UartDriver11getUARTPortEv>
    546a:	fc 01       	movw	r30, r24
    546c:	23 81       	ldd	r18, Z+3	; 0x03
    546e:	2c 7f       	andi	r18, 0xFC	; 252
    5470:	23 83       	std	Z+3, r18	; 0x03
	 }
 }
    5472:	df 91       	pop	r29
    5474:	cf 91       	pop	r28
    5476:	1f 91       	pop	r17
    5478:	0f 91       	pop	r16
    547a:	08 95       	ret

0000547c <_ZN3GPS14startReceivingEv>:
 
 void GPS::startReceiving() {
	 allowRcv = true;
    547c:	8e 5a       	subi	r24, 0xAE	; 174
    547e:	9f 4f       	sbci	r25, 0xFF	; 255
    5480:	21 e0       	ldi	r18, 0x01	; 1
    5482:	fc 01       	movw	r30, r24
    5484:	20 83       	st	Z, r18
    5486:	08 95       	ret

00005488 <_ZN10LCD_Driver4initEv>:
		asm("NOP");
		_delay_ms(10);
		asm("NOP");
	}
	LCD_DATA_PORT.DIR= 0xFF;
}
    5488:	dc 01       	movw	r26, r24
    548a:	e0 e6       	ldi	r30, 0x60	; 96
    548c:	f6 e0       	ldi	r31, 0x06	; 6
    548e:	81 81       	ldd	r24, Z+1	; 0x01
    5490:	81 60       	ori	r24, 0x01	; 1
    5492:	81 83       	std	Z+1, r24	; 0x01
    5494:	84 81       	ldd	r24, Z+4	; 0x04
    5496:	81 60       	ori	r24, 0x01	; 1
    5498:	84 83       	std	Z+4, r24	; 0x04
    549a:	8f ef       	ldi	r24, 0xFF	; 255
    549c:	e0 e4       	ldi	r30, 0x40	; 64
    549e:	f6 e0       	ldi	r31, 0x06	; 6
    54a0:	81 83       	std	Z+1, r24	; 0x01
    54a2:	e0 e0       	ldi	r30, 0x00	; 0
    54a4:	f6 e0       	ldi	r31, 0x06	; 6
    54a6:	81 81       	ldd	r24, Z+1	; 0x01
    54a8:	88 60       	ori	r24, 0x08	; 8
    54aa:	81 83       	std	Z+1, r24	; 0x01
    54ac:	81 81       	ldd	r24, Z+1	; 0x01
    54ae:	84 60       	ori	r24, 0x04	; 4
    54b0:	81 83       	std	Z+1, r24	; 0x01
    54b2:	81 81       	ldd	r24, Z+1	; 0x01
    54b4:	82 60       	ori	r24, 0x02	; 2
    54b6:	81 83       	std	Z+1, r24	; 0x01
    54b8:	81 81       	ldd	r24, Z+1	; 0x01
    54ba:	81 60       	ori	r24, 0x01	; 1
    54bc:	81 83       	std	Z+1, r24	; 0x01
    54be:	84 81       	ldd	r24, Z+4	; 0x04
    54c0:	81 60       	ori	r24, 0x01	; 1
    54c2:	84 83       	std	Z+4, r24	; 0x04
    54c4:	84 81       	ldd	r24, Z+4	; 0x04
    54c6:	84 60       	ori	r24, 0x04	; 4
    54c8:	84 83       	std	Z+4, r24	; 0x04
    54ca:	84 81       	ldd	r24, Z+4	; 0x04
    54cc:	88 60       	ori	r24, 0x08	; 8
    54ce:	84 83       	std	Z+4, r24	; 0x04
    54d0:	84 81       	ldd	r24, Z+4	; 0x04
    54d2:	82 60       	ori	r24, 0x02	; 2
    54d4:	84 83       	std	Z+4, r24	; 0x04
    54d6:	55 96       	adiw	r26, 0x15	; 21
    54d8:	1c 92       	st	X, r1
    54da:	55 97       	sbiw	r26, 0x15	; 21
    54dc:	1a 96       	adiw	r26, 0x0a	; 10
    54de:	1d 92       	st	X+, r1
    54e0:	1c 92       	st	X, r1
    54e2:	1b 97       	sbiw	r26, 0x0b	; 11
    54e4:	1c 96       	adiw	r26, 0x0c	; 12
    54e6:	1d 92       	st	X+, r1
    54e8:	1c 92       	st	X, r1
    54ea:	1d 97       	sbiw	r26, 0x0d	; 13
    54ec:	81 e0       	ldi	r24, 0x01	; 1
    54ee:	54 96       	adiw	r26, 0x14	; 20
    54f0:	8c 93       	st	X, r24
    54f2:	54 97       	sbiw	r26, 0x14	; 20
    54f4:	50 96       	adiw	r26, 0x10	; 16
    54f6:	1d 92       	st	X+, r1
    54f8:	1c 92       	st	X, r1
    54fa:	51 97       	sbiw	r26, 0x11	; 17
    54fc:	80 e4       	ldi	r24, 0x40	; 64
    54fe:	91 e0       	ldi	r25, 0x01	; 1
    5500:	16 96       	adiw	r26, 0x06	; 6
    5502:	8d 93       	st	X+, r24
    5504:	9c 93       	st	X, r25
    5506:	17 97       	sbiw	r26, 0x07	; 7
    5508:	80 ee       	ldi	r24, 0xE0	; 224
    550a:	91 e0       	ldi	r25, 0x01	; 1
    550c:	18 96       	adiw	r26, 0x08	; 8
    550e:	8d 93       	st	X+, r24
    5510:	9c 93       	st	X, r25
    5512:	19 97       	sbiw	r26, 0x09	; 9
    5514:	08 95       	ret

00005516 <_ZN10LCD_DriverC1Ev>:
    5516:	cf 93       	push	r28
    5518:	df 93       	push	r29
    551a:	ec 01       	movw	r28, r24
    551c:	40 ee       	ldi	r20, 0xE0	; 224
    551e:	51 e0       	ldi	r21, 0x01	; 1
    5520:	60 e4       	ldi	r22, 0x40	; 64
    5522:	71 e0       	ldi	r23, 0x01	; 1
    5524:	0e 94 88 05 	call	0xb10	; 0xb10 <_ZN12Adafruit_GFXC1Eii>
    5528:	88 ee       	ldi	r24, 0xE8	; 232
    552a:	90 e2       	ldi	r25, 0x20	; 32
    552c:	88 83       	st	Y, r24
    552e:	99 83       	std	Y+1, r25	; 0x01
    5530:	ce 01       	movw	r24, r28
    5532:	aa df       	rcall	.-172    	; 0x5488 <_ZN10LCD_Driver4initEv>
    5534:	df 91       	pop	r29
    5536:	cf 91       	pop	r28
    5538:	08 95       	ret

0000553a <_ZN10LCD_Driver9writeDataEh>:
    553a:	e0 e4       	ldi	r30, 0x40	; 64
    553c:	f6 e0       	ldi	r31, 0x06	; 6
    553e:	64 83       	std	Z+4, r22	; 0x04
    5540:	e0 e0       	ldi	r30, 0x00	; 0
    5542:	f6 e0       	ldi	r31, 0x06	; 6
    5544:	84 81       	ldd	r24, Z+4	; 0x04
    5546:	8b 7f       	andi	r24, 0xFB	; 251
    5548:	84 83       	std	Z+4, r24	; 0x04
    554a:	84 81       	ldd	r24, Z+4	; 0x04
    554c:	84 60       	ori	r24, 0x04	; 4
    554e:	84 83       	std	Z+4, r24	; 0x04
    5550:	08 95       	ret

00005552 <_ZN10LCD_Driver5resetEv>:
    5552:	cf 93       	push	r28
    5554:	df 93       	push	r29
    5556:	e0 e0       	ldi	r30, 0x00	; 0
    5558:	f6 e0       	ldi	r31, 0x06	; 6
    555a:	24 81       	ldd	r18, Z+4	; 0x04
    555c:	21 60       	ori	r18, 0x01	; 1
    555e:	24 83       	std	Z+4, r18	; 0x04
    5560:	24 81       	ldd	r18, Z+4	; 0x04
    5562:	24 60       	ori	r18, 0x04	; 4
    5564:	24 83       	std	Z+4, r18	; 0x04
    5566:	24 81       	ldd	r18, Z+4	; 0x04
    5568:	28 60       	ori	r18, 0x08	; 8
    556a:	24 83       	std	Z+4, r18	; 0x04
    556c:	e0 e6       	ldi	r30, 0x60	; 96
    556e:	f6 e0       	ldi	r31, 0x06	; 6
    5570:	24 81       	ldd	r18, Z+4	; 0x04
    5572:	2e 7f       	andi	r18, 0xFE	; 254
    5574:	24 83       	std	Z+4, r18	; 0x04
    5576:	e7 ee       	ldi	r30, 0xE7	; 231
    5578:	f3 e0       	ldi	r31, 0x03	; 3
    557a:	31 97       	sbiw	r30, 0x01	; 1
    557c:	f1 f7       	brne	.-4      	; 0x557a <_ZN10LCD_Driver5resetEv+0x28>
    557e:	00 c0       	rjmp	.+0      	; 0x5580 <_ZN10LCD_Driver5resetEv+0x2e>
    5580:	00 00       	nop
    5582:	e0 e6       	ldi	r30, 0x60	; 96
    5584:	f6 e0       	ldi	r31, 0x06	; 6
    5586:	24 81       	ldd	r18, Z+4	; 0x04
    5588:	21 60       	ori	r18, 0x01	; 1
    558a:	24 83       	std	Z+4, r18	; 0x04
    558c:	c0 e0       	ldi	r28, 0x00	; 0
    558e:	d6 e0       	ldi	r29, 0x06	; 6
    5590:	2c 81       	ldd	r18, Y+4	; 0x04
    5592:	2e 7f       	andi	r18, 0xFE	; 254
    5594:	2c 83       	std	Y+4, r18	; 0x04
    5596:	2c 81       	ldd	r18, Y+4	; 0x04
    5598:	2d 7f       	andi	r18, 0xFD	; 253
    559a:	2c 83       	std	Y+4, r18	; 0x04
    559c:	60 e0       	ldi	r22, 0x00	; 0
    559e:	cd df       	rcall	.-102    	; 0x553a <_ZN10LCD_Driver9writeDataEh>
    55a0:	8c 81       	ldd	r24, Y+4	; 0x04
    55a2:	8b 7f       	andi	r24, 0xFB	; 251
    55a4:	8c 83       	std	Y+4, r24	; 0x04
    55a6:	8c 81       	ldd	r24, Y+4	; 0x04
    55a8:	84 60       	ori	r24, 0x04	; 4
    55aa:	8c 83       	std	Y+4, r24	; 0x04
    55ac:	8c 81       	ldd	r24, Y+4	; 0x04
    55ae:	8b 7f       	andi	r24, 0xFB	; 251
    55b0:	8c 83       	std	Y+4, r24	; 0x04
    55b2:	8c 81       	ldd	r24, Y+4	; 0x04
    55b4:	84 60       	ori	r24, 0x04	; 4
    55b6:	8c 83       	std	Y+4, r24	; 0x04
    55b8:	8c 81       	ldd	r24, Y+4	; 0x04
    55ba:	8b 7f       	andi	r24, 0xFB	; 251
    55bc:	8c 83       	std	Y+4, r24	; 0x04
    55be:	8c 81       	ldd	r24, Y+4	; 0x04
    55c0:	84 60       	ori	r24, 0x04	; 4
    55c2:	8c 83       	std	Y+4, r24	; 0x04
    55c4:	8c 81       	ldd	r24, Y+4	; 0x04
    55c6:	81 60       	ori	r24, 0x01	; 1
    55c8:	8c 83       	std	Y+4, r24	; 0x04
    55ca:	df 91       	pop	r29
    55cc:	cf 91       	pop	r28
    55ce:	08 95       	ret

000055d0 <_ZN10LCD_Driver5beginEv>:
    55d0:	ef 92       	push	r14
    55d2:	ff 92       	push	r15
    55d4:	0f 93       	push	r16
    55d6:	1f 93       	push	r17
    55d8:	cf 93       	push	r28
    55da:	df 93       	push	r29
    55dc:	cd b7       	in	r28, 0x3d	; 61
    55de:	de b7       	in	r29, 0x3e	; 62
    55e0:	25 97       	sbiw	r28, 0x05	; 5
    55e2:	cd bf       	out	0x3d, r28	; 61
    55e4:	de bf       	out	0x3e, r29	; 62
    55e6:	8c 01       	movw	r16, r24
    55e8:	1d 82       	std	Y+5, r1	; 0x05
    55ea:	b3 df       	rcall	.-154    	; 0x5552 <_ZN10LCD_Driver5resetEv>
    55ec:	2f e7       	ldi	r18, 0x7F	; 127
    55ee:	88 e3       	ldi	r24, 0x38	; 56
    55f0:	91 e0       	ldi	r25, 0x01	; 1
    55f2:	21 50       	subi	r18, 0x01	; 1
    55f4:	80 40       	sbci	r24, 0x00	; 0
    55f6:	90 40       	sbci	r25, 0x00	; 0
    55f8:	e1 f7       	brne	.-8      	; 0x55f2 <_ZN10LCD_Driver5beginEv+0x22>
    55fa:	00 c0       	rjmp	.+0      	; 0x55fc <_ZN10LCD_Driver5beginEv+0x2c>
    55fc:	00 00       	nop
    55fe:	e0 e0       	ldi	r30, 0x00	; 0
    5600:	f6 e0       	ldi	r31, 0x06	; 6
    5602:	84 81       	ldd	r24, Z+4	; 0x04
    5604:	8e 7f       	andi	r24, 0xFE	; 254
    5606:	84 83       	std	Z+4, r24	; 0x04
    5608:	0f 2e       	mov	r0, r31
    560a:	e1 2c       	mov	r14, r1
    560c:	f6 e0       	ldi	r31, 0x06	; 6
    560e:	ff 2e       	mov	r15, r31
    5610:	f0 2d       	mov	r31, r0
    5612:	49 c0       	rjmp	.+146    	; 0x56a6 <_ZN10LCD_Driver5beginEv+0xd6>
    5614:	ed 81       	ldd	r30, Y+5	; 0x05
    5616:	81 e0       	ldi	r24, 0x01	; 1
    5618:	8e 0f       	add	r24, r30
    561a:	8d 83       	std	Y+5, r24	; 0x05
    561c:	f0 e0       	ldi	r31, 0x00	; 0
    561e:	e2 56       	subi	r30, 0x62	; 98
    5620:	ff 4d       	sbci	r31, 0xDF	; 223
    5622:	80 81       	ld	r24, Z
    5624:	8c 83       	std	Y+4, r24	; 0x04
    5626:	ed 81       	ldd	r30, Y+5	; 0x05
    5628:	81 e0       	ldi	r24, 0x01	; 1
    562a:	8e 0f       	add	r24, r30
    562c:	8d 83       	std	Y+5, r24	; 0x05
    562e:	f0 e0       	ldi	r31, 0x00	; 0
    5630:	e2 56       	subi	r30, 0x62	; 98
    5632:	ff 4d       	sbci	r31, 0xDF	; 223
    5634:	80 81       	ld	r24, Z
    5636:	8b 83       	std	Y+3, r24	; 0x03
    5638:	8c 81       	ldd	r24, Y+4	; 0x04
    563a:	81 11       	cpse	r24, r1
    563c:	0a c0       	rjmp	.+20     	; 0x5652 <_ZN10LCD_Driver5beginEv+0x82>
    563e:	ef eb       	ldi	r30, 0xBF	; 191
    5640:	f4 ed       	ldi	r31, 0xD4	; 212
    5642:	21 e0       	ldi	r18, 0x01	; 1
    5644:	e1 50       	subi	r30, 0x01	; 1
    5646:	f0 40       	sbci	r31, 0x00	; 0
    5648:	20 40       	sbci	r18, 0x00	; 0
    564a:	e1 f7       	brne	.-8      	; 0x5644 <_ZN10LCD_Driver5beginEv+0x74>
    564c:	00 c0       	rjmp	.+0      	; 0x564e <_ZN10LCD_Driver5beginEv+0x7e>
    564e:	00 00       	nop
    5650:	2a c0       	rjmp	.+84     	; 0x56a6 <_ZN10LCD_Driver5beginEv+0xd6>
    5652:	f7 01       	movw	r30, r14
    5654:	84 81       	ldd	r24, Z+4	; 0x04
    5656:	8e 7f       	andi	r24, 0xFE	; 254
    5658:	84 83       	std	Z+4, r24	; 0x04
    565a:	84 81       	ldd	r24, Z+4	; 0x04
    565c:	8d 7f       	andi	r24, 0xFD	; 253
    565e:	84 83       	std	Z+4, r24	; 0x04
    5660:	6c 81       	ldd	r22, Y+4	; 0x04
    5662:	c8 01       	movw	r24, r16
    5664:	6a df       	rcall	.-300    	; 0x553a <_ZN10LCD_Driver9writeDataEh>
    5666:	f7 01       	movw	r30, r14
    5668:	84 81       	ldd	r24, Z+4	; 0x04
    566a:	82 60       	ori	r24, 0x02	; 2
    566c:	84 83       	std	Z+4, r24	; 0x04
    566e:	1a 82       	std	Y+2, r1	; 0x02
    5670:	9a 81       	ldd	r25, Y+2	; 0x02
    5672:	8b 81       	ldd	r24, Y+3	; 0x03
    5674:	98 17       	cp	r25, r24
    5676:	98 f4       	brcc	.+38     	; 0x569e <_ZN10LCD_Driver5beginEv+0xce>
    5678:	ed 81       	ldd	r30, Y+5	; 0x05
    567a:	81 e0       	ldi	r24, 0x01	; 1
    567c:	8e 0f       	add	r24, r30
    567e:	8d 83       	std	Y+5, r24	; 0x05
    5680:	f0 e0       	ldi	r31, 0x00	; 0
    5682:	e2 56       	subi	r30, 0x62	; 98
    5684:	ff 4d       	sbci	r31, 0xDF	; 223
    5686:	80 81       	ld	r24, Z
    5688:	89 83       	std	Y+1, r24	; 0x01
    568a:	69 81       	ldd	r22, Y+1	; 0x01
    568c:	c8 01       	movw	r24, r16
    568e:	55 df       	rcall	.-342    	; 0x553a <_ZN10LCD_Driver9writeDataEh>
    5690:	8a 81       	ldd	r24, Y+2	; 0x02
    5692:	8f 5f       	subi	r24, 0xFF	; 255
    5694:	8a 83       	std	Y+2, r24	; 0x02
    5696:	9a 81       	ldd	r25, Y+2	; 0x02
    5698:	8b 81       	ldd	r24, Y+3	; 0x03
    569a:	98 17       	cp	r25, r24
    569c:	68 f3       	brcs	.-38     	; 0x5678 <_ZN10LCD_Driver5beginEv+0xa8>
    569e:	f7 01       	movw	r30, r14
    56a0:	84 81       	ldd	r24, Z+4	; 0x04
    56a2:	81 60       	ori	r24, 0x01	; 1
    56a4:	84 83       	std	Z+4, r24	; 0x04
    56a6:	8d 81       	ldd	r24, Y+5	; 0x05
    56a8:	86 34       	cpi	r24, 0x46	; 70
    56aa:	08 f4       	brcc	.+2      	; 0x56ae <_ZN10LCD_Driver5beginEv+0xde>
    56ac:	b3 cf       	rjmp	.-154    	; 0x5614 <_ZN10LCD_Driver5beginEv+0x44>
    56ae:	25 96       	adiw	r28, 0x05	; 5
    56b0:	cd bf       	out	0x3d, r28	; 61
    56b2:	de bf       	out	0x3e, r29	; 62
    56b4:	df 91       	pop	r29
    56b6:	cf 91       	pop	r28
    56b8:	1f 91       	pop	r17
    56ba:	0f 91       	pop	r16
    56bc:	ff 90       	pop	r15
    56be:	ef 90       	pop	r14
    56c0:	08 95       	ret

000056c2 <_ZN10LCD_Driver5floodEjm>:
    56c2:	4f 92       	push	r4
    56c4:	5f 92       	push	r5
    56c6:	6f 92       	push	r6
    56c8:	7f 92       	push	r7
    56ca:	af 92       	push	r10
    56cc:	bf 92       	push	r11
    56ce:	cf 92       	push	r12
    56d0:	df 92       	push	r13
    56d2:	ef 92       	push	r14
    56d4:	ff 92       	push	r15
    56d6:	0f 93       	push	r16
    56d8:	1f 93       	push	r17
    56da:	cf 93       	push	r28
    56dc:	df 93       	push	r29
    56de:	cd b7       	in	r28, 0x3d	; 61
    56e0:	de b7       	in	r29, 0x3e	; 62
    56e2:	28 97       	sbiw	r28, 0x08	; 8
    56e4:	cd bf       	out	0x3d, r28	; 61
    56e6:	de bf       	out	0x3e, r29	; 62
    56e8:	8c 01       	movw	r16, r24
    56ea:	d6 2e       	mov	r13, r22
    56ec:	c7 2e       	mov	r12, r23
    56ee:	29 01       	movw	r4, r18
    56f0:	3a 01       	movw	r6, r20
    56f2:	b7 2e       	mov	r11, r23
    56f4:	a6 2e       	mov	r10, r22
    56f6:	0f 2e       	mov	r0, r31
    56f8:	e1 2c       	mov	r14, r1
    56fa:	f6 e0       	ldi	r31, 0x06	; 6
    56fc:	ff 2e       	mov	r15, r31
    56fe:	f0 2d       	mov	r31, r0
    5700:	f7 01       	movw	r30, r14
    5702:	84 81       	ldd	r24, Z+4	; 0x04
    5704:	8e 7f       	andi	r24, 0xFE	; 254
    5706:	84 83       	std	Z+4, r24	; 0x04
    5708:	84 81       	ldd	r24, Z+4	; 0x04
    570a:	8d 7f       	andi	r24, 0xFD	; 253
    570c:	84 83       	std	Z+4, r24	; 0x04
    570e:	6c e2       	ldi	r22, 0x2C	; 44
    5710:	c8 01       	movw	r24, r16
    5712:	13 df       	rcall	.-474    	; 0x553a <_ZN10LCD_Driver9writeDataEh>
    5714:	f7 01       	movw	r30, r14
    5716:	84 81       	ldd	r24, Z+4	; 0x04
    5718:	82 60       	ori	r24, 0x02	; 2
    571a:	84 83       	std	Z+4, r24	; 0x04
    571c:	6c 2d       	mov	r22, r12
    571e:	c8 01       	movw	r24, r16
    5720:	0c df       	rcall	.-488    	; 0x553a <_ZN10LCD_Driver9writeDataEh>
    5722:	6d 2d       	mov	r22, r13
    5724:	c8 01       	movw	r24, r16
    5726:	09 df       	rcall	.-494    	; 0x553a <_ZN10LCD_Driver9writeDataEh>
    5728:	cd 10       	cpse	r12, r13
    572a:	38 c0       	rjmp	.+112    	; 0x579c <_ZN10LCD_Driver5floodEjm+0xda>
    572c:	1d 82       	std	Y+5, r1	; 0x05
    572e:	1e 82       	std	Y+6, r1	; 0x06
    5730:	1f 82       	std	Y+7, r1	; 0x07
    5732:	18 86       	std	Y+8, r1	; 0x08
    5734:	73 01       	movw	r14, r6
    5736:	62 01       	movw	r12, r4
    5738:	f1 e0       	ldi	r31, 0x01	; 1
    573a:	cf 1a       	sub	r12, r31
    573c:	d1 08       	sbc	r13, r1
    573e:	e1 08       	sbc	r14, r1
    5740:	f1 08       	sbc	r15, r1
    5742:	8d 81       	ldd	r24, Y+5	; 0x05
    5744:	9e 81       	ldd	r25, Y+6	; 0x06
    5746:	af 81       	ldd	r26, Y+7	; 0x07
    5748:	b8 85       	ldd	r27, Y+8	; 0x08
    574a:	8c 15       	cp	r24, r12
    574c:	9d 05       	cpc	r25, r13
    574e:	ae 05       	cpc	r26, r14
    5750:	bf 05       	cpc	r27, r15
    5752:	08 f0       	brcs	.+2      	; 0x5756 <_ZN10LCD_Driver5floodEjm+0x94>
    5754:	51 c0       	rjmp	.+162    	; 0x57f8 <_ZN10LCD_Driver5floodEjm+0x136>
    5756:	e0 e0       	ldi	r30, 0x00	; 0
    5758:	f6 e0       	ldi	r31, 0x06	; 6
    575a:	84 81       	ldd	r24, Z+4	; 0x04
    575c:	8b 7f       	andi	r24, 0xFB	; 251
    575e:	84 83       	std	Z+4, r24	; 0x04
    5760:	84 81       	ldd	r24, Z+4	; 0x04
    5762:	84 60       	ori	r24, 0x04	; 4
    5764:	84 83       	std	Z+4, r24	; 0x04
    5766:	84 81       	ldd	r24, Z+4	; 0x04
    5768:	8b 7f       	andi	r24, 0xFB	; 251
    576a:	84 83       	std	Z+4, r24	; 0x04
    576c:	84 81       	ldd	r24, Z+4	; 0x04
    576e:	84 60       	ori	r24, 0x04	; 4
    5770:	84 83       	std	Z+4, r24	; 0x04
    5772:	8d 81       	ldd	r24, Y+5	; 0x05
    5774:	9e 81       	ldd	r25, Y+6	; 0x06
    5776:	af 81       	ldd	r26, Y+7	; 0x07
    5778:	b8 85       	ldd	r27, Y+8	; 0x08
    577a:	01 96       	adiw	r24, 0x01	; 1
    577c:	a1 1d       	adc	r26, r1
    577e:	b1 1d       	adc	r27, r1
    5780:	8d 83       	std	Y+5, r24	; 0x05
    5782:	9e 83       	std	Y+6, r25	; 0x06
    5784:	af 83       	std	Y+7, r26	; 0x07
    5786:	b8 87       	std	Y+8, r27	; 0x08
    5788:	8d 81       	ldd	r24, Y+5	; 0x05
    578a:	9e 81       	ldd	r25, Y+6	; 0x06
    578c:	af 81       	ldd	r26, Y+7	; 0x07
    578e:	b8 85       	ldd	r27, Y+8	; 0x08
    5790:	8c 15       	cp	r24, r12
    5792:	9d 05       	cpc	r25, r13
    5794:	ae 05       	cpc	r26, r14
    5796:	bf 05       	cpc	r27, r15
    5798:	00 f3       	brcs	.-64     	; 0x575a <_ZN10LCD_Driver5floodEjm+0x98>
    579a:	2e c0       	rjmp	.+92     	; 0x57f8 <_ZN10LCD_Driver5floodEjm+0x136>
    579c:	19 82       	std	Y+1, r1	; 0x01
    579e:	1a 82       	std	Y+2, r1	; 0x02
    57a0:	1b 82       	std	Y+3, r1	; 0x03
    57a2:	1c 82       	std	Y+4, r1	; 0x04
    57a4:	73 01       	movw	r14, r6
    57a6:	62 01       	movw	r12, r4
    57a8:	81 e0       	ldi	r24, 0x01	; 1
    57aa:	c8 1a       	sub	r12, r24
    57ac:	d1 08       	sbc	r13, r1
    57ae:	e1 08       	sbc	r14, r1
    57b0:	f1 08       	sbc	r15, r1
    57b2:	89 81       	ldd	r24, Y+1	; 0x01
    57b4:	9a 81       	ldd	r25, Y+2	; 0x02
    57b6:	ab 81       	ldd	r26, Y+3	; 0x03
    57b8:	bc 81       	ldd	r27, Y+4	; 0x04
    57ba:	8c 15       	cp	r24, r12
    57bc:	9d 05       	cpc	r25, r13
    57be:	ae 05       	cpc	r26, r14
    57c0:	bf 05       	cpc	r27, r15
    57c2:	d0 f4       	brcc	.+52     	; 0x57f8 <_ZN10LCD_Driver5floodEjm+0x136>
    57c4:	6b 2d       	mov	r22, r11
    57c6:	c8 01       	movw	r24, r16
    57c8:	b8 de       	rcall	.-656    	; 0x553a <_ZN10LCD_Driver9writeDataEh>
    57ca:	6a 2d       	mov	r22, r10
    57cc:	c8 01       	movw	r24, r16
    57ce:	b5 de       	rcall	.-662    	; 0x553a <_ZN10LCD_Driver9writeDataEh>
    57d0:	89 81       	ldd	r24, Y+1	; 0x01
    57d2:	9a 81       	ldd	r25, Y+2	; 0x02
    57d4:	ab 81       	ldd	r26, Y+3	; 0x03
    57d6:	bc 81       	ldd	r27, Y+4	; 0x04
    57d8:	01 96       	adiw	r24, 0x01	; 1
    57da:	a1 1d       	adc	r26, r1
    57dc:	b1 1d       	adc	r27, r1
    57de:	89 83       	std	Y+1, r24	; 0x01
    57e0:	9a 83       	std	Y+2, r25	; 0x02
    57e2:	ab 83       	std	Y+3, r26	; 0x03
    57e4:	bc 83       	std	Y+4, r27	; 0x04
    57e6:	49 81       	ldd	r20, Y+1	; 0x01
    57e8:	5a 81       	ldd	r21, Y+2	; 0x02
    57ea:	6b 81       	ldd	r22, Y+3	; 0x03
    57ec:	7c 81       	ldd	r23, Y+4	; 0x04
    57ee:	4c 15       	cp	r20, r12
    57f0:	5d 05       	cpc	r21, r13
    57f2:	6e 05       	cpc	r22, r14
    57f4:	7f 05       	cpc	r23, r15
    57f6:	30 f3       	brcs	.-52     	; 0x57c4 <_ZN10LCD_Driver5floodEjm+0x102>
    57f8:	e0 e0       	ldi	r30, 0x00	; 0
    57fa:	f6 e0       	ldi	r31, 0x06	; 6
    57fc:	84 81       	ldd	r24, Z+4	; 0x04
    57fe:	81 60       	ori	r24, 0x01	; 1
    5800:	84 83       	std	Z+4, r24	; 0x04
    5802:	28 96       	adiw	r28, 0x08	; 8
    5804:	cd bf       	out	0x3d, r28	; 61
    5806:	de bf       	out	0x3e, r29	; 62
    5808:	df 91       	pop	r29
    580a:	cf 91       	pop	r28
    580c:	1f 91       	pop	r17
    580e:	0f 91       	pop	r16
    5810:	ff 90       	pop	r15
    5812:	ef 90       	pop	r14
    5814:	df 90       	pop	r13
    5816:	cf 90       	pop	r12
    5818:	bf 90       	pop	r11
    581a:	af 90       	pop	r10
    581c:	7f 90       	pop	r7
    581e:	6f 90       	pop	r6
    5820:	5f 90       	pop	r5
    5822:	4f 90       	pop	r4
    5824:	08 95       	ret

00005826 <_ZN10LCD_Driver15writeRegister32Ehm>:
	writeRegister32(HX8357_PASET, t);
	CS_IDLE;
}

void LCD_Driver::writeRegister32(uint8_t r, uint32_t d) 
{
    5826:	cf 92       	push	r12
    5828:	df 92       	push	r13
    582a:	ef 92       	push	r14
    582c:	ff 92       	push	r15
    582e:	0f 93       	push	r16
    5830:	1f 93       	push	r17
    5832:	cf 93       	push	r28
    5834:	df 93       	push	r29
    5836:	ec 01       	movw	r28, r24
    5838:	69 01       	movw	r12, r18
    583a:	7a 01       	movw	r14, r20
    CS_ACTIVE;
    583c:	00 e0       	ldi	r16, 0x00	; 0
    583e:	16 e0       	ldi	r17, 0x06	; 6
    5840:	f8 01       	movw	r30, r16
    5842:	84 81       	ldd	r24, Z+4	; 0x04
    5844:	8e 7f       	andi	r24, 0xFE	; 254
    5846:	84 83       	std	Z+4, r24	; 0x04
    CD_COMMAND;
    5848:	84 81       	ldd	r24, Z+4	; 0x04
    584a:	8d 7f       	andi	r24, 0xFD	; 253
    584c:	84 83       	std	Z+4, r24	; 0x04
    writeData(r);
    584e:	ce 01       	movw	r24, r28
    5850:	74 de       	rcall	.-792    	; 0x553a <_ZN10LCD_Driver9writeDataEh>
    CD_DATA;
    5852:	f8 01       	movw	r30, r16
    5854:	84 81       	ldd	r24, Z+4	; 0x04
    5856:	82 60       	ori	r24, 0x02	; 2
    5858:	84 83       	std	Z+4, r24	; 0x04
	#else
		//round up by default
		__ticks_dc = (uint32_t)(ceil(fabs(__tmp)));
	#endif

	__builtin_avr_delay_cycles(__ticks_dc);
    585a:	f6 e0       	ldi	r31, 0x06	; 6
    585c:	fa 95       	dec	r31
    585e:	f1 f7       	brne	.-4      	; 0x585c <_ZN10LCD_Driver15writeRegister32Ehm+0x36>
    5860:	00 c0       	rjmp	.+0      	; 0x5862 <_ZN10LCD_Driver15writeRegister32Ehm+0x3c>
    _delay_us(10);
    writeData(d >> 24);
    5862:	6f 2d       	mov	r22, r15
    5864:	77 27       	eor	r23, r23
    5866:	88 27       	eor	r24, r24
    5868:	99 27       	eor	r25, r25
    586a:	ce 01       	movw	r24, r28
    586c:	66 de       	rcall	.-820    	; 0x553a <_ZN10LCD_Driver9writeDataEh>
    586e:	86 e0       	ldi	r24, 0x06	; 6
    5870:	8a 95       	dec	r24
    5872:	f1 f7       	brne	.-4      	; 0x5870 <_ZN10LCD_Driver15writeRegister32Ehm+0x4a>
    5874:	00 c0       	rjmp	.+0      	; 0x5876 <_ZN10LCD_Driver15writeRegister32Ehm+0x50>
    _delay_us(10);
    writeData(d >> 16);
    5876:	b7 01       	movw	r22, r14
    5878:	88 27       	eor	r24, r24
    587a:	99 27       	eor	r25, r25
    587c:	ce 01       	movw	r24, r28
    587e:	5d de       	rcall	.-838    	; 0x553a <_ZN10LCD_Driver9writeDataEh>
    5880:	e6 e0       	ldi	r30, 0x06	; 6
    5882:	ea 95       	dec	r30
    5884:	f1 f7       	brne	.-4      	; 0x5882 <_ZN10LCD_Driver15writeRegister32Ehm+0x5c>
    5886:	00 c0       	rjmp	.+0      	; 0x5888 <_ZN10LCD_Driver15writeRegister32Ehm+0x62>
    _delay_us(10);
    writeData(d >> 8);
    5888:	99 27       	eor	r25, r25
    588a:	8f 2d       	mov	r24, r15
    588c:	7e 2d       	mov	r23, r14
    588e:	6d 2d       	mov	r22, r13
    5890:	ce 01       	movw	r24, r28
    5892:	53 de       	rcall	.-858    	; 0x553a <_ZN10LCD_Driver9writeDataEh>
    5894:	f6 e0       	ldi	r31, 0x06	; 6
    5896:	fa 95       	dec	r31
    5898:	f1 f7       	brne	.-4      	; 0x5896 <_ZN10LCD_Driver15writeRegister32Ehm+0x70>
    589a:	00 c0       	rjmp	.+0      	; 0x589c <_ZN10LCD_Driver15writeRegister32Ehm+0x76>
    _delay_us(10);
    writeData(d);
    589c:	6c 2d       	mov	r22, r12
    589e:	ce 01       	movw	r24, r28
    58a0:	4c de       	rcall	.-872    	; 0x553a <_ZN10LCD_Driver9writeDataEh>
    CS_IDLE;
    58a2:	e0 e0       	ldi	r30, 0x00	; 0
    58a4:	f6 e0       	ldi	r31, 0x06	; 6
    58a6:	84 81       	ldd	r24, Z+4	; 0x04
    58a8:	81 60       	ori	r24, 0x01	; 1
    58aa:	84 83       	std	Z+4, r24	; 0x04
}
    58ac:	df 91       	pop	r29
    58ae:	cf 91       	pop	r28
    58b0:	1f 91       	pop	r17
    58b2:	0f 91       	pop	r16
    58b4:	ff 90       	pop	r15
    58b6:	ef 90       	pop	r14
    58b8:	df 90       	pop	r13
    58ba:	cf 90       	pop	r12
    58bc:	08 95       	ret

000058be <_ZN10LCD_Driver13setAddrWindowEjjjj>:
	LCD_DATA_PORT.DIR= 0xFF;
}


void LCD_Driver::setAddrWindow(uint16_t x1, uint16_t y1, uint16_t x2, uint16_t y2)
{
    58be:	cf 92       	push	r12
    58c0:	df 92       	push	r13
    58c2:	ef 92       	push	r14
    58c4:	ff 92       	push	r15
    58c6:	0f 93       	push	r16
    58c8:	1f 93       	push	r17
    58ca:	cf 93       	push	r28
    58cc:	df 93       	push	r29
    58ce:	7c 01       	movw	r14, r24
    58d0:	6a 01       	movw	r12, r20
    58d2:	c9 01       	movw	r24, r18
	CS_ACTIVE;
    58d4:	c0 e0       	ldi	r28, 0x00	; 0
    58d6:	d6 e0       	ldi	r29, 0x06	; 6
    58d8:	2c 81       	ldd	r18, Y+4	; 0x04
    58da:	2e 7f       	andi	r18, 0xFE	; 254
    58dc:	2c 83       	std	Y+4, r18	; 0x04
	uint32_t t;

	t = x1;
    58de:	ab 01       	movw	r20, r22
    58e0:	60 e0       	ldi	r22, 0x00	; 0
    58e2:	70 e0       	ldi	r23, 0x00	; 0
	t <<= 16;
    58e4:	ba 01       	movw	r22, r20
    58e6:	55 27       	eor	r21, r21
    58e8:	44 27       	eor	r20, r20
	t |= x2;
    58ea:	a0 e0       	ldi	r26, 0x00	; 0
    58ec:	b0 e0       	ldi	r27, 0x00	; 0
    58ee:	9a 01       	movw	r18, r20
    58f0:	ab 01       	movw	r20, r22
    58f2:	28 2b       	or	r18, r24
    58f4:	39 2b       	or	r19, r25
    58f6:	4a 2b       	or	r20, r26
    58f8:	5b 2b       	or	r21, r27
	//TODO move register
	//writeRegister32(ILI9341_COLADDRSET, t);  // HX8357D uses same registers!
	writeRegister32(HX8357_CASET, t);
    58fa:	6a e2       	ldi	r22, 0x2A	; 42
    58fc:	c7 01       	movw	r24, r14
    58fe:	93 df       	rcall	.-218    	; 0x5826 <_ZN10LCD_Driver15writeRegister32Ehm>
	t = y1;
    5900:	a6 01       	movw	r20, r12
    5902:	60 e0       	ldi	r22, 0x00	; 0
    5904:	70 e0       	ldi	r23, 0x00	; 0
	t <<= 16;
    5906:	ba 01       	movw	r22, r20
    5908:	55 27       	eor	r21, r21
    590a:	44 27       	eor	r20, r20
	t |= y2;
    590c:	20 e0       	ldi	r18, 0x00	; 0
    590e:	30 e0       	ldi	r19, 0x00	; 0
    5910:	db 01       	movw	r26, r22
    5912:	ca 01       	movw	r24, r20
    5914:	80 2b       	or	r24, r16
    5916:	91 2b       	or	r25, r17
    5918:	a2 2b       	or	r26, r18
    591a:	b3 2b       	or	r27, r19
    591c:	9c 01       	movw	r18, r24
    591e:	ad 01       	movw	r20, r26
	//TODO move register
	//writeRegister32(ILI9341_PAGEADDRSET, t); // HX8357D uses same registers!
	writeRegister32(HX8357_PASET, t);
    5920:	6b e2       	ldi	r22, 0x2B	; 43
    5922:	c7 01       	movw	r24, r14
    5924:	80 df       	rcall	.-256    	; 0x5826 <_ZN10LCD_Driver15writeRegister32Ehm>
	CS_IDLE;
    5926:	8c 81       	ldd	r24, Y+4	; 0x04
    5928:	81 60       	ori	r24, 0x01	; 1
    592a:	8c 83       	std	Y+4, r24	; 0x04
}
    592c:	df 91       	pop	r29
    592e:	cf 91       	pop	r28
    5930:	1f 91       	pop	r17
    5932:	0f 91       	pop	r16
    5934:	ff 90       	pop	r15
    5936:	ef 90       	pop	r14
    5938:	df 90       	pop	r13
    593a:	cf 90       	pop	r12
    593c:	08 95       	ret

0000593e <_ZN10LCD_Driver11setRotationEh>:

  CS_IDLE;
}

void LCD_Driver::setRotation(uint8_t x)
{
    593e:	ff 92       	push	r15
    5940:	0f 93       	push	r16
    5942:	1f 93       	push	r17
    5944:	cf 93       	push	r28
    5946:	df 93       	push	r29
    5948:	ec 01       	movw	r28, r24
    Adafruit_GFX::setRotation(x);
    594a:	0e 94 1a 07 	call	0xe34	; 0xe34 <_ZN12Adafruit_GFX11setRotationEh>
	CS_ACTIVE;
    594e:	e0 e0       	ldi	r30, 0x00	; 0
    5950:	f6 e0       	ldi	r31, 0x06	; 6
    5952:	84 81       	ldd	r24, Z+4	; 0x04
    5954:	8e 7f       	andi	r24, 0xFE	; 254
    5956:	84 83       	std	Z+4, r24	; 0x04

	uint8_t t;
	switch (rotation)
    5958:	8d 89       	ldd	r24, Y+21	; 0x15
    595a:	81 30       	cpi	r24, 0x01	; 1
    595c:	31 f0       	breq	.+12     	; 0x596a <_ZN10LCD_Driver11setRotationEh+0x2c>
    595e:	88 f0       	brcs	.+34     	; 0x5982 <_ZN10LCD_Driver11setRotationEh+0x44>
    5960:	82 30       	cpi	r24, 0x02	; 2
    5962:	41 f0       	breq	.+16     	; 0x5974 <_ZN10LCD_Driver11setRotationEh+0x36>
    5964:	83 30       	cpi	r24, 0x03	; 3
    5966:	41 f0       	breq	.+16     	; 0x5978 <_ZN10LCD_Driver11setRotationEh+0x3a>
    5968:	10 c0       	rjmp	.+32     	; 0x598a <_ZN10LCD_Driver11setRotationEh+0x4c>
	{
	    case 0: t = HX8357B_MADCTL_MX | HX8357B_MADCTL_MY | HX8357B_MADCTL_RGB; break;
		case 1: t = HX8357B_MADCTL_MY | HX8357B_MADCTL_MV | HX8357B_MADCTL_RGB; break;
    596a:	0f 2e       	mov	r0, r31
    596c:	f0 ea       	ldi	r31, 0xA0	; 160
    596e:	ff 2e       	mov	r15, r31
    5970:	f0 2d       	mov	r31, r0
    5972:	0b c0       	rjmp	.+22     	; 0x598a <_ZN10LCD_Driver11setRotationEh+0x4c>
		case 2: t = HX8357B_MADCTL_RGB; break;
    5974:	f1 2c       	mov	r15, r1
    5976:	09 c0       	rjmp	.+18     	; 0x598a <_ZN10LCD_Driver11setRotationEh+0x4c>
		case 3: t = HX8357B_MADCTL_MX | HX8357B_MADCTL_MV | HX8357B_MADCTL_RGB; break;
    5978:	0f 2e       	mov	r0, r31
    597a:	f0 e6       	ldi	r31, 0x60	; 96
    597c:	ff 2e       	mov	r15, r31
    597e:	f0 2d       	mov	r31, r0
    5980:	04 c0       	rjmp	.+8      	; 0x598a <_ZN10LCD_Driver11setRotationEh+0x4c>
	CS_ACTIVE;

	uint8_t t;
	switch (rotation)
	{
	    case 0: t = HX8357B_MADCTL_MX | HX8357B_MADCTL_MY | HX8357B_MADCTL_RGB; break;
    5982:	0f 2e       	mov	r0, r31
    5984:	f0 ec       	ldi	r31, 0xC0	; 192
    5986:	ff 2e       	mov	r15, r31
    5988:	f0 2d       	mov	r31, r0
		case 1: t = HX8357B_MADCTL_MY | HX8357B_MADCTL_MV | HX8357B_MADCTL_RGB; break;
		case 2: t = HX8357B_MADCTL_RGB; break;
		case 3: t = HX8357B_MADCTL_MX | HX8357B_MADCTL_MV | HX8357B_MADCTL_RGB; break;
	}

	CD_COMMAND;
    598a:	00 e0       	ldi	r16, 0x00	; 0
    598c:	16 e0       	ldi	r17, 0x06	; 6
    598e:	f8 01       	movw	r30, r16
    5990:	84 81       	ldd	r24, Z+4	; 0x04
    5992:	8d 7f       	andi	r24, 0xFD	; 253
    5994:	84 83       	std	Z+4, r24	; 0x04
	writeData(ILI9341_MADCTL);
    5996:	66 e3       	ldi	r22, 0x36	; 54
    5998:	ce 01       	movw	r24, r28
    599a:	cf dd       	rcall	.-1122   	; 0x553a <_ZN10LCD_Driver9writeDataEh>
	CD_DATA;
    599c:	f8 01       	movw	r30, r16
    599e:	84 81       	ldd	r24, Z+4	; 0x04
    59a0:	82 60       	ori	r24, 0x02	; 2
    59a2:	84 83       	std	Z+4, r24	; 0x04
	writeData(t);
    59a4:	6f 2d       	mov	r22, r15
    59a6:	ce 01       	movw	r24, r28
    59a8:	c8 dd       	rcall	.-1136   	; 0x553a <_ZN10LCD_Driver9writeDataEh>
	setAddrWindow(0, 0, _width-1, _height-1);
    59aa:	08 85       	ldd	r16, Y+8	; 0x08
    59ac:	19 85       	ldd	r17, Y+9	; 0x09
    59ae:	01 50       	subi	r16, 0x01	; 1
    59b0:	11 09       	sbc	r17, r1
    59b2:	2e 81       	ldd	r18, Y+6	; 0x06
    59b4:	3f 81       	ldd	r19, Y+7	; 0x07
    59b6:	21 50       	subi	r18, 0x01	; 1
    59b8:	31 09       	sbc	r19, r1
    59ba:	40 e0       	ldi	r20, 0x00	; 0
    59bc:	50 e0       	ldi	r21, 0x00	; 0
    59be:	60 e0       	ldi	r22, 0x00	; 0
    59c0:	70 e0       	ldi	r23, 0x00	; 0
    59c2:	ce 01       	movw	r24, r28
    59c4:	7c df       	rcall	.-264    	; 0x58be <_ZN10LCD_Driver13setAddrWindowEjjjj>
}
    59c6:	df 91       	pop	r29
    59c8:	cf 91       	pop	r28
    59ca:	1f 91       	pop	r17
    59cc:	0f 91       	pop	r16
    59ce:	ff 90       	pop	r15
    59d0:	08 95       	ret

000059d2 <_ZN10LCD_Driver9drawPixelEiij>:

void LCD_Driver::drawPixel(int16_t x, int16_t y, uint16_t color)
{
    59d2:	cf 92       	push	r12
    59d4:	df 92       	push	r13
    59d6:	ef 92       	push	r14
    59d8:	ff 92       	push	r15
    59da:	0f 93       	push	r16
    59dc:	1f 93       	push	r17
    59de:	cf 93       	push	r28
    59e0:	df 93       	push	r29
    59e2:	ec 01       	movw	r28, r24
    59e4:	d2 2e       	mov	r13, r18
    59e6:	c3 2e       	mov	r12, r19
	if((x < 0) || (y < 0) || (x >= _width) || (y >= _height)) return;
    59e8:	77 23       	and	r23, r23
    59ea:	c4 f1       	brlt	.+112    	; 0x5a5c <_ZN10LCD_Driver9drawPixelEiij+0x8a>
    59ec:	55 23       	and	r21, r21
    59ee:	b4 f1       	brlt	.+108    	; 0x5a5c <_ZN10LCD_Driver9drawPixelEiij+0x8a>
    59f0:	8e 81       	ldd	r24, Y+6	; 0x06
    59f2:	9f 81       	ldd	r25, Y+7	; 0x07
    59f4:	68 17       	cp	r22, r24
    59f6:	79 07       	cpc	r23, r25
    59f8:	8c f5       	brge	.+98     	; 0x5a5c <_ZN10LCD_Driver9drawPixelEiij+0x8a>
    59fa:	88 85       	ldd	r24, Y+8	; 0x08
    59fc:	99 85       	ldd	r25, Y+9	; 0x09
    59fe:	48 17       	cp	r20, r24
    5a00:	59 07       	cpc	r21, r25
    5a02:	64 f5       	brge	.+88     	; 0x5a5c <_ZN10LCD_Driver9drawPixelEiij+0x8a>
	CS_ACTIVE;
    5a04:	0f 2e       	mov	r0, r31
    5a06:	e1 2c       	mov	r14, r1
    5a08:	f6 e0       	ldi	r31, 0x06	; 6
    5a0a:	ff 2e       	mov	r15, r31
    5a0c:	f0 2d       	mov	r31, r0
    5a0e:	f7 01       	movw	r30, r14
    5a10:	84 81       	ldd	r24, Z+4	; 0x04
    5a12:	8e 7f       	andi	r24, 0xFE	; 254
    5a14:	84 83       	std	Z+4, r24	; 0x04
	setAddrWindow(x, y, _width-1, _height-1);
    5a16:	08 85       	ldd	r16, Y+8	; 0x08
    5a18:	19 85       	ldd	r17, Y+9	; 0x09
    5a1a:	01 50       	subi	r16, 0x01	; 1
    5a1c:	11 09       	sbc	r17, r1
    5a1e:	8e 81       	ldd	r24, Y+6	; 0x06
    5a20:	9f 81       	ldd	r25, Y+7	; 0x07
    5a22:	9c 01       	movw	r18, r24
    5a24:	21 50       	subi	r18, 0x01	; 1
    5a26:	31 09       	sbc	r19, r1
    5a28:	ce 01       	movw	r24, r28
    5a2a:	49 df       	rcall	.-366    	; 0x58be <_ZN10LCD_Driver13setAddrWindowEjjjj>
	CS_ACTIVE;
    5a2c:	f7 01       	movw	r30, r14
    5a2e:	84 81       	ldd	r24, Z+4	; 0x04
    5a30:	8e 7f       	andi	r24, 0xFE	; 254
    5a32:	84 83       	std	Z+4, r24	; 0x04
	CD_COMMAND;
    5a34:	84 81       	ldd	r24, Z+4	; 0x04
    5a36:	8d 7f       	andi	r24, 0xFD	; 253
    5a38:	84 83       	std	Z+4, r24	; 0x04
	writeData(0x2C);
    5a3a:	6c e2       	ldi	r22, 0x2C	; 44
    5a3c:	ce 01       	movw	r24, r28
    5a3e:	7d dd       	rcall	.-1286   	; 0x553a <_ZN10LCD_Driver9writeDataEh>
	CD_DATA;
    5a40:	f7 01       	movw	r30, r14
    5a42:	84 81       	ldd	r24, Z+4	; 0x04
    5a44:	82 60       	ori	r24, 0x02	; 2
    5a46:	84 83       	std	Z+4, r24	; 0x04
	writeData(color >> 8);
    5a48:	6c 2d       	mov	r22, r12
    5a4a:	ce 01       	movw	r24, r28
    5a4c:	76 dd       	rcall	.-1300   	; 0x553a <_ZN10LCD_Driver9writeDataEh>
	writeData(color);
    5a4e:	6d 2d       	mov	r22, r13
    5a50:	ce 01       	movw	r24, r28
    5a52:	73 dd       	rcall	.-1306   	; 0x553a <_ZN10LCD_Driver9writeDataEh>
	CS_IDLE;
    5a54:	f7 01       	movw	r30, r14
    5a56:	84 81       	ldd	r24, Z+4	; 0x04
    5a58:	81 60       	ori	r24, 0x01	; 1
    5a5a:	84 83       	std	Z+4, r24	; 0x04
}
    5a5c:	df 91       	pop	r29
    5a5e:	cf 91       	pop	r28
    5a60:	1f 91       	pop	r17
    5a62:	0f 91       	pop	r16
    5a64:	ff 90       	pop	r15
    5a66:	ef 90       	pop	r14
    5a68:	df 90       	pop	r13
    5a6a:	cf 90       	pop	r12
    5a6c:	08 95       	ret

00005a6e <_ZN10LCD_Driver10fillScreenEj>:
{
	LCD_DATA_PORT.OUT = data;
	WR_STROBE;
}

void LCD_Driver::fillScreen(uint16_t color) {
    5a6e:	ef 92       	push	r14
    5a70:	ff 92       	push	r15
    5a72:	0f 93       	push	r16
    5a74:	1f 93       	push	r17
    5a76:	cf 93       	push	r28
    5a78:	df 93       	push	r29
    5a7a:	ec 01       	movw	r28, r24
    5a7c:	7b 01       	movw	r14, r22
	setAddrWindow(0,0, _width-1, _height - 1);
    5a7e:	08 85       	ldd	r16, Y+8	; 0x08
    5a80:	19 85       	ldd	r17, Y+9	; 0x09
    5a82:	01 50       	subi	r16, 0x01	; 1
    5a84:	11 09       	sbc	r17, r1
    5a86:	2e 81       	ldd	r18, Y+6	; 0x06
    5a88:	3f 81       	ldd	r19, Y+7	; 0x07
    5a8a:	21 50       	subi	r18, 0x01	; 1
    5a8c:	31 09       	sbc	r19, r1
    5a8e:	40 e0       	ldi	r20, 0x00	; 0
    5a90:	50 e0       	ldi	r21, 0x00	; 0
    5a92:	60 e0       	ldi	r22, 0x00	; 0
    5a94:	70 e0       	ldi	r23, 0x00	; 0
    5a96:	13 df       	rcall	.-474    	; 0x58be <_ZN10LCD_Driver13setAddrWindowEjjjj>
	flood(color, (long)TFTWIDTH * (long) TFTHEIGHT);
    5a98:	20 e0       	ldi	r18, 0x00	; 0
    5a9a:	38 e5       	ldi	r19, 0x58	; 88
    5a9c:	42 e0       	ldi	r20, 0x02	; 2
    5a9e:	50 e0       	ldi	r21, 0x00	; 0
    5aa0:	b7 01       	movw	r22, r14
    5aa2:	ce 01       	movw	r24, r28
    5aa4:	0e de       	rcall	.-996    	; 0x56c2 <_ZN10LCD_Driver5floodEjm>
}
    5aa6:	df 91       	pop	r29
    5aa8:	cf 91       	pop	r28
    5aaa:	1f 91       	pop	r17
    5aac:	0f 91       	pop	r16
    5aae:	ff 90       	pop	r15
    5ab0:	ef 90       	pop	r14
    5ab2:	08 95       	ret

00005ab4 <_ZN10LCD_Driver8writeStrEPc>:
    _delay_us(10);
    writeData(d);
    CS_IDLE;
}

void LCD_Driver::writeStr(char * str) {
    5ab4:	0f 93       	push	r16
    5ab6:	1f 93       	push	r17
    5ab8:	cf 93       	push	r28
    5aba:	df 93       	push	r29
    5abc:	ec 01       	movw	r28, r24
    5abe:	fb 01       	movw	r30, r22
	while(*str) {
    5ac0:	60 81       	ld	r22, Z
    5ac2:	66 23       	and	r22, r22
    5ac4:	79 f0       	breq	.+30     	; 0x5ae4 <_ZN10LCD_Driver8writeStrEPc+0x30>
    5ac6:	8f 01       	movw	r16, r30
    5ac8:	0f 5f       	subi	r16, 0xFF	; 255
    5aca:	1f 4f       	sbci	r17, 0xFF	; 255
		this->write(*str++);
    5acc:	e8 81       	ld	r30, Y
    5ace:	f9 81       	ldd	r31, Y+1	; 0x01
    5ad0:	00 88       	ldd	r0, Z+16	; 0x10
    5ad2:	f1 89       	ldd	r31, Z+17	; 0x11
    5ad4:	e0 2d       	mov	r30, r0
    5ad6:	ce 01       	movw	r24, r28
    5ad8:	19 95       	eicall
    writeData(d);
    CS_IDLE;
}

void LCD_Driver::writeStr(char * str) {
	while(*str) {
    5ada:	f8 01       	movw	r30, r16
    5adc:	61 91       	ld	r22, Z+
    5ade:	8f 01       	movw	r16, r30
    5ae0:	61 11       	cpse	r22, r1
    5ae2:	f4 cf       	rjmp	.-24     	; 0x5acc <_ZN10LCD_Driver8writeStrEPc+0x18>
		this->write(*str++);
	}

}
    5ae4:	df 91       	pop	r29
    5ae6:	cf 91       	pop	r28
    5ae8:	1f 91       	pop	r17
    5aea:	0f 91       	pop	r16
    5aec:	08 95       	ret

00005aee <_ZN10MainScreenC1EP10LCD_Driver>:
 *  Author: ee63pc3-user
 */ 

 #include "MainScreen.h"

 MainScreen::MainScreen(LCD_Driver * lcdscreen) : Screen(lcdscreen) {}
    5aee:	f3 c7       	rjmp	.+4070   	; 0x6ad6 <_ZN6ScreenC1EP10LCD_Driver>
    5af0:	08 95       	ret

00005af2 <_ZN10MainScreen5clearEv>:
		status >>= 1;
		value = static_cast<GPSVAL::VAL>(((int)value)+1);
	}

 }
 void MainScreen::clear() {
    5af2:	0f 93       	push	r16
    5af4:	1f 93       	push	r17
    5af6:	cf 93       	push	r28
    5af8:	df 93       	push	r29
    5afa:	ec 01       	movw	r28, r24
	lcd->fillScreen(BLACK);
    5afc:	88 81       	ld	r24, Y
    5afe:	99 81       	ldd	r25, Y+1	; 0x01
    5b00:	dc 01       	movw	r26, r24
    5b02:	ed 91       	ld	r30, X+
    5b04:	fc 91       	ld	r31, X
    5b06:	04 84       	ldd	r0, Z+12	; 0x0c
    5b08:	f5 85       	ldd	r31, Z+13	; 0x0d
    5b0a:	e0 2d       	mov	r30, r0
    5b0c:	60 e0       	ldi	r22, 0x00	; 0
    5b0e:	70 e0       	ldi	r23, 0x00	; 0
    5b10:	19 95       	eicall
	lcd->drawFastVLine(239, 0, 320, WHITE);
    5b12:	88 81       	ld	r24, Y
    5b14:	99 81       	ldd	r25, Y+1	; 0x01
    5b16:	dc 01       	movw	r26, r24
    5b18:	ed 91       	ld	r30, X+
    5b1a:	fc 91       	ld	r31, X
    5b1c:	04 80       	ldd	r0, Z+4	; 0x04
    5b1e:	f5 81       	ldd	r31, Z+5	; 0x05
    5b20:	e0 2d       	mov	r30, r0
    5b22:	0f ef       	ldi	r16, 0xFF	; 255
    5b24:	1f ef       	ldi	r17, 0xFF	; 255
    5b26:	20 e4       	ldi	r18, 0x40	; 64
    5b28:	31 e0       	ldi	r19, 0x01	; 1
    5b2a:	40 e0       	ldi	r20, 0x00	; 0
    5b2c:	50 e0       	ldi	r21, 0x00	; 0
    5b2e:	6f ee       	ldi	r22, 0xEF	; 239
    5b30:	70 e0       	ldi	r23, 0x00	; 0
    5b32:	19 95       	eicall
	lcd->drawFastHLine(0, 119, 480, WHITE);
    5b34:	88 81       	ld	r24, Y
    5b36:	99 81       	ldd	r25, Y+1	; 0x01
    5b38:	dc 01       	movw	r26, r24
    5b3a:	ed 91       	ld	r30, X+
    5b3c:	fc 91       	ld	r31, X
    5b3e:	06 80       	ldd	r0, Z+6	; 0x06
    5b40:	f7 81       	ldd	r31, Z+7	; 0x07
    5b42:	e0 2d       	mov	r30, r0
    5b44:	20 ee       	ldi	r18, 0xE0	; 224
    5b46:	31 e0       	ldi	r19, 0x01	; 1
    5b48:	47 e7       	ldi	r20, 0x77	; 119
    5b4a:	50 e0       	ldi	r21, 0x00	; 0
    5b4c:	60 e0       	ldi	r22, 0x00	; 0
    5b4e:	70 e0       	ldi	r23, 0x00	; 0
    5b50:	19 95       	eicall
	lcd->drawFastHLine(0, 239, 480, WHITE);
    5b52:	88 81       	ld	r24, Y
    5b54:	99 81       	ldd	r25, Y+1	; 0x01
    5b56:	dc 01       	movw	r26, r24
    5b58:	ed 91       	ld	r30, X+
    5b5a:	fc 91       	ld	r31, X
    5b5c:	06 80       	ldd	r0, Z+6	; 0x06
    5b5e:	f7 81       	ldd	r31, Z+7	; 0x07
    5b60:	e0 2d       	mov	r30, r0
    5b62:	20 ee       	ldi	r18, 0xE0	; 224
    5b64:	31 e0       	ldi	r19, 0x01	; 1
    5b66:	4f ee       	ldi	r20, 0xEF	; 239
    5b68:	50 e0       	ldi	r21, 0x00	; 0
    5b6a:	60 e0       	ldi	r22, 0x00	; 0
    5b6c:	70 e0       	ldi	r23, 0x00	; 0
    5b6e:	19 95       	eicall
	lcd->setTextColor(WHITE, BLACK);
    5b70:	40 e0       	ldi	r20, 0x00	; 0
    5b72:	50 e0       	ldi	r21, 0x00	; 0
    5b74:	6f ef       	ldi	r22, 0xFF	; 255
    5b76:	7f ef       	ldi	r23, 0xFF	; 255
    5b78:	88 81       	ld	r24, Y
    5b7a:	99 81       	ldd	r25, Y+1	; 0x01
    5b7c:	0e 94 11 07 	call	0xe22	; 0xe22 <_ZN12Adafruit_GFX12setTextColorEjj>
	lcd->setTextSize(2);
    5b80:	62 e0       	ldi	r22, 0x02	; 2
    5b82:	88 81       	ld	r24, Y
    5b84:	99 81       	ldd	r25, Y+1	; 0x01
    5b86:	0e 94 0b 07 	call	0xe16	; 0xe16 <_ZN12Adafruit_GFX11setTextSizeEh>
	lcd->setCursor(200,50);
    5b8a:	42 e3       	ldi	r20, 0x32	; 50
    5b8c:	50 e0       	ldi	r21, 0x00	; 0
    5b8e:	68 ec       	ldi	r22, 0xC8	; 200
    5b90:	70 e0       	ldi	r23, 0x00	; 0
    5b92:	88 81       	ld	r24, Y
    5b94:	99 81       	ldd	r25, Y+1	; 0x01
    5b96:	0e 94 03 07 	call	0xe06	; 0xe06 <_ZN12Adafruit_GFX9setCursorEii>
	lcd->writeStr("MPH");
    5b9a:	6a ef       	ldi	r22, 0xFA	; 250
    5b9c:	70 e2       	ldi	r23, 0x20	; 32
    5b9e:	88 81       	ld	r24, Y
    5ba0:	99 81       	ldd	r25, Y+1	; 0x01
    5ba2:	88 df       	rcall	.-240    	; 0x5ab4 <_ZN10LCD_Driver8writeStrEPc>
	lcd->setCursor(200,180);
    5ba4:	44 eb       	ldi	r20, 0xB4	; 180
    5ba6:	50 e0       	ldi	r21, 0x00	; 0
    5ba8:	68 ec       	ldi	r22, 0xC8	; 200
    5baa:	70 e0       	ldi	r23, 0x00	; 0
    5bac:	88 81       	ld	r24, Y
    5bae:	99 81       	ldd	r25, Y+1	; 0x01
    5bb0:	0e 94 03 07 	call	0xe06	; 0xe06 <_ZN12Adafruit_GFX9setCursorEii>
	lcd->writeStr("RPM");
    5bb4:	6e ef       	ldi	r22, 0xFE	; 254
    5bb6:	70 e2       	ldi	r23, 0x20	; 32
    5bb8:	88 81       	ld	r24, Y
    5bba:	99 81       	ldd	r25, Y+1	; 0x01
    5bbc:	7b df       	rcall	.-266    	; 0x5ab4 <_ZN10LCD_Driver8writeStrEPc>
	lcd->setCursor(10,300);
    5bbe:	4c e2       	ldi	r20, 0x2C	; 44
    5bc0:	51 e0       	ldi	r21, 0x01	; 1
    5bc2:	6a e0       	ldi	r22, 0x0A	; 10
    5bc4:	70 e0       	ldi	r23, 0x00	; 0
    5bc6:	88 81       	ld	r24, Y
    5bc8:	99 81       	ldd	r25, Y+1	; 0x01
    5bca:	0e 94 03 07 	call	0xe06	; 0xe06 <_ZN12Adafruit_GFX9setCursorEii>
	lcd->writeStr("Lat:");
    5bce:	62 e0       	ldi	r22, 0x02	; 2
    5bd0:	71 e2       	ldi	r23, 0x21	; 33
    5bd2:	88 81       	ld	r24, Y
    5bd4:	99 81       	ldd	r25, Y+1	; 0x01
    5bd6:	6e df       	rcall	.-292    	; 0x5ab4 <_ZN10LCD_Driver8writeStrEPc>
	lcd->setCursor(249, 300);
    5bd8:	4c e2       	ldi	r20, 0x2C	; 44
    5bda:	51 e0       	ldi	r21, 0x01	; 1
    5bdc:	69 ef       	ldi	r22, 0xF9	; 249
    5bde:	70 e0       	ldi	r23, 0x00	; 0
    5be0:	88 81       	ld	r24, Y
    5be2:	99 81       	ldd	r25, Y+1	; 0x01
    5be4:	0e 94 03 07 	call	0xe06	; 0xe06 <_ZN12Adafruit_GFX9setCursorEii>
	lcd->writeStr("Lon:");
    5be8:	67 e0       	ldi	r22, 0x07	; 7
    5bea:	71 e2       	ldi	r23, 0x21	; 33
    5bec:	88 81       	ld	r24, Y
    5bee:	99 81       	ldd	r25, Y+1	; 0x01
    5bf0:	61 df       	rcall	.-318    	; 0x5ab4 <_ZN10LCD_Driver8writeStrEPc>
	lcd->setCursor(429,75);
    5bf2:	4b e4       	ldi	r20, 0x4B	; 75
    5bf4:	50 e0       	ldi	r21, 0x00	; 0
    5bf6:	6d ea       	ldi	r22, 0xAD	; 173
    5bf8:	71 e0       	ldi	r23, 0x01	; 1
    5bfa:	88 81       	ld	r24, Y
    5bfc:	99 81       	ldd	r25, Y+1	; 0x01
    5bfe:	0e 94 03 07 	call	0xe06	; 0xe06 <_ZN12Adafruit_GFX9setCursorEii>
	lcd->writeStr("Eng\nLoad");
    5c02:	6c e0       	ldi	r22, 0x0C	; 12
    5c04:	71 e2       	ldi	r23, 0x21	; 33
    5c06:	88 81       	ld	r24, Y
    5c08:	99 81       	ldd	r25, Y+1	; 0x01
    5c0a:	54 df       	rcall	.-344    	; 0x5ab4 <_ZN10LCD_Driver8writeStrEPc>
	lcd->setCursor(429,195);
    5c0c:	43 ec       	ldi	r20, 0xC3	; 195
    5c0e:	50 e0       	ldi	r21, 0x00	; 0
    5c10:	6d ea       	ldi	r22, 0xAD	; 173
    5c12:	71 e0       	ldi	r23, 0x01	; 1
    5c14:	88 81       	ld	r24, Y
    5c16:	99 81       	ldd	r25, Y+1	; 0x01
    5c18:	0e 94 03 07 	call	0xe06	; 0xe06 <_ZN12Adafruit_GFX9setCursorEii>
	lcd->writeStr("Pdl\nPos");
    5c1c:	65 e1       	ldi	r22, 0x15	; 21
    5c1e:	71 e2       	ldi	r23, 0x21	; 33
    5c20:	88 81       	ld	r24, Y
    5c22:	99 81       	ldd	r25, Y+1	; 0x01
    5c24:	47 df       	rcall	.-370    	; 0x5ab4 <_ZN10LCD_Driver8writeStrEPc>

	lcd->setTextSize(9);
    5c26:	69 e0       	ldi	r22, 0x09	; 9
    5c28:	88 81       	ld	r24, Y
    5c2a:	99 81       	ldd	r25, Y+1	; 0x01
    5c2c:	0e 94 0b 07 	call	0xe16	; 0xe16 <_ZN12Adafruit_GFX11setTextSizeEh>
	lcd->setCursor(30, 30);
    5c30:	4e e1       	ldi	r20, 0x1E	; 30
    5c32:	50 e0       	ldi	r21, 0x00	; 0
    5c34:	6e e1       	ldi	r22, 0x1E	; 30
    5c36:	70 e0       	ldi	r23, 0x00	; 0
    5c38:	88 81       	ld	r24, Y
    5c3a:	99 81       	ldd	r25, Y+1	; 0x01
    5c3c:	0e 94 03 07 	call	0xe06	; 0xe06 <_ZN12Adafruit_GFX9setCursorEii>
	lcd->writeStr("000");
    5c40:	62 e2       	ldi	r22, 0x22	; 34
    5c42:	71 e2       	ldi	r23, 0x21	; 33
    5c44:	88 81       	ld	r24, Y
    5c46:	99 81       	ldd	r25, Y+1	; 0x01
    5c48:	35 df       	rcall	.-406    	; 0x5ab4 <_ZN10LCD_Driver8writeStrEPc>
	lcd->setCursor(259,30);
    5c4a:	4e e1       	ldi	r20, 0x1E	; 30
    5c4c:	50 e0       	ldi	r21, 0x00	; 0
    5c4e:	63 e0       	ldi	r22, 0x03	; 3
    5c50:	71 e0       	ldi	r23, 0x01	; 1
    5c52:	88 81       	ld	r24, Y
    5c54:	99 81       	ldd	r25, Y+1	; 0x01
    5c56:	0e 94 03 07 	call	0xe06	; 0xe06 <_ZN12Adafruit_GFX9setCursorEii>
	lcd->writeStr("100");
    5c5a:	6d e1       	ldi	r22, 0x1D	; 29
    5c5c:	71 e2       	ldi	r23, 0x21	; 33
    5c5e:	88 81       	ld	r24, Y
    5c60:	99 81       	ldd	r25, Y+1	; 0x01
    5c62:	28 df       	rcall	.-432    	; 0x5ab4 <_ZN10LCD_Driver8writeStrEPc>
	lcd->setCursor(259,149);
    5c64:	45 e9       	ldi	r20, 0x95	; 149
    5c66:	50 e0       	ldi	r21, 0x00	; 0
    5c68:	63 e0       	ldi	r22, 0x03	; 3
    5c6a:	71 e0       	ldi	r23, 0x01	; 1
    5c6c:	88 81       	ld	r24, Y
    5c6e:	99 81       	ldd	r25, Y+1	; 0x01
    5c70:	0e 94 03 07 	call	0xe06	; 0xe06 <_ZN12Adafruit_GFX9setCursorEii>
	lcd->writeStr("100");
    5c74:	6d e1       	ldi	r22, 0x1D	; 29
    5c76:	71 e2       	ldi	r23, 0x21	; 33
    5c78:	88 81       	ld	r24, Y
    5c7a:	99 81       	ldd	r25, Y+1	; 0x01
    5c7c:	1b df       	rcall	.-458    	; 0x5ab4 <_ZN10LCD_Driver8writeStrEPc>


	lcd->setTextSize(8);
    5c7e:	68 e0       	ldi	r22, 0x08	; 8
    5c80:	88 81       	ld	r24, Y
    5c82:	99 81       	ldd	r25, Y+1	; 0x01
    5c84:	0e 94 0b 07 	call	0xe16	; 0xe16 <_ZN12Adafruit_GFX11setTextSizeEh>
	lcd->setCursor(5,149);
    5c88:	45 e9       	ldi	r20, 0x95	; 149
    5c8a:	50 e0       	ldi	r21, 0x00	; 0
    5c8c:	65 e0       	ldi	r22, 0x05	; 5
    5c8e:	70 e0       	ldi	r23, 0x00	; 0
    5c90:	88 81       	ld	r24, Y
    5c92:	99 81       	ldd	r25, Y+1	; 0x01
    5c94:	0e 94 03 07 	call	0xe06	; 0xe06 <_ZN12Adafruit_GFX9setCursorEii>
	lcd->writeStr("0000");
    5c98:	61 e2       	ldi	r22, 0x21	; 33
    5c9a:	71 e2       	ldi	r23, 0x21	; 33
    5c9c:	88 81       	ld	r24, Y
    5c9e:	99 81       	ldd	r25, Y+1	; 0x01
    5ca0:	09 df       	rcall	.-494    	; 0x5ab4 <_ZN10LCD_Driver8writeStrEPc>
	lcd->setCursor(429,10);
    5ca2:	4a e0       	ldi	r20, 0x0A	; 10
    5ca4:	50 e0       	ldi	r21, 0x00	; 0
    5ca6:	6d ea       	ldi	r22, 0xAD	; 173
    5ca8:	71 e0       	ldi	r23, 0x01	; 1
    5caa:	88 81       	ld	r24, Y
    5cac:	99 81       	ldd	r25, Y+1	; 0x01
    5cae:	0e 94 03 07 	call	0xe06	; 0xe06 <_ZN12Adafruit_GFX9setCursorEii>
	lcd->write('%');
    5cb2:	88 81       	ld	r24, Y
    5cb4:	99 81       	ldd	r25, Y+1	; 0x01
    5cb6:	dc 01       	movw	r26, r24
    5cb8:	ed 91       	ld	r30, X+
    5cba:	fc 91       	ld	r31, X
    5cbc:	00 88       	ldd	r0, Z+16	; 0x10
    5cbe:	f1 89       	ldd	r31, Z+17	; 0x11
    5cc0:	e0 2d       	mov	r30, r0
    5cc2:	65 e2       	ldi	r22, 0x25	; 37
    5cc4:	19 95       	eicall
	lcd->setCursor(429,129);
    5cc6:	41 e8       	ldi	r20, 0x81	; 129
    5cc8:	50 e0       	ldi	r21, 0x00	; 0
    5cca:	6d ea       	ldi	r22, 0xAD	; 173
    5ccc:	71 e0       	ldi	r23, 0x01	; 1
    5cce:	88 81       	ld	r24, Y
    5cd0:	99 81       	ldd	r25, Y+1	; 0x01
    5cd2:	0e 94 03 07 	call	0xe06	; 0xe06 <_ZN12Adafruit_GFX9setCursorEii>
	lcd->write('%');
    5cd6:	88 81       	ld	r24, Y
    5cd8:	99 81       	ldd	r25, Y+1	; 0x01
    5cda:	dc 01       	movw	r26, r24
    5cdc:	ed 91       	ld	r30, X+
    5cde:	fc 91       	ld	r31, X
    5ce0:	00 88       	ldd	r0, Z+16	; 0x10
    5ce2:	f1 89       	ldd	r31, Z+17	; 0x11
    5ce4:	e0 2d       	mov	r30, r0
    5ce6:	65 e2       	ldi	r22, 0x25	; 37
    5ce8:	19 95       	eicall
 }
    5cea:	df 91       	pop	r29
    5cec:	cf 91       	pop	r28
    5cee:	1f 91       	pop	r17
    5cf0:	0f 91       	pop	r16
    5cf2:	08 95       	ret

00005cf4 <_ZN10MainScreen4drawEN7OBDCMDS3CMDEP5BTOBD>:
 void MainScreen::draw(OBDCMDS::CMD cmd, BTOBD * bt){
    5cf4:	bf 92       	push	r11
    5cf6:	cf 92       	push	r12
    5cf8:	df 92       	push	r13
    5cfa:	ef 92       	push	r14
    5cfc:	ff 92       	push	r15
    5cfe:	0f 93       	push	r16
    5d00:	1f 93       	push	r17
    5d02:	cf 93       	push	r28
    5d04:	df 93       	push	r29
    5d06:	cd b7       	in	r28, 0x3d	; 61
    5d08:	de b7       	in	r29, 0x3e	; 62
    5d0a:	25 97       	sbiw	r28, 0x05	; 5
    5d0c:	cd bf       	out	0x3d, r28	; 61
    5d0e:	de bf       	out	0x3e, r29	; 62
    5d10:	8c 01       	movw	r16, r24
    5d12:	f6 2e       	mov	r15, r22
    5d14:	ca 01       	movw	r24, r20
 	CBUFFER resp = bt->getRecent(cmd);
    5d16:	0e 94 ad 0d 	call	0x1b5a	; 0x1b5a <_ZN5BTOBD9getRecentEN7OBDCMDS3CMDE>
    5d1a:	e6 2e       	mov	r14, r22
    5d1c:	d7 2e       	mov	r13, r23
    5d1e:	c8 2e       	mov	r12, r24
    5d20:	b9 2e       	mov	r11, r25
	uint16_t val;
	char wbuf[5];
	switch(cmd) {
    5d22:	81 e0       	ldi	r24, 0x01	; 1
    5d24:	f8 16       	cp	r15, r24
    5d26:	09 f4       	brne	.+2      	; 0x5d2a <_ZN10MainScreen4drawEN7OBDCMDS3CMDEP5BTOBD+0x36>
    5d28:	4c c0       	rjmp	.+152    	; 0x5dc2 <_ZN10MainScreen4drawEN7OBDCMDS3CMDEP5BTOBD+0xce>
    5d2a:	f8 16       	cp	r15, r24
    5d2c:	48 f0       	brcs	.+18     	; 0x5d40 <_ZN10MainScreen4drawEN7OBDCMDS3CMDEP5BTOBD+0x4c>
    5d2e:	a2 e0       	ldi	r26, 0x02	; 2
    5d30:	fa 16       	cp	r15, r26
    5d32:	09 f4       	brne	.+2      	; 0x5d36 <_ZN10MainScreen4drawEN7OBDCMDS3CMDEP5BTOBD+0x42>
    5d34:	e1 c0       	rjmp	.+450    	; 0x5ef8 <_ZN10MainScreen4drawEN7OBDCMDS3CMDEP5BTOBD+0x204>
    5d36:	b6 e0       	ldi	r27, 0x06	; 6
    5d38:	fb 16       	cp	r15, r27
    5d3a:	09 f4       	brne	.+2      	; 0x5d3e <_ZN10MainScreen4drawEN7OBDCMDS3CMDEP5BTOBD+0x4a>
    5d3c:	9c c0       	rjmp	.+312    	; 0x5e76 <_ZN10MainScreen4drawEN7OBDCMDS3CMDEP5BTOBD+0x182>
    5d3e:	1c c1       	rjmp	.+568    	; 0x5f78 <_ZN10MainScreen4drawEN7OBDCMDS3CMDEP5BTOBD+0x284>
	case OBDCMDS::SPEED:
		lcd->setCursor(30,30);
    5d40:	4e e1       	ldi	r20, 0x1E	; 30
    5d42:	50 e0       	ldi	r21, 0x00	; 0
    5d44:	6e e1       	ldi	r22, 0x1E	; 30
    5d46:	70 e0       	ldi	r23, 0x00	; 0
    5d48:	f8 01       	movw	r30, r16
    5d4a:	80 81       	ld	r24, Z
    5d4c:	91 81       	ldd	r25, Z+1	; 0x01
    5d4e:	0e 94 03 07 	call	0xe06	; 0xe06 <_ZN12Adafruit_GFX9setCursorEii>
		lcd->setTextSize(9);
    5d52:	69 e0       	ldi	r22, 0x09	; 9
    5d54:	d8 01       	movw	r26, r16
    5d56:	8d 91       	ld	r24, X+
    5d58:	9c 91       	ld	r25, X
    5d5a:	0e 94 0b 07 	call	0xe16	; 0xe16 <_ZN12Adafruit_GFX11setTextSizeEh>
		val = OBDConversion::speed(resp.au, resp.al);
    5d5e:	6d 2d       	mov	r22, r13
    5d60:	8e 2d       	mov	r24, r14
    5d62:	4b d2       	rcall	.+1174   	; 0x61fa <_ZN13OBDConversion5speedEcc>
    5d64:	d8 2e       	mov	r13, r24
    5d66:	e8 2e       	mov	r14, r24
    5d68:	f1 2c       	mov	r15, r1
		if (val < 100) lcd->write(' ');
    5d6a:	b4 e6       	ldi	r27, 0x64	; 100
    5d6c:	eb 16       	cp	r14, r27
    5d6e:	f1 04       	cpc	r15, r1
    5d70:	58 f4       	brcc	.+22     	; 0x5d88 <_ZN10MainScreen4drawEN7OBDCMDS3CMDEP5BTOBD+0x94>
    5d72:	f8 01       	movw	r30, r16
    5d74:	80 81       	ld	r24, Z
    5d76:	91 81       	ldd	r25, Z+1	; 0x01
    5d78:	dc 01       	movw	r26, r24
    5d7a:	ed 91       	ld	r30, X+
    5d7c:	fc 91       	ld	r31, X
    5d7e:	00 88       	ldd	r0, Z+16	; 0x10
    5d80:	f1 89       	ldd	r31, Z+17	; 0x11
    5d82:	e0 2d       	mov	r30, r0
    5d84:	60 e2       	ldi	r22, 0x20	; 32
    5d86:	19 95       	eicall
		if (val < 10) lcd->write(' ');
    5d88:	ba e0       	ldi	r27, 0x0A	; 10
    5d8a:	eb 16       	cp	r14, r27
    5d8c:	f1 04       	cpc	r15, r1
    5d8e:	58 f4       	brcc	.+22     	; 0x5da6 <_ZN10MainScreen4drawEN7OBDCMDS3CMDEP5BTOBD+0xb2>
    5d90:	f8 01       	movw	r30, r16
    5d92:	80 81       	ld	r24, Z
    5d94:	91 81       	ldd	r25, Z+1	; 0x01
    5d96:	dc 01       	movw	r26, r24
    5d98:	ed 91       	ld	r30, X+
    5d9a:	fc 91       	ld	r31, X
    5d9c:	00 88       	ldd	r0, Z+16	; 0x10
    5d9e:	f1 89       	ldd	r31, Z+17	; 0x11
    5da0:	e0 2d       	mov	r30, r0
    5da2:	60 e2       	ldi	r22, 0x20	; 32
    5da4:	19 95       	eicall
    5da6:	4a e0       	ldi	r20, 0x0A	; 10
    5da8:	be 01       	movw	r22, r28
    5daa:	6f 5f       	subi	r22, 0xFF	; 255
    5dac:	7f 4f       	sbci	r23, 0xFF	; 255
    5dae:	8d 2d       	mov	r24, r13
    5db0:	90 e0       	ldi	r25, 0x00	; 0
    5db2:	0e 94 a8 3f 	call	0x7f50	; 0x7f50 <__itoa_ncheck>
		lcd->writeStr(itoa(val, wbuf, 10));
    5db6:	bc 01       	movw	r22, r24
    5db8:	f8 01       	movw	r30, r16
    5dba:	80 81       	ld	r24, Z
    5dbc:	91 81       	ldd	r25, Z+1	; 0x01
    5dbe:	7a de       	rcall	.-780    	; 0x5ab4 <_ZN10LCD_Driver8writeStrEPc>
		break;
    5dc0:	db c0       	rjmp	.+438    	; 0x5f78 <_ZN10MainScreen4drawEN7OBDCMDS3CMDEP5BTOBD+0x284>
	case OBDCMDS::RPM:
		lcd->setCursor(5,149);
    5dc2:	45 e9       	ldi	r20, 0x95	; 149
    5dc4:	50 e0       	ldi	r21, 0x00	; 0
    5dc6:	65 e0       	ldi	r22, 0x05	; 5
    5dc8:	70 e0       	ldi	r23, 0x00	; 0
    5dca:	d8 01       	movw	r26, r16
    5dcc:	8d 91       	ld	r24, X+
    5dce:	9c 91       	ld	r25, X
    5dd0:	0e 94 03 07 	call	0xe06	; 0xe06 <_ZN12Adafruit_GFX9setCursorEii>
		lcd->setTextSize(8);
    5dd4:	68 e0       	ldi	r22, 0x08	; 8
    5dd6:	f8 01       	movw	r30, r16
    5dd8:	80 81       	ld	r24, Z
    5dda:	91 81       	ldd	r25, Z+1	; 0x01
    5ddc:	0e 94 0b 07 	call	0xe16	; 0xe16 <_ZN12Adafruit_GFX11setTextSizeEh>
		val = OBDConversion::rpm(resp.au, resp.al, resp.bu, resp.bl);
    5de0:	2b 2d       	mov	r18, r11
    5de2:	4c 2d       	mov	r20, r12
    5de4:	6d 2d       	mov	r22, r13
    5de6:	8e 2d       	mov	r24, r14
    5de8:	31 d2       	rcall	.+1122   	; 0x624c <_ZN13OBDConversion3rpmEcccc>
    5dea:	7c 01       	movw	r14, r24
    5dec:	80 31       	cpi	r24, 0x10	; 16
    5dee:	f7 e2       	ldi	r31, 0x27	; 39
    5df0:	9f 07       	cpc	r25, r31
    5df2:	30 f0       	brcs	.+12     	; 0x5e00 <_ZN10MainScreen4drawEN7OBDCMDS3CMDEP5BTOBD+0x10c>
    5df4:	0f 2e       	mov	r0, r31
    5df6:	ff e0       	ldi	r31, 0x0F	; 15
    5df8:	ef 2e       	mov	r14, r31
    5dfa:	f7 e2       	ldi	r31, 0x27	; 39
    5dfc:	ff 2e       	mov	r15, r31
    5dfe:	f0 2d       	mov	r31, r0
		if (val >= 10000) val = 9999;
		if (val < 1000) lcd->write(' ');
    5e00:	88 ee       	ldi	r24, 0xE8	; 232
    5e02:	e8 16       	cp	r14, r24
    5e04:	83 e0       	ldi	r24, 0x03	; 3
    5e06:	f8 06       	cpc	r15, r24
    5e08:	58 f4       	brcc	.+22     	; 0x5e20 <_ZN10MainScreen4drawEN7OBDCMDS3CMDEP5BTOBD+0x12c>
    5e0a:	d8 01       	movw	r26, r16
    5e0c:	8d 91       	ld	r24, X+
    5e0e:	9c 91       	ld	r25, X
    5e10:	dc 01       	movw	r26, r24
    5e12:	ed 91       	ld	r30, X+
    5e14:	fc 91       	ld	r31, X
    5e16:	00 88       	ldd	r0, Z+16	; 0x10
    5e18:	f1 89       	ldd	r31, Z+17	; 0x11
    5e1a:	e0 2d       	mov	r30, r0
    5e1c:	60 e2       	ldi	r22, 0x20	; 32
    5e1e:	19 95       	eicall
		if (val < 100) lcd->write(' ');
    5e20:	b4 e6       	ldi	r27, 0x64	; 100
    5e22:	eb 16       	cp	r14, r27
    5e24:	f1 04       	cpc	r15, r1
    5e26:	58 f4       	brcc	.+22     	; 0x5e3e <_ZN10MainScreen4drawEN7OBDCMDS3CMDEP5BTOBD+0x14a>
    5e28:	f8 01       	movw	r30, r16
    5e2a:	80 81       	ld	r24, Z
    5e2c:	91 81       	ldd	r25, Z+1	; 0x01
    5e2e:	dc 01       	movw	r26, r24
    5e30:	ed 91       	ld	r30, X+
    5e32:	fc 91       	ld	r31, X
    5e34:	00 88       	ldd	r0, Z+16	; 0x10
    5e36:	f1 89       	ldd	r31, Z+17	; 0x11
    5e38:	e0 2d       	mov	r30, r0
    5e3a:	60 e2       	ldi	r22, 0x20	; 32
    5e3c:	19 95       	eicall
		if (val < 10) lcd->write(' ');
    5e3e:	ba e0       	ldi	r27, 0x0A	; 10
    5e40:	eb 16       	cp	r14, r27
    5e42:	f1 04       	cpc	r15, r1
    5e44:	58 f4       	brcc	.+22     	; 0x5e5c <_ZN10MainScreen4drawEN7OBDCMDS3CMDEP5BTOBD+0x168>
    5e46:	f8 01       	movw	r30, r16
    5e48:	80 81       	ld	r24, Z
    5e4a:	91 81       	ldd	r25, Z+1	; 0x01
    5e4c:	dc 01       	movw	r26, r24
    5e4e:	ed 91       	ld	r30, X+
    5e50:	fc 91       	ld	r31, X
    5e52:	00 88       	ldd	r0, Z+16	; 0x10
    5e54:	f1 89       	ldd	r31, Z+17	; 0x11
    5e56:	e0 2d       	mov	r30, r0
    5e58:	60 e2       	ldi	r22, 0x20	; 32
    5e5a:	19 95       	eicall
    5e5c:	4a e0       	ldi	r20, 0x0A	; 10
    5e5e:	be 01       	movw	r22, r28
    5e60:	6f 5f       	subi	r22, 0xFF	; 255
    5e62:	7f 4f       	sbci	r23, 0xFF	; 255
    5e64:	c7 01       	movw	r24, r14
    5e66:	0e 94 a8 3f 	call	0x7f50	; 0x7f50 <__itoa_ncheck>
		lcd->writeStr(itoa(val, wbuf, 10));
    5e6a:	bc 01       	movw	r22, r24
    5e6c:	f8 01       	movw	r30, r16
    5e6e:	80 81       	ld	r24, Z
    5e70:	91 81       	ldd	r25, Z+1	; 0x01
    5e72:	20 de       	rcall	.-960    	; 0x5ab4 <_ZN10LCD_Driver8writeStrEPc>
		break;
    5e74:	81 c0       	rjmp	.+258    	; 0x5f78 <_ZN10MainScreen4drawEN7OBDCMDS3CMDEP5BTOBD+0x284>
	case OBDCMDS::ENGINE_LOAD:
		lcd->setCursor(259,30);
    5e76:	4e e1       	ldi	r20, 0x1E	; 30
    5e78:	50 e0       	ldi	r21, 0x00	; 0
    5e7a:	63 e0       	ldi	r22, 0x03	; 3
    5e7c:	71 e0       	ldi	r23, 0x01	; 1
    5e7e:	d8 01       	movw	r26, r16
    5e80:	8d 91       	ld	r24, X+
    5e82:	9c 91       	ld	r25, X
    5e84:	0e 94 03 07 	call	0xe06	; 0xe06 <_ZN12Adafruit_GFX9setCursorEii>
		lcd->setTextSize(9);
    5e88:	69 e0       	ldi	r22, 0x09	; 9
    5e8a:	f8 01       	movw	r30, r16
    5e8c:	80 81       	ld	r24, Z
    5e8e:	91 81       	ldd	r25, Z+1	; 0x01
    5e90:	0e 94 0b 07 	call	0xe16	; 0xe16 <_ZN12Adafruit_GFX11setTextSizeEh>
		val = OBDConversion::engine_load(resp.au, resp.al);
    5e94:	6d 2d       	mov	r22, r13
    5e96:	8e 2d       	mov	r24, r14
    5e98:	0b d2       	rcall	.+1046   	; 0x62b0 <_ZN13OBDConversion11engine_loadEcc>
    5e9a:	d8 2e       	mov	r13, r24
    5e9c:	e8 2e       	mov	r14, r24
    5e9e:	f1 2c       	mov	r15, r1
		
		if (val < 100) lcd->write(' ');
    5ea0:	f4 e6       	ldi	r31, 0x64	; 100
    5ea2:	ef 16       	cp	r14, r31
    5ea4:	f1 04       	cpc	r15, r1
    5ea6:	58 f4       	brcc	.+22     	; 0x5ebe <_ZN10MainScreen4drawEN7OBDCMDS3CMDEP5BTOBD+0x1ca>
    5ea8:	d8 01       	movw	r26, r16
    5eaa:	8d 91       	ld	r24, X+
    5eac:	9c 91       	ld	r25, X
    5eae:	dc 01       	movw	r26, r24
    5eb0:	ed 91       	ld	r30, X+
    5eb2:	fc 91       	ld	r31, X
    5eb4:	00 88       	ldd	r0, Z+16	; 0x10
    5eb6:	f1 89       	ldd	r31, Z+17	; 0x11
    5eb8:	e0 2d       	mov	r30, r0
    5eba:	60 e2       	ldi	r22, 0x20	; 32
    5ebc:	19 95       	eicall
		if (val < 10) lcd->write(' ');
    5ebe:	ba e0       	ldi	r27, 0x0A	; 10
    5ec0:	eb 16       	cp	r14, r27
    5ec2:	f1 04       	cpc	r15, r1
    5ec4:	58 f4       	brcc	.+22     	; 0x5edc <_ZN10MainScreen4drawEN7OBDCMDS3CMDEP5BTOBD+0x1e8>
    5ec6:	f8 01       	movw	r30, r16
    5ec8:	80 81       	ld	r24, Z
    5eca:	91 81       	ldd	r25, Z+1	; 0x01
    5ecc:	dc 01       	movw	r26, r24
    5ece:	ed 91       	ld	r30, X+
    5ed0:	fc 91       	ld	r31, X
    5ed2:	00 88       	ldd	r0, Z+16	; 0x10
    5ed4:	f1 89       	ldd	r31, Z+17	; 0x11
    5ed6:	e0 2d       	mov	r30, r0
    5ed8:	60 e2       	ldi	r22, 0x20	; 32
    5eda:	19 95       	eicall
    5edc:	4a e0       	ldi	r20, 0x0A	; 10
    5ede:	be 01       	movw	r22, r28
    5ee0:	6f 5f       	subi	r22, 0xFF	; 255
    5ee2:	7f 4f       	sbci	r23, 0xFF	; 255
    5ee4:	8d 2d       	mov	r24, r13
    5ee6:	90 e0       	ldi	r25, 0x00	; 0
    5ee8:	0e 94 a8 3f 	call	0x7f50	; 0x7f50 <__itoa_ncheck>
		lcd->writeStr(itoa(val, wbuf, 10));
    5eec:	bc 01       	movw	r22, r24
    5eee:	f8 01       	movw	r30, r16
    5ef0:	80 81       	ld	r24, Z
    5ef2:	91 81       	ldd	r25, Z+1	; 0x01
    5ef4:	df dd       	rcall	.-1090   	; 0x5ab4 <_ZN10LCD_Driver8writeStrEPc>
		break;
    5ef6:	40 c0       	rjmp	.+128    	; 0x5f78 <_ZN10MainScreen4drawEN7OBDCMDS3CMDEP5BTOBD+0x284>
	case OBDCMDS::THROTTLE_POS:
		lcd->setCursor(259, 149);
    5ef8:	45 e9       	ldi	r20, 0x95	; 149
    5efa:	50 e0       	ldi	r21, 0x00	; 0
    5efc:	63 e0       	ldi	r22, 0x03	; 3
    5efe:	71 e0       	ldi	r23, 0x01	; 1
    5f00:	d8 01       	movw	r26, r16
    5f02:	8d 91       	ld	r24, X+
    5f04:	9c 91       	ld	r25, X
    5f06:	0e 94 03 07 	call	0xe06	; 0xe06 <_ZN12Adafruit_GFX9setCursorEii>
		lcd->setTextSize(9);
    5f0a:	69 e0       	ldi	r22, 0x09	; 9
    5f0c:	f8 01       	movw	r30, r16
    5f0e:	80 81       	ld	r24, Z
    5f10:	91 81       	ldd	r25, Z+1	; 0x01
    5f12:	0e 94 0b 07 	call	0xe16	; 0xe16 <_ZN12Adafruit_GFX11setTextSizeEh>
		val = OBDConversion::throttle_pos(resp.au, resp.al);
    5f16:	6d 2d       	mov	r22, r13
    5f18:	8e 2d       	mov	r24, r14
    5f1a:	e5 d1       	rcall	.+970    	; 0x62e6 <_ZN13OBDConversion12throttle_posEcc>
    5f1c:	d8 2e       	mov	r13, r24
    5f1e:	e8 2e       	mov	r14, r24
    5f20:	f1 2c       	mov	r15, r1
		if (val < 100) lcd->write(' ');
    5f22:	f4 e6       	ldi	r31, 0x64	; 100
    5f24:	ef 16       	cp	r14, r31
    5f26:	f1 04       	cpc	r15, r1
    5f28:	58 f4       	brcc	.+22     	; 0x5f40 <_ZN10MainScreen4drawEN7OBDCMDS3CMDEP5BTOBD+0x24c>
    5f2a:	d8 01       	movw	r26, r16
    5f2c:	8d 91       	ld	r24, X+
    5f2e:	9c 91       	ld	r25, X
    5f30:	dc 01       	movw	r26, r24
    5f32:	ed 91       	ld	r30, X+
    5f34:	fc 91       	ld	r31, X
    5f36:	00 88       	ldd	r0, Z+16	; 0x10
    5f38:	f1 89       	ldd	r31, Z+17	; 0x11
    5f3a:	e0 2d       	mov	r30, r0
    5f3c:	60 e2       	ldi	r22, 0x20	; 32
    5f3e:	19 95       	eicall
		if (val < 10) lcd->write(' ');
    5f40:	ba e0       	ldi	r27, 0x0A	; 10
    5f42:	eb 16       	cp	r14, r27
    5f44:	f1 04       	cpc	r15, r1
    5f46:	58 f4       	brcc	.+22     	; 0x5f5e <_ZN10MainScreen4drawEN7OBDCMDS3CMDEP5BTOBD+0x26a>
    5f48:	f8 01       	movw	r30, r16
    5f4a:	80 81       	ld	r24, Z
    5f4c:	91 81       	ldd	r25, Z+1	; 0x01
    5f4e:	dc 01       	movw	r26, r24
    5f50:	ed 91       	ld	r30, X+
    5f52:	fc 91       	ld	r31, X
    5f54:	00 88       	ldd	r0, Z+16	; 0x10
    5f56:	f1 89       	ldd	r31, Z+17	; 0x11
    5f58:	e0 2d       	mov	r30, r0
    5f5a:	60 e2       	ldi	r22, 0x20	; 32
    5f5c:	19 95       	eicall
    5f5e:	4a e0       	ldi	r20, 0x0A	; 10
    5f60:	be 01       	movw	r22, r28
    5f62:	6f 5f       	subi	r22, 0xFF	; 255
    5f64:	7f 4f       	sbci	r23, 0xFF	; 255
    5f66:	8d 2d       	mov	r24, r13
    5f68:	90 e0       	ldi	r25, 0x00	; 0
    5f6a:	0e 94 a8 3f 	call	0x7f50	; 0x7f50 <__itoa_ncheck>
		lcd->writeStr(itoa(val, wbuf, 10));
    5f6e:	bc 01       	movw	r22, r24
    5f70:	f8 01       	movw	r30, r16
    5f72:	80 81       	ld	r24, Z
    5f74:	91 81       	ldd	r25, Z+1	; 0x01
    5f76:	9e dd       	rcall	.-1220   	; 0x5ab4 <_ZN10LCD_Driver8writeStrEPc>
		break;
	}
	

 }
    5f78:	25 96       	adiw	r28, 0x05	; 5
    5f7a:	cd bf       	out	0x3d, r28	; 61
    5f7c:	de bf       	out	0x3e, r29	; 62
    5f7e:	df 91       	pop	r29
    5f80:	cf 91       	pop	r28
    5f82:	1f 91       	pop	r17
    5f84:	0f 91       	pop	r16
    5f86:	ff 90       	pop	r15
    5f88:	ef 90       	pop	r14
    5f8a:	df 90       	pop	r13
    5f8c:	cf 90       	pop	r12
    5f8e:	bf 90       	pop	r11
    5f90:	08 95       	ret

00005f92 <_ZN10MainScreen7drawGPSEN6GPSVAL3VALEP3GPS>:
 void MainScreen::drawGPS(GPSVAL::VAL value, GPS * gps) {
    5f92:	df 92       	push	r13
    5f94:	ef 92       	push	r14
    5f96:	ff 92       	push	r15
    5f98:	0f 93       	push	r16
    5f9a:	1f 93       	push	r17
    5f9c:	cf 93       	push	r28
    5f9e:	df 93       	push	r29
    5fa0:	cd b7       	in	r28, 0x3d	; 61
    5fa2:	de b7       	in	r29, 0x3e	; 62
    5fa4:	2f 97       	sbiw	r28, 0x0f	; 15
    5fa6:	cd bf       	out	0x3d, r28	; 61
    5fa8:	de bf       	out	0x3e, r29	; 62
    5faa:	8c 01       	movw	r16, r24
    5fac:	d6 2e       	mov	r13, r22
    5fae:	7a 01       	movw	r14, r20
	 char wbuf[15];
	 gps->retrieve(value, wbuf);
    5fb0:	ae 01       	movw	r20, r28
    5fb2:	4f 5f       	subi	r20, 0xFF	; 255
    5fb4:	5f 4f       	sbci	r21, 0xFF	; 255
    5fb6:	c7 01       	movw	r24, r14
    5fb8:	f1 d9       	rcall	.-3102   	; 0x539c <_ZN3GPS8retrieveEN6GPSVAL3VALEPc>
	 switch(value) {
    5fba:	82 e0       	ldi	r24, 0x02	; 2
    5fbc:	d8 16       	cp	r13, r24
    5fbe:	29 f0       	breq	.+10     	; 0x5fca <_ZN10MainScreen7drawGPSEN6GPSVAL3VALEP3GPS+0x38>
    5fc0:	a4 e0       	ldi	r26, 0x04	; 4
    5fc2:	da 16       	cp	r13, r26
    5fc4:	09 f4       	brne	.+2      	; 0x5fc8 <_ZN10MainScreen7drawGPSEN6GPSVAL3VALEP3GPS+0x36>
    5fc6:	5a c0       	rjmp	.+180    	; 0x607c <_ZN10MainScreen7drawGPSEN6GPSVAL3VALEP3GPS+0xea>
    5fc8:	bc c0       	rjmp	.+376    	; 0x6142 <_ZN10MainScreen7drawGPSEN6GPSVAL3VALEP3GPS+0x1b0>
	 case GPSVAL::LAT:
		lcd->setCursor(60,300);
    5fca:	4c e2       	ldi	r20, 0x2C	; 44
    5fcc:	51 e0       	ldi	r21, 0x01	; 1
    5fce:	6c e3       	ldi	r22, 0x3C	; 60
    5fd0:	70 e0       	ldi	r23, 0x00	; 0
    5fd2:	f8 01       	movw	r30, r16
    5fd4:	80 81       	ld	r24, Z
    5fd6:	91 81       	ldd	r25, Z+1	; 0x01
    5fd8:	0e 94 03 07 	call	0xe06	; 0xe06 <_ZN12Adafruit_GFX9setCursorEii>
		lcd->setTextSize(2);
    5fdc:	62 e0       	ldi	r22, 0x02	; 2
    5fde:	d8 01       	movw	r26, r16
    5fe0:	8d 91       	ld	r24, X+
    5fe2:	9c 91       	ld	r25, X
    5fe4:	0e 94 0b 07 	call	0xe16	; 0xe16 <_ZN12Adafruit_GFX11setTextSizeEh>
		lcd->write(wbuf[0]);
    5fe8:	f8 01       	movw	r30, r16
    5fea:	80 81       	ld	r24, Z
    5fec:	91 81       	ldd	r25, Z+1	; 0x01
    5fee:	dc 01       	movw	r26, r24
    5ff0:	ed 91       	ld	r30, X+
    5ff2:	fc 91       	ld	r31, X
    5ff4:	00 88       	ldd	r0, Z+16	; 0x10
    5ff6:	f1 89       	ldd	r31, Z+17	; 0x11
    5ff8:	e0 2d       	mov	r30, r0
    5ffa:	69 81       	ldd	r22, Y+1	; 0x01
    5ffc:	19 95       	eicall
		lcd->write(wbuf[1]);
    5ffe:	f8 01       	movw	r30, r16
    6000:	80 81       	ld	r24, Z
    6002:	91 81       	ldd	r25, Z+1	; 0x01
    6004:	dc 01       	movw	r26, r24
    6006:	ed 91       	ld	r30, X+
    6008:	fc 91       	ld	r31, X
    600a:	00 88       	ldd	r0, Z+16	; 0x10
    600c:	f1 89       	ldd	r31, Z+17	; 0x11
    600e:	e0 2d       	mov	r30, r0
    6010:	6a 81       	ldd	r22, Y+2	; 0x02
    6012:	19 95       	eicall
		lcd->write(248);
    6014:	f8 01       	movw	r30, r16
    6016:	80 81       	ld	r24, Z
    6018:	91 81       	ldd	r25, Z+1	; 0x01
    601a:	dc 01       	movw	r26, r24
    601c:	ed 91       	ld	r30, X+
    601e:	fc 91       	ld	r31, X
    6020:	00 88       	ldd	r0, Z+16	; 0x10
    6022:	f1 89       	ldd	r31, Z+17	; 0x11
    6024:	e0 2d       	mov	r30, r0
    6026:	68 ef       	ldi	r22, 0xF8	; 248
    6028:	19 95       	eicall
		lcd->write(' ');
    602a:	f8 01       	movw	r30, r16
    602c:	80 81       	ld	r24, Z
    602e:	91 81       	ldd	r25, Z+1	; 0x01
    6030:	dc 01       	movw	r26, r24
    6032:	ed 91       	ld	r30, X+
    6034:	fc 91       	ld	r31, X
    6036:	00 88       	ldd	r0, Z+16	; 0x10
    6038:	f1 89       	ldd	r31, Z+17	; 0x11
    603a:	e0 2d       	mov	r30, r0
    603c:	60 e2       	ldi	r22, 0x20	; 32
    603e:	19 95       	eicall
		lcd->writeStr(wbuf + 2);
    6040:	be 01       	movw	r22, r28
    6042:	6d 5f       	subi	r22, 0xFD	; 253
    6044:	7f 4f       	sbci	r23, 0xFF	; 255
    6046:	f8 01       	movw	r30, r16
    6048:	80 81       	ld	r24, Z
    604a:	91 81       	ldd	r25, Z+1	; 0x01
    604c:	33 dd       	rcall	.-1434   	; 0x5ab4 <_ZN10LCD_Driver8writeStrEPc>
		lcd->write('\'');
    604e:	d8 01       	movw	r26, r16
    6050:	8d 91       	ld	r24, X+
    6052:	9c 91       	ld	r25, X
    6054:	dc 01       	movw	r26, r24
    6056:	ed 91       	ld	r30, X+
    6058:	fc 91       	ld	r31, X
    605a:	00 88       	ldd	r0, Z+16	; 0x10
    605c:	f1 89       	ldd	r31, Z+17	; 0x11
    605e:	e0 2d       	mov	r30, r0
    6060:	67 e2       	ldi	r22, 0x27	; 39
    6062:	19 95       	eicall
		lcd->writeStr(gps->retrieve(GPSVAL::NS, wbuf));
    6064:	ae 01       	movw	r20, r28
    6066:	4f 5f       	subi	r20, 0xFF	; 255
    6068:	5f 4f       	sbci	r21, 0xFF	; 255
    606a:	63 e0       	ldi	r22, 0x03	; 3
    606c:	c7 01       	movw	r24, r14
    606e:	96 d9       	rcall	.-3284   	; 0x539c <_ZN3GPS8retrieveEN6GPSVAL3VALEPc>
    6070:	bc 01       	movw	r22, r24
    6072:	f8 01       	movw	r30, r16
    6074:	80 81       	ld	r24, Z
    6076:	91 81       	ldd	r25, Z+1	; 0x01
    6078:	1d dd       	rcall	.-1478   	; 0x5ab4 <_ZN10LCD_Driver8writeStrEPc>
		break;
    607a:	63 c0       	rjmp	.+198    	; 0x6142 <_ZN10MainScreen7drawGPSEN6GPSVAL3VALEP3GPS+0x1b0>
	 case GPSVAL::LONG:
		lcd->setCursor(305, 300);
    607c:	4c e2       	ldi	r20, 0x2C	; 44
    607e:	51 e0       	ldi	r21, 0x01	; 1
    6080:	61 e3       	ldi	r22, 0x31	; 49
    6082:	71 e0       	ldi	r23, 0x01	; 1
    6084:	d8 01       	movw	r26, r16
    6086:	8d 91       	ld	r24, X+
    6088:	9c 91       	ld	r25, X
    608a:	0e 94 03 07 	call	0xe06	; 0xe06 <_ZN12Adafruit_GFX9setCursorEii>
		lcd->setTextSize(2);
    608e:	62 e0       	ldi	r22, 0x02	; 2
    6090:	f8 01       	movw	r30, r16
    6092:	80 81       	ld	r24, Z
    6094:	91 81       	ldd	r25, Z+1	; 0x01
    6096:	0e 94 0b 07 	call	0xe16	; 0xe16 <_ZN12Adafruit_GFX11setTextSizeEh>
		lcd->write(wbuf[0]);
    609a:	d8 01       	movw	r26, r16
    609c:	8d 91       	ld	r24, X+
    609e:	9c 91       	ld	r25, X
    60a0:	dc 01       	movw	r26, r24
    60a2:	ed 91       	ld	r30, X+
    60a4:	fc 91       	ld	r31, X
    60a6:	00 88       	ldd	r0, Z+16	; 0x10
    60a8:	f1 89       	ldd	r31, Z+17	; 0x11
    60aa:	e0 2d       	mov	r30, r0
    60ac:	69 81       	ldd	r22, Y+1	; 0x01
    60ae:	19 95       	eicall
		lcd->write(wbuf[1]);
    60b0:	f8 01       	movw	r30, r16
    60b2:	80 81       	ld	r24, Z
    60b4:	91 81       	ldd	r25, Z+1	; 0x01
    60b6:	dc 01       	movw	r26, r24
    60b8:	ed 91       	ld	r30, X+
    60ba:	fc 91       	ld	r31, X
    60bc:	00 88       	ldd	r0, Z+16	; 0x10
    60be:	f1 89       	ldd	r31, Z+17	; 0x11
    60c0:	e0 2d       	mov	r30, r0
    60c2:	6a 81       	ldd	r22, Y+2	; 0x02
    60c4:	19 95       	eicall
		lcd->write(wbuf[2]);
    60c6:	f8 01       	movw	r30, r16
    60c8:	80 81       	ld	r24, Z
    60ca:	91 81       	ldd	r25, Z+1	; 0x01
    60cc:	dc 01       	movw	r26, r24
    60ce:	ed 91       	ld	r30, X+
    60d0:	fc 91       	ld	r31, X
    60d2:	00 88       	ldd	r0, Z+16	; 0x10
    60d4:	f1 89       	ldd	r31, Z+17	; 0x11
    60d6:	e0 2d       	mov	r30, r0
    60d8:	6b 81       	ldd	r22, Y+3	; 0x03
    60da:	19 95       	eicall
		lcd->write(248);
    60dc:	f8 01       	movw	r30, r16
    60de:	80 81       	ld	r24, Z
    60e0:	91 81       	ldd	r25, Z+1	; 0x01
    60e2:	dc 01       	movw	r26, r24
    60e4:	ed 91       	ld	r30, X+
    60e6:	fc 91       	ld	r31, X
    60e8:	00 88       	ldd	r0, Z+16	; 0x10
    60ea:	f1 89       	ldd	r31, Z+17	; 0x11
    60ec:	e0 2d       	mov	r30, r0
    60ee:	68 ef       	ldi	r22, 0xF8	; 248
    60f0:	19 95       	eicall
		lcd->write(' ');
    60f2:	f8 01       	movw	r30, r16
    60f4:	80 81       	ld	r24, Z
    60f6:	91 81       	ldd	r25, Z+1	; 0x01
    60f8:	dc 01       	movw	r26, r24
    60fa:	ed 91       	ld	r30, X+
    60fc:	fc 91       	ld	r31, X
    60fe:	00 88       	ldd	r0, Z+16	; 0x10
    6100:	f1 89       	ldd	r31, Z+17	; 0x11
    6102:	e0 2d       	mov	r30, r0
    6104:	60 e2       	ldi	r22, 0x20	; 32
    6106:	19 95       	eicall
		lcd->writeStr(wbuf + 3);
    6108:	be 01       	movw	r22, r28
    610a:	6c 5f       	subi	r22, 0xFC	; 252
    610c:	7f 4f       	sbci	r23, 0xFF	; 255
    610e:	f8 01       	movw	r30, r16
    6110:	80 81       	ld	r24, Z
    6112:	91 81       	ldd	r25, Z+1	; 0x01
    6114:	cf dc       	rcall	.-1634   	; 0x5ab4 <_ZN10LCD_Driver8writeStrEPc>
		lcd->write('\'');
    6116:	d8 01       	movw	r26, r16
    6118:	8d 91       	ld	r24, X+
    611a:	9c 91       	ld	r25, X
    611c:	dc 01       	movw	r26, r24
    611e:	ed 91       	ld	r30, X+
    6120:	fc 91       	ld	r31, X
    6122:	00 88       	ldd	r0, Z+16	; 0x10
    6124:	f1 89       	ldd	r31, Z+17	; 0x11
    6126:	e0 2d       	mov	r30, r0
    6128:	67 e2       	ldi	r22, 0x27	; 39
    612a:	19 95       	eicall
		lcd->writeStr(gps->retrieve(GPSVAL::EW, wbuf));
    612c:	ae 01       	movw	r20, r28
    612e:	4f 5f       	subi	r20, 0xFF	; 255
    6130:	5f 4f       	sbci	r21, 0xFF	; 255
    6132:	65 e0       	ldi	r22, 0x05	; 5
    6134:	c7 01       	movw	r24, r14
    6136:	32 d9       	rcall	.-3484   	; 0x539c <_ZN3GPS8retrieveEN6GPSVAL3VALEPc>
    6138:	bc 01       	movw	r22, r24
    613a:	f8 01       	movw	r30, r16
    613c:	80 81       	ld	r24, Z
    613e:	91 81       	ldd	r25, Z+1	; 0x01
    6140:	b9 dc       	rcall	.-1678   	; 0x5ab4 <_ZN10LCD_Driver8writeStrEPc>
		break;
	 }
    6142:	2f 96       	adiw	r28, 0x0f	; 15
    6144:	cd bf       	out	0x3d, r28	; 61
    6146:	de bf       	out	0x3e, r29	; 62
    6148:	df 91       	pop	r29
    614a:	cf 91       	pop	r28
    614c:	1f 91       	pop	r17
    614e:	0f 91       	pop	r16
    6150:	ff 90       	pop	r15
    6152:	ef 90       	pop	r14
    6154:	df 90       	pop	r13
    6156:	08 95       	ret

00006158 <_ZN10MainScreen6updateEP5BTOBDP3GPS>:

 #include "MainScreen.h"

 MainScreen::MainScreen(LCD_Driver * lcdscreen) : Screen(lcdscreen) {}
 
 void MainScreen::update(BTOBD * bt, GPS * gps) {
    6158:	bf 92       	push	r11
    615a:	cf 92       	push	r12
    615c:	df 92       	push	r13
    615e:	ef 92       	push	r14
    6160:	ff 92       	push	r15
    6162:	0f 93       	push	r16
    6164:	1f 93       	push	r17
    6166:	cf 93       	push	r28
    6168:	df 93       	push	r29
    616a:	8c 01       	movw	r16, r24
    616c:	6b 01       	movw	r12, r22
    616e:	7a 01       	movw	r14, r20
	uint16_t status = bt->getStatus();
    6170:	cb 01       	movw	r24, r22
    6172:	0e 94 58 0d 	call	0x1ab0	; 0x1ab0 <_ZN5BTOBD9getStatusEv>
    6176:	ec 01       	movw	r28, r24
	bt->clearStatus();
    6178:	c6 01       	movw	r24, r12
    617a:	0e 94 5c 0d 	call	0x1ab8	; 0x1ab8 <_ZN5BTOBD11clearStatusEv>
	OBDCMDS::CMD cmd = OBDCMDS::SPEED;
	while (status) {
    617e:	20 97       	sbiw	r28, 0x00	; 0
    6180:	61 f0       	breq	.+24     	; 0x619a <_ZN10MainScreen6updateEP5BTOBDP3GPS+0x42>
 MainScreen::MainScreen(LCD_Driver * lcdscreen) : Screen(lcdscreen) {}
 
 void MainScreen::update(BTOBD * bt, GPS * gps) {
	uint16_t status = bt->getStatus();
	bt->clearStatus();
	OBDCMDS::CMD cmd = OBDCMDS::SPEED;
    6182:	b1 2c       	mov	r11, r1
	while (status) {
		if (status & 1) draw(cmd, bt);
    6184:	c0 ff       	sbrs	r28, 0
    6186:	04 c0       	rjmp	.+8      	; 0x6190 <_ZN10MainScreen6updateEP5BTOBDP3GPS+0x38>
    6188:	a6 01       	movw	r20, r12
    618a:	6b 2d       	mov	r22, r11
    618c:	c8 01       	movw	r24, r16
    618e:	b2 dd       	rcall	.-1180   	; 0x5cf4 <_ZN10MainScreen4drawEN7OBDCMDS3CMDEP5BTOBD>
		status >>= 1;
    6190:	d6 95       	lsr	r29
    6192:	c7 95       	ror	r28
		cmd = static_cast<OBDCMDS::CMD>(((int)cmd)+ 1);
    6194:	b3 94       	inc	r11
 
 void MainScreen::update(BTOBD * bt, GPS * gps) {
	uint16_t status = bt->getStatus();
	bt->clearStatus();
	OBDCMDS::CMD cmd = OBDCMDS::SPEED;
	while (status) {
    6196:	20 97       	sbiw	r28, 0x00	; 0
    6198:	a9 f7       	brne	.-22     	; 0x6184 <_ZN10MainScreen6updateEP5BTOBDP3GPS+0x2c>
		if (status & 1) draw(cmd, bt);
		status >>= 1;
		cmd = static_cast<OBDCMDS::CMD>(((int)cmd)+ 1);
	}
	GPSVAL::VAL value = GPSVAL::FIX_TIME;
	status = gps->getStatus();
    619a:	c7 01       	movw	r24, r14
    619c:	f7 d8       	rcall	.-3602   	; 0x538c <_ZN3GPS9getStatusEv>
    619e:	ec 01       	movw	r28, r24
	gps->clearStatus();
    61a0:	c7 01       	movw	r24, r14
    61a2:	f8 d8       	rcall	.-3600   	; 0x5394 <_ZN3GPS11clearStatusEv>
	while (status) {
    61a4:	20 97       	sbiw	r28, 0x00	; 0
    61a6:	61 f0       	breq	.+24     	; 0x61c0 <_ZN10MainScreen6updateEP5BTOBDP3GPS+0x68>
	while (status) {
		if (status & 1) draw(cmd, bt);
		status >>= 1;
		cmd = static_cast<OBDCMDS::CMD>(((int)cmd)+ 1);
	}
	GPSVAL::VAL value = GPSVAL::FIX_TIME;
    61a8:	d1 2c       	mov	r13, r1
	status = gps->getStatus();
	gps->clearStatus();
	while (status) {
		if (status & 1) drawGPS(value, gps);
    61aa:	c0 ff       	sbrs	r28, 0
    61ac:	04 c0       	rjmp	.+8      	; 0x61b6 <_ZN10MainScreen6updateEP5BTOBDP3GPS+0x5e>
    61ae:	a7 01       	movw	r20, r14
    61b0:	6d 2d       	mov	r22, r13
    61b2:	c8 01       	movw	r24, r16
    61b4:	ee de       	rcall	.-548    	; 0x5f92 <_ZN10MainScreen7drawGPSEN6GPSVAL3VALEP3GPS>
		status >>= 1;
    61b6:	d6 95       	lsr	r29
    61b8:	c7 95       	ror	r28
		value = static_cast<GPSVAL::VAL>(((int)value)+1);
    61ba:	d3 94       	inc	r13
		cmd = static_cast<OBDCMDS::CMD>(((int)cmd)+ 1);
	}
	GPSVAL::VAL value = GPSVAL::FIX_TIME;
	status = gps->getStatus();
	gps->clearStatus();
	while (status) {
    61bc:	20 97       	sbiw	r28, 0x00	; 0
    61be:	a9 f7       	brne	.-22     	; 0x61aa <_ZN10MainScreen6updateEP5BTOBDP3GPS+0x52>
		if (status & 1) drawGPS(value, gps);
		status >>= 1;
		value = static_cast<GPSVAL::VAL>(((int)value)+1);
	}

 }
    61c0:	df 91       	pop	r29
    61c2:	cf 91       	pop	r28
    61c4:	1f 91       	pop	r17
    61c6:	0f 91       	pop	r16
    61c8:	ff 90       	pop	r15
    61ca:	ef 90       	pop	r14
    61cc:	df 90       	pop	r13
    61ce:	cf 90       	pop	r12
    61d0:	bf 90       	pop	r11
    61d2:	08 95       	ret

000061d4 <_ZN13OBDConversion4initEv>:
#include "OBDConversion.h"

DATAPOINT OBDConversion::dp;

void OBDConversion::init() {
	OBDConversion::dp.engine_load = 0;
    61d4:	10 92 80 21 	sts	0x2180, r1
	OBDConversion::dp.rpm = 0;
    61d8:	10 92 81 21 	sts	0x2181, r1
    61dc:	10 92 82 21 	sts	0x2182, r1
	OBDConversion::dp.speed = 0;
    61e0:	10 92 7e 21 	sts	0x217E, r1
	OBDConversion::dp.throttle_pos = 0;
    61e4:	10 92 7f 21 	sts	0x217F, r1
    61e8:	08 95       	ret

000061ea <_ZN13OBDConversion3hexEc>:
}

uint8_t OBDConversion::hex(char c)
{
    if (c >= 48 && c <= 57) return c - 48;
    61ea:	90 ed       	ldi	r25, 0xD0	; 208
    61ec:	98 0f       	add	r25, r24
    61ee:	9a 30       	cpi	r25, 0x0A	; 10
    61f0:	10 f0       	brcs	.+4      	; 0x61f6 <_ZN13OBDConversion3hexEc+0xc>
	else return c - 55;
    61f2:	87 53       	subi	r24, 0x37	; 55
    61f4:	08 95       	ret
	OBDConversion::dp.throttle_pos = 0;
}

uint8_t OBDConversion::hex(char c)
{
    if (c >= 48 && c <= 57) return c - 48;
    61f6:	89 2f       	mov	r24, r25
	else return c - 55;
}
    61f8:	08 95       	ret

000061fa <_ZN13OBDConversion5speedEcc>:

uint8_t OBDConversion::speed(char au, char al)
{
    61fa:	cf 93       	push	r28
    61fc:	df 93       	push	r29
    61fe:	d6 2f       	mov	r29, r22
	uint16_t val = (((uint16_t)(16 * hex(au) + hex(al))) * 62 / 100);
    6200:	f4 df       	rcall	.-24     	; 0x61ea <_ZN13OBDConversion3hexEc>
    6202:	c8 2f       	mov	r28, r24
    6204:	8d 2f       	mov	r24, r29
    6206:	f1 df       	rcall	.-30     	; 0x61ea <_ZN13OBDConversion3hexEc>
    6208:	28 2f       	mov	r18, r24
    620a:	30 e0       	ldi	r19, 0x00	; 0
    620c:	c9 01       	movw	r24, r18
    620e:	40 e1       	ldi	r20, 0x10	; 16
    6210:	c4 9f       	mul	r28, r20
    6212:	80 0d       	add	r24, r0
    6214:	91 1d       	adc	r25, r1
    6216:	11 24       	eor	r1, r1
    6218:	4e e3       	ldi	r20, 0x3E	; 62
    621a:	48 9f       	mul	r20, r24
    621c:	90 01       	movw	r18, r0
    621e:	49 9f       	mul	r20, r25
    6220:	30 0d       	add	r19, r0
    6222:	11 24       	eor	r1, r1
    6224:	36 95       	lsr	r19
    6226:	27 95       	ror	r18
    6228:	36 95       	lsr	r19
    622a:	27 95       	ror	r18
    622c:	ab e7       	ldi	r26, 0x7B	; 123
    622e:	b4 e1       	ldi	r27, 0x14	; 20
    6230:	0e 94 64 3e 	call	0x7cc8	; 0x7cc8 <__umulhisi3>
    6234:	96 95       	lsr	r25
    6236:	87 95       	ror	r24
	OBDConversion::dp.speed = val ? val + 1 : 0;
    6238:	00 97       	sbiw	r24, 0x00	; 0
    623a:	11 f0       	breq	.+4      	; 0x6240 <_ZN13OBDConversion5speedEcc+0x46>
    623c:	8f 5f       	subi	r24, 0xFF	; 255
    623e:	01 c0       	rjmp	.+2      	; 0x6242 <_ZN13OBDConversion5speedEcc+0x48>
    6240:	80 e0       	ldi	r24, 0x00	; 0
    6242:	80 93 7e 21 	sts	0x217E, r24
	return OBDConversion::dp.speed;
}
    6246:	df 91       	pop	r29
    6248:	cf 91       	pop	r28
    624a:	08 95       	ret

0000624c <_ZN13OBDConversion3rpmEcccc>:

uint16_t OBDConversion::rpm(char au, char al, char bu, char bl)
{
    624c:	0f 93       	push	r16
    624e:	1f 93       	push	r17
    6250:	cf 93       	push	r28
    6252:	df 93       	push	r29
    6254:	c8 2f       	mov	r28, r24
    6256:	d6 2f       	mov	r29, r22
    6258:	84 2f       	mov	r24, r20
    625a:	02 2f       	mov	r16, r18
    OBDConversion::dp.rpm = ((uint16_t)((uint16_t)256 * ((uint16_t)(16 * hex(au) + hex(al))) + ((uint16_t)(16 * hex(bu) + hex(bl)))) / (uint16_t)4);
    625c:	c6 df       	rcall	.-116    	; 0x61ea <_ZN13OBDConversion3hexEc>
    625e:	18 2f       	mov	r17, r24
    6260:	8c 2f       	mov	r24, r28
    6262:	c3 df       	rcall	.-122    	; 0x61ea <_ZN13OBDConversion3hexEc>
    6264:	c8 2f       	mov	r28, r24
    6266:	8d 2f       	mov	r24, r29
    6268:	c0 df       	rcall	.-128    	; 0x61ea <_ZN13OBDConversion3hexEc>
    626a:	d8 2f       	mov	r29, r24
    626c:	80 2f       	mov	r24, r16
    626e:	bd df       	rcall	.-134    	; 0x61ea <_ZN13OBDConversion3hexEc>
    6270:	48 2f       	mov	r20, r24
    6272:	50 e0       	ldi	r21, 0x00	; 0
    6274:	80 e1       	ldi	r24, 0x10	; 16
    6276:	18 9f       	mul	r17, r24
    6278:	40 0d       	add	r20, r0
    627a:	51 1d       	adc	r21, r1
    627c:	11 24       	eor	r1, r1
    627e:	2d 2f       	mov	r18, r29
    6280:	30 e0       	ldi	r19, 0x00	; 0
    6282:	80 e1       	ldi	r24, 0x10	; 16
    6284:	c8 9f       	mul	r28, r24
    6286:	20 0d       	add	r18, r0
    6288:	31 1d       	adc	r19, r1
    628a:	11 24       	eor	r1, r1
    628c:	32 2f       	mov	r19, r18
    628e:	22 27       	eor	r18, r18
    6290:	ca 01       	movw	r24, r20
    6292:	82 0f       	add	r24, r18
    6294:	93 1f       	adc	r25, r19
    6296:	96 95       	lsr	r25
    6298:	87 95       	ror	r24
    629a:	96 95       	lsr	r25
    629c:	87 95       	ror	r24
    629e:	80 93 81 21 	sts	0x2181, r24
    62a2:	90 93 82 21 	sts	0x2182, r25
	return OBDConversion::dp.rpm;
}
    62a6:	df 91       	pop	r29
    62a8:	cf 91       	pop	r28
    62aa:	1f 91       	pop	r17
    62ac:	0f 91       	pop	r16
    62ae:	08 95       	ret

000062b0 <_ZN13OBDConversion11engine_loadEcc>:

uint8_t OBDConversion::engine_load(char au, char al) {
    62b0:	cf 93       	push	r28
    62b2:	df 93       	push	r29
    62b4:	d6 2f       	mov	r29, r22
	OBDConversion::dp.engine_load = ((uint16_t)(hex(au) * 16 + hex(al)) * 100) >> 8;
    62b6:	99 df       	rcall	.-206    	; 0x61ea <_ZN13OBDConversion3hexEc>
    62b8:	c8 2f       	mov	r28, r24
    62ba:	8d 2f       	mov	r24, r29
    62bc:	96 df       	rcall	.-212    	; 0x61ea <_ZN13OBDConversion3hexEc>
    62be:	28 2f       	mov	r18, r24
    62c0:	30 e0       	ldi	r19, 0x00	; 0
    62c2:	c9 01       	movw	r24, r18
    62c4:	40 e1       	ldi	r20, 0x10	; 16
    62c6:	c4 9f       	mul	r28, r20
    62c8:	80 0d       	add	r24, r0
    62ca:	91 1d       	adc	r25, r1
    62cc:	11 24       	eor	r1, r1
    62ce:	44 e6       	ldi	r20, 0x64	; 100
    62d0:	48 9f       	mul	r20, r24
    62d2:	90 01       	movw	r18, r0
    62d4:	49 9f       	mul	r20, r25
    62d6:	30 0d       	add	r19, r0
    62d8:	11 24       	eor	r1, r1
    62da:	30 93 80 21 	sts	0x2180, r19
	return OBDConversion::dp.engine_load;
}
    62de:	83 2f       	mov	r24, r19
    62e0:	df 91       	pop	r29
    62e2:	cf 91       	pop	r28
    62e4:	08 95       	ret

000062e6 <_ZN13OBDConversion12throttle_posEcc>:

uint8_t OBDConversion::throttle_pos(char au, char al) {
    62e6:	cf 93       	push	r28
    62e8:	df 93       	push	r29
    62ea:	d6 2f       	mov	r29, r22
	OBDConversion::dp.throttle_pos = ((uint16_t)(hex(au) * 16 + hex(al)) * 100) >> 8;
    62ec:	7e df       	rcall	.-260    	; 0x61ea <_ZN13OBDConversion3hexEc>
    62ee:	c8 2f       	mov	r28, r24
    62f0:	8d 2f       	mov	r24, r29
    62f2:	7b df       	rcall	.-266    	; 0x61ea <_ZN13OBDConversion3hexEc>
    62f4:	28 2f       	mov	r18, r24
    62f6:	30 e0       	ldi	r19, 0x00	; 0
    62f8:	c9 01       	movw	r24, r18
    62fa:	40 e1       	ldi	r20, 0x10	; 16
    62fc:	c4 9f       	mul	r28, r20
    62fe:	80 0d       	add	r24, r0
    6300:	91 1d       	adc	r25, r1
    6302:	11 24       	eor	r1, r1
    6304:	44 e6       	ldi	r20, 0x64	; 100
    6306:	48 9f       	mul	r20, r24
    6308:	90 01       	movw	r18, r0
    630a:	49 9f       	mul	r20, r25
    630c:	30 0d       	add	r19, r0
    630e:	11 24       	eor	r1, r1
    6310:	30 93 7f 21 	sts	0x217F, r19
	return OBDConversion::dp.throttle_pos;
    6314:	83 2f       	mov	r24, r19
    6316:	df 91       	pop	r29
    6318:	cf 91       	pop	r28
    631a:	08 95       	ret

0000631c <__vector_88>:
{
	CCP = CCP_IOREG_gc;
	OSC.CTRL = OSC_RC2MEN_bm;
	while(!(OSC.STATUS & OSC_RC2MRDY_bm));
	CCP = CCP_IOREG_gc;
	CLK.CTRL = CLK_SCLKSEL_RC2M_gc;   
    631c:	1f 92       	push	r1
    631e:	0f 92       	push	r0
    6320:	0f b6       	in	r0, 0x3f	; 63
    6322:	0f 92       	push	r0
    6324:	11 24       	eor	r1, r1
    6326:	0b b6       	in	r0, 0x3b	; 59
    6328:	0f 92       	push	r0
    632a:	2f 93       	push	r18
    632c:	3f 93       	push	r19
    632e:	4f 93       	push	r20
    6330:	5f 93       	push	r21
    6332:	6f 93       	push	r22
    6334:	7f 93       	push	r23
    6336:	8f 93       	push	r24
    6338:	9f 93       	push	r25
    633a:	af 93       	push	r26
    633c:	bf 93       	push	r27
    633e:	ef 93       	push	r30
    6340:	ff 93       	push	r31
    6342:	80 91 8d 21 	lds	r24, 0x218D
    6346:	90 91 8e 21 	lds	r25, 0x218E
    634a:	0e 94 90 07 	call	0xf20	; 0xf20 <_ZN5BTOBD13interceptByteEv>
    634e:	ff 91       	pop	r31
    6350:	ef 91       	pop	r30
    6352:	bf 91       	pop	r27
    6354:	af 91       	pop	r26
    6356:	9f 91       	pop	r25
    6358:	8f 91       	pop	r24
    635a:	7f 91       	pop	r23
    635c:	6f 91       	pop	r22
    635e:	5f 91       	pop	r21
    6360:	4f 91       	pop	r20
    6362:	3f 91       	pop	r19
    6364:	2f 91       	pop	r18
    6366:	0f 90       	pop	r0
    6368:	0b be       	out	0x3b, r0	; 59
    636a:	0f 90       	pop	r0
    636c:	0f be       	out	0x3f, r0	; 63
    636e:	0f 90       	pop	r0
    6370:	1f 90       	pop	r1
    6372:	18 95       	reti

00006374 <__vector_91>:
    6374:	1f 92       	push	r1
    6376:	0f 92       	push	r0
    6378:	0f b6       	in	r0, 0x3f	; 63
    637a:	0f 92       	push	r0
    637c:	11 24       	eor	r1, r1
    637e:	0b b6       	in	r0, 0x3b	; 59
    6380:	0f 92       	push	r0
    6382:	2f 93       	push	r18
    6384:	3f 93       	push	r19
    6386:	4f 93       	push	r20
    6388:	5f 93       	push	r21
    638a:	6f 93       	push	r22
    638c:	7f 93       	push	r23
    638e:	8f 93       	push	r24
    6390:	9f 93       	push	r25
    6392:	af 93       	push	r26
    6394:	bf 93       	push	r27
    6396:	ef 93       	push	r30
    6398:	ff 93       	push	r31
    639a:	80 91 89 21 	lds	r24, 0x2189
    639e:	90 91 8a 21 	lds	r25, 0x218A
    63a2:	0e 94 b6 28 	call	0x516c	; 0x516c <_ZN3GPS13interceptByteEv>
    63a6:	ff 91       	pop	r31
    63a8:	ef 91       	pop	r30
    63aa:	bf 91       	pop	r27
    63ac:	af 91       	pop	r26
    63ae:	9f 91       	pop	r25
    63b0:	8f 91       	pop	r24
    63b2:	7f 91       	pop	r23
    63b4:	6f 91       	pop	r22
    63b6:	5f 91       	pop	r21
    63b8:	4f 91       	pop	r20
    63ba:	3f 91       	pop	r19
    63bc:	2f 91       	pop	r18
    63be:	0f 90       	pop	r0
    63c0:	0b be       	out	0x3b, r0	; 59
    63c2:	0f 90       	pop	r0
    63c4:	0f be       	out	0x3f, r0	; 63
    63c6:	0f 90       	pop	r0
    63c8:	1f 90       	pop	r1
    63ca:	18 95       	reti

000063cc <__vector_90>:
    63cc:	1f 92       	push	r1
    63ce:	0f 92       	push	r0
    63d0:	0f b6       	in	r0, 0x3f	; 63
    63d2:	0f 92       	push	r0
    63d4:	11 24       	eor	r1, r1
    63d6:	0f 90       	pop	r0
    63d8:	0f be       	out	0x3f, r0	; 63
    63da:	0f 90       	pop	r0
    63dc:	1f 90       	pop	r1
    63de:	18 95       	reti

000063e0 <__vector_93>:
    63e0:	1f 92       	push	r1
    63e2:	0f 92       	push	r0
    63e4:	0f b6       	in	r0, 0x3f	; 63
    63e6:	0f 92       	push	r0
    63e8:	11 24       	eor	r1, r1
    63ea:	0f 90       	pop	r0
    63ec:	0f be       	out	0x3f, r0	; 63
    63ee:	0f 90       	pop	r0
    63f0:	1f 90       	pop	r1
    63f2:	18 95       	reti

000063f4 <__vector_89>:
    63f4:	1f 92       	push	r1
    63f6:	0f 92       	push	r0
    63f8:	0f b6       	in	r0, 0x3f	; 63
    63fa:	0f 92       	push	r0
    63fc:	11 24       	eor	r1, r1
    63fe:	0b b6       	in	r0, 0x3b	; 59
    6400:	0f 92       	push	r0
    6402:	2f 93       	push	r18
    6404:	3f 93       	push	r19
    6406:	4f 93       	push	r20
    6408:	5f 93       	push	r21
    640a:	6f 93       	push	r22
    640c:	7f 93       	push	r23
    640e:	8f 93       	push	r24
    6410:	9f 93       	push	r25
    6412:	af 93       	push	r26
    6414:	bf 93       	push	r27
    6416:	ef 93       	push	r30
    6418:	ff 93       	push	r31
    641a:	80 91 8d 21 	lds	r24, 0x218D
    641e:	90 91 8e 21 	lds	r25, 0x218E
    6422:	0e 94 a8 07 	call	0xf50	; 0xf50 <_ZN5BTOBD9handleDREEv>
    6426:	ff 91       	pop	r31
    6428:	ef 91       	pop	r30
    642a:	bf 91       	pop	r27
    642c:	af 91       	pop	r26
    642e:	9f 91       	pop	r25
    6430:	8f 91       	pop	r24
    6432:	7f 91       	pop	r23
    6434:	6f 91       	pop	r22
    6436:	5f 91       	pop	r21
    6438:	4f 91       	pop	r20
    643a:	3f 91       	pop	r19
    643c:	2f 91       	pop	r18
    643e:	0f 90       	pop	r0
    6440:	0b be       	out	0x3b, r0	; 59
    6442:	0f 90       	pop	r0
    6444:	0f be       	out	0x3f, r0	; 63
    6446:	0f 90       	pop	r0
    6448:	1f 90       	pop	r1
    644a:	18 95       	reti

0000644c <__vector_92>:
    644c:	1f 92       	push	r1
    644e:	0f 92       	push	r0
    6450:	0f b6       	in	r0, 0x3f	; 63
    6452:	0f 92       	push	r0
    6454:	11 24       	eor	r1, r1
    6456:	0b b6       	in	r0, 0x3b	; 59
    6458:	0f 92       	push	r0
    645a:	2f 93       	push	r18
    645c:	3f 93       	push	r19
    645e:	4f 93       	push	r20
    6460:	5f 93       	push	r21
    6462:	6f 93       	push	r22
    6464:	7f 93       	push	r23
    6466:	8f 93       	push	r24
    6468:	9f 93       	push	r25
    646a:	af 93       	push	r26
    646c:	bf 93       	push	r27
    646e:	ef 93       	push	r30
    6470:	ff 93       	push	r31
    6472:	80 91 89 21 	lds	r24, 0x2189
    6476:	90 91 8a 21 	lds	r25, 0x218A
    647a:	0e 94 1c 2a 	call	0x5438	; 0x5438 <_ZN3GPS9handleDREEv>
    647e:	ff 91       	pop	r31
    6480:	ef 91       	pop	r30
    6482:	bf 91       	pop	r27
    6484:	af 91       	pop	r26
    6486:	9f 91       	pop	r25
    6488:	8f 91       	pop	r24
    648a:	7f 91       	pop	r23
    648c:	6f 91       	pop	r22
    648e:	5f 91       	pop	r21
    6490:	4f 91       	pop	r20
    6492:	3f 91       	pop	r19
    6494:	2f 91       	pop	r18
    6496:	0f 90       	pop	r0
    6498:	0b be       	out	0x3b, r0	; 59
    649a:	0f 90       	pop	r0
    649c:	0f be       	out	0x3f, r0	; 63
    649e:	0f 90       	pop	r0
    64a0:	1f 90       	pop	r1
    64a2:	18 95       	reti

000064a4 <__vector_default>:
    64a4:	1f 92       	push	r1
    64a6:	0f 92       	push	r0
    64a8:	0f b6       	in	r0, 0x3f	; 63
    64aa:	0f 92       	push	r0
    64ac:	11 24       	eor	r1, r1
    64ae:	00 00       	nop
    64b0:	0f 90       	pop	r0
    64b2:	0f be       	out	0x3f, r0	; 63
    64b4:	0f 90       	pop	r0
    64b6:	1f 90       	pop	r1
    64b8:	18 95       	reti

000064ba <__vector_57>:
    64ba:	1f 92       	push	r1
    64bc:	0f 92       	push	r0
    64be:	0f b6       	in	r0, 0x3f	; 63
    64c0:	0f 92       	push	r0
    64c2:	11 24       	eor	r1, r1
    64c4:	0f 90       	pop	r0
    64c6:	0f be       	out	0x3f, r0	; 63
    64c8:	0f 90       	pop	r0
    64ca:	1f 90       	pop	r1
    64cc:	18 95       	reti

000064ce <__vector_16>:
    64ce:	1f 92       	push	r1
    64d0:	0f 92       	push	r0
    64d2:	0f b6       	in	r0, 0x3f	; 63
    64d4:	0f 92       	push	r0
    64d6:	11 24       	eor	r1, r1
    64d8:	0b b6       	in	r0, 0x3b	; 59
    64da:	0f 92       	push	r0
    64dc:	2f 93       	push	r18
    64de:	3f 93       	push	r19
    64e0:	4f 93       	push	r20
    64e2:	5f 93       	push	r21
    64e4:	6f 93       	push	r22
    64e6:	7f 93       	push	r23
    64e8:	8f 93       	push	r24
    64ea:	9f 93       	push	r25
    64ec:	af 93       	push	r26
    64ee:	bf 93       	push	r27
    64f0:	ef 93       	push	r30
    64f2:	ff 93       	push	r31
    64f4:	e0 e0       	ldi	r30, 0x00	; 0
    64f6:	f8 e0       	ldi	r31, 0x08	; 8
    64f8:	10 a2       	std	Z+32, r1	; 0x20
    64fa:	11 a2       	std	Z+33, r1	; 0x21
    64fc:	80 91 87 21 	lds	r24, 0x2187
    6500:	90 91 88 21 	lds	r25, 0x2188
    6504:	0e 94 37 3c 	call	0x786e	; 0x786e <_ZN5Touch7processEv>
    6508:	80 91 87 21 	lds	r24, 0x2187
    650c:	90 91 88 21 	lds	r25, 0x2188
    6510:	0e 94 60 3c 	call	0x78c0	; 0x78c0 <_ZN5Touch4getXEv>
    6514:	81 30       	cpi	r24, 0x01	; 1
    6516:	94 40       	sbci	r25, 0x04	; 4
    6518:	4c f4       	brge	.+18     	; 0x652c <__vector_16+0x5e>
    651a:	80 91 87 21 	lds	r24, 0x2187
    651e:	90 91 88 21 	lds	r25, 0x2188
    6522:	0e 94 64 3c 	call	0x78c8	; 0x78c8 <_ZN5Touch4getYEv>
    6526:	81 30       	cpi	r24, 0x01	; 1
    6528:	94 40       	sbci	r25, 0x04	; 4
    652a:	2c f0       	brlt	.+10     	; 0x6536 <__vector_16+0x68>
    652c:	81 e0       	ldi	r24, 0x01	; 1
    652e:	e0 ea       	ldi	r30, 0xA0	; 160
    6530:	f6 e0       	ldi	r31, 0x06	; 6
    6532:	85 83       	std	Z+5, r24	; 0x05
    6534:	04 c0       	rjmp	.+8      	; 0x653e <__vector_16+0x70>
    6536:	81 e0       	ldi	r24, 0x01	; 1
    6538:	e0 ea       	ldi	r30, 0xA0	; 160
    653a:	f6 e0       	ldi	r31, 0x06	; 6
    653c:	86 83       	std	Z+6, r24	; 0x06
    653e:	ff 91       	pop	r31
    6540:	ef 91       	pop	r30
    6542:	bf 91       	pop	r27
    6544:	af 91       	pop	r26
    6546:	9f 91       	pop	r25
    6548:	8f 91       	pop	r24
    654a:	7f 91       	pop	r23
    654c:	6f 91       	pop	r22
    654e:	5f 91       	pop	r21
    6550:	4f 91       	pop	r20
    6552:	3f 91       	pop	r19
    6554:	2f 91       	pop	r18
    6556:	0f 90       	pop	r0
    6558:	0b be       	out	0x3b, r0	; 59
    655a:	0f 90       	pop	r0
    655c:	0f be       	out	0x3f, r0	; 63
    655e:	0f 90       	pop	r0
    6560:	1f 90       	pop	r1
    6562:	18 95       	reti

00006564 <__vector_22>:
    6564:	1f 92       	push	r1
    6566:	0f 92       	push	r0
    6568:	0f b6       	in	r0, 0x3f	; 63
    656a:	0f 92       	push	r0
    656c:	11 24       	eor	r1, r1
    656e:	0b b6       	in	r0, 0x3b	; 59
    6570:	0f 92       	push	r0
    6572:	8f 93       	push	r24
    6574:	9f 93       	push	r25
    6576:	ef 93       	push	r30
    6578:	ff 93       	push	r31
    657a:	e0 e4       	ldi	r30, 0x40	; 64
    657c:	f8 e0       	ldi	r31, 0x08	; 8
    657e:	10 a2       	std	Z+32, r1	; 0x20
    6580:	11 a2       	std	Z+33, r1	; 0x21
    6582:	90 91 84 21 	lds	r25, 0x2184
    6586:	81 e0       	ldi	r24, 0x01	; 1
    6588:	89 27       	eor	r24, r25
    658a:	80 93 84 21 	sts	0x2184, r24
    658e:	88 23       	and	r24, r24
    6590:	19 f0       	breq	.+6      	; 0x6598 <__vector_22+0x34>
    6592:	81 e0       	ldi	r24, 0x01	; 1
    6594:	80 93 85 21 	sts	0x2185, r24
    6598:	ff 91       	pop	r31
    659a:	ef 91       	pop	r30
    659c:	9f 91       	pop	r25
    659e:	8f 91       	pop	r24
    65a0:	0f 90       	pop	r0
    65a2:	0b be       	out	0x3b, r0	; 59
    65a4:	0f 90       	pop	r0
    65a6:	0f be       	out	0x3f, r0	; 63
    65a8:	0f 90       	pop	r0
    65aa:	1f 90       	pop	r1
    65ac:	18 95       	reti

000065ae <_Z15setClockTo32MHzv>:
}

void setClockTo32MHz()
{
    CCP = CCP_IOREG_gc;              // disable register security for oscillator update
    65ae:	88 ed       	ldi	r24, 0xD8	; 216
    65b0:	84 bf       	out	0x34, r24	; 52
    OSC.CTRL = OSC_RC32MEN_bm;			   // enable 32MHz oscillator
    65b2:	82 e0       	ldi	r24, 0x02	; 2
    65b4:	80 93 50 00 	sts	0x0050, r24
    while(!(OSC.STATUS & OSC_RC32MRDY_bm)); // wait for oscillator to be ready
    65b8:	e0 e5       	ldi	r30, 0x50	; 80
    65ba:	f0 e0       	ldi	r31, 0x00	; 0
    65bc:	81 81       	ldd	r24, Z+1	; 0x01
    65be:	81 ff       	sbrs	r24, 1
    65c0:	fd cf       	rjmp	.-6      	; 0x65bc <_Z15setClockTo32MHzv+0xe>
    CCP = CCP_IOREG_gc;              // disable register security for clock update
    65c2:	88 ed       	ldi	r24, 0xD8	; 216
    65c4:	84 bf       	out	0x34, r24	; 52
    CLK.CTRL = CLK_SCLKSEL_RC32M_gc; // switch to 32MHz clock
    65c6:	81 e0       	ldi	r24, 0x01	; 1
    65c8:	80 93 40 00 	sts	0x0040, r24
    65cc:	08 95       	ret

000065ce <_Z11open_appendP3FILPKc>:
}

FRESULT open_append(FIL * fp, const char * path) {
    65ce:	1f 93       	push	r17
    65d0:	cf 93       	push	r28
    65d2:	df 93       	push	r29
    65d4:	ec 01       	movw	r28, r24
	FRESULT fr;

	fr = f_open(fp, path, FA_WRITE | FA_OPEN_ALWAYS);
    65d6:	42 e1       	ldi	r20, 0x12	; 18
    65d8:	0e 94 79 1f 	call	0x3ef2	; 0x3ef2 <f_open>
    65dc:	18 2f       	mov	r17, r24
	if (fr == FR_OK) {
    65de:	81 11       	cpse	r24, r1
    65e0:	0d c0       	rjmp	.+26     	; 0x65fc <_Z11open_appendP3FILPKc+0x2e>
		fr = f_lseek(fp, f_size(fp));
    65e2:	4a 85       	ldd	r20, Y+10	; 0x0a
    65e4:	5b 85       	ldd	r21, Y+11	; 0x0b
    65e6:	6c 85       	ldd	r22, Y+12	; 0x0c
    65e8:	7d 85       	ldd	r23, Y+13	; 0x0d
    65ea:	ce 01       	movw	r24, r28
    65ec:	0e 94 27 24 	call	0x484e	; 0x484e <f_lseek>
    65f0:	18 2f       	mov	r17, r24
		if (fr != FR_OK) f_close(fp);
    65f2:	88 23       	and	r24, r24
    65f4:	19 f0       	breq	.+6      	; 0x65fc <_Z11open_appendP3FILPKc+0x2e>
    65f6:	ce 01       	movw	r24, r28
    65f8:	0e 94 17 24 	call	0x482e	; 0x482e <f_close>
	}
	return fr;
}
    65fc:	81 2f       	mov	r24, r17
    65fe:	df 91       	pop	r29
    6600:	cf 91       	pop	r28
    6602:	1f 91       	pop	r17
    6604:	08 95       	ret

00006606 <_Z7writeDPP3FIL>:

void writeDP(FIL * fp) {
    6606:	0f 93       	push	r16
    6608:	1f 93       	push	r17
    660a:	cf 93       	push	r28
    660c:	df 93       	push	r29
    660e:	cd b7       	in	r28, 0x3d	; 61
    6610:	de b7       	in	r29, 0x3e	; 62
    6612:	64 97       	sbiw	r28, 0x14	; 20
    6614:	cd bf       	out	0x3d, r28	; 61
    6616:	de bf       	out	0x3e, r29	; 62
    6618:	8c 01       	movw	r16, r24
	char buff[20];
	if (numattempts < 10) {
    661a:	80 91 83 21 	lds	r24, 0x2183
    661e:	8a 30       	cpi	r24, 0x0A	; 10
    6620:	08 f0       	brcs	.+2      	; 0x6624 <_Z7writeDPP3FIL+0x1e>
    6622:	84 c1       	rjmp	.+776    	; 0x692c <_Z7writeDPP3FIL+0x326>
		if (OBDConversion::dp.speed != 0) {
    6624:	80 91 7e 21 	lds	r24, 0x217E
    6628:	88 23       	and	r24, r24
    662a:	09 f4       	brne	.+2      	; 0x662e <_Z7writeDPP3FIL+0x28>
    662c:	cd c0       	rjmp	.+410    	; 0x67c8 <_Z7writeDPP3FIL+0x1c2>
			if (!fileOpened) {
    662e:	80 91 86 21 	lds	r24, 0x2186
    6632:	81 11       	cpse	r24, r1
    6634:	16 c0       	rjmp	.+44     	; 0x6662 <_Z7writeDPP3FIL+0x5c>
				FRESULT res = open_append(fp, "test.csv");
    6636:	66 e2       	ldi	r22, 0x26	; 38
    6638:	71 e2       	ldi	r23, 0x21	; 33
    663a:	c8 01       	movw	r24, r16
    663c:	c8 df       	rcall	.-112    	; 0x65ce <_Z11open_appendP3FILPKc>
				if (res != FR_OK) {
    663e:	88 23       	and	r24, r24
    6640:	59 f0       	breq	.+22     	; 0x6658 <_Z7writeDPP3FIL+0x52>
					numattempts++;
    6642:	80 91 83 21 	lds	r24, 0x2183
    6646:	8f 5f       	subi	r24, 0xFF	; 255
    6648:	80 93 83 21 	sts	0x2183, r24
				} else {
					numattempts = 0;
					fileOpened = true;
				}
			}
			if (fileOpened) {
    664c:	80 91 86 21 	lds	r24, 0x2186
    6650:	88 23       	and	r24, r24
    6652:	09 f4       	brne	.+2      	; 0x6656 <_Z7writeDPP3FIL+0x50>
    6654:	6b c1       	rjmp	.+726    	; 0x692c <_Z7writeDPP3FIL+0x326>
    6656:	05 c0       	rjmp	.+10     	; 0x6662 <_Z7writeDPP3FIL+0x5c>
			if (!fileOpened) {
				FRESULT res = open_append(fp, "test.csv");
				if (res != FR_OK) {
					numattempts++;
				} else {
					numattempts = 0;
    6658:	10 92 83 21 	sts	0x2183, r1
					fileOpened = true;
    665c:	81 e0       	ldi	r24, 0x01	; 1
    665e:	80 93 86 21 	sts	0x2186, r24
				}
			}
			if (fileOpened) {
				GPSref->retrieve(GPSVAL::NS, buff);
    6662:	ae 01       	movw	r20, r28
    6664:	4f 5f       	subi	r20, 0xFF	; 255
    6666:	5f 4f       	sbci	r21, 0xFF	; 255
    6668:	63 e0       	ldi	r22, 0x03	; 3
    666a:	80 91 89 21 	lds	r24, 0x2189
    666e:	90 91 8a 21 	lds	r25, 0x218A
    6672:	0e 94 ce 29 	call	0x539c	; 0x539c <_ZN3GPS8retrieveEN6GPSVAL3VALEPc>
				if (*buff == 'S') f_putc('-', fp);
    6676:	89 81       	ldd	r24, Y+1	; 0x01
    6678:	83 35       	cpi	r24, 0x53	; 83
    667a:	21 f4       	brne	.+8      	; 0x6684 <_Z7writeDPP3FIL+0x7e>
    667c:	b8 01       	movw	r22, r16
    667e:	8d e2       	ldi	r24, 0x2D	; 45
    6680:	0e 94 ca 26 	call	0x4d94	; 0x4d94 <f_putc>
				f_puts(GPSref->retrieve(GPSVAL::LAT, buff), fp);
    6684:	ae 01       	movw	r20, r28
    6686:	4f 5f       	subi	r20, 0xFF	; 255
    6688:	5f 4f       	sbci	r21, 0xFF	; 255
    668a:	62 e0       	ldi	r22, 0x02	; 2
    668c:	80 91 89 21 	lds	r24, 0x2189
    6690:	90 91 8a 21 	lds	r25, 0x218A
    6694:	0e 94 ce 29 	call	0x539c	; 0x539c <_ZN3GPS8retrieveEN6GPSVAL3VALEPc>
    6698:	b8 01       	movw	r22, r16
    669a:	0e 94 06 27 	call	0x4e0c	; 0x4e0c <f_puts>
				f_putc(',', fp);
    669e:	b8 01       	movw	r22, r16
    66a0:	8c e2       	ldi	r24, 0x2C	; 44
    66a2:	0e 94 ca 26 	call	0x4d94	; 0x4d94 <f_putc>
				GPSref->retrieve(GPSVAL::EW, buff);
    66a6:	ae 01       	movw	r20, r28
    66a8:	4f 5f       	subi	r20, 0xFF	; 255
    66aa:	5f 4f       	sbci	r21, 0xFF	; 255
    66ac:	65 e0       	ldi	r22, 0x05	; 5
    66ae:	80 91 89 21 	lds	r24, 0x2189
    66b2:	90 91 8a 21 	lds	r25, 0x218A
    66b6:	0e 94 ce 29 	call	0x539c	; 0x539c <_ZN3GPS8retrieveEN6GPSVAL3VALEPc>
				if (*buff == 'W') f_putc('-', fp);
    66ba:	89 81       	ldd	r24, Y+1	; 0x01
    66bc:	87 35       	cpi	r24, 0x57	; 87
    66be:	21 f4       	brne	.+8      	; 0x66c8 <_Z7writeDPP3FIL+0xc2>
    66c0:	b8 01       	movw	r22, r16
    66c2:	8d e2       	ldi	r24, 0x2D	; 45
    66c4:	0e 94 ca 26 	call	0x4d94	; 0x4d94 <f_putc>
				f_puts(GPSref->retrieve(GPSVAL::LONG, buff), fp);
    66c8:	ae 01       	movw	r20, r28
    66ca:	4f 5f       	subi	r20, 0xFF	; 255
    66cc:	5f 4f       	sbci	r21, 0xFF	; 255
    66ce:	64 e0       	ldi	r22, 0x04	; 4
    66d0:	80 91 89 21 	lds	r24, 0x2189
    66d4:	90 91 8a 21 	lds	r25, 0x218A
    66d8:	0e 94 ce 29 	call	0x539c	; 0x539c <_ZN3GPS8retrieveEN6GPSVAL3VALEPc>
    66dc:	b8 01       	movw	r22, r16
    66de:	0e 94 06 27 	call	0x4e0c	; 0x4e0c <f_puts>
				f_putc(',', fp);
    66e2:	b8 01       	movw	r22, r16
    66e4:	8c e2       	ldi	r24, 0x2C	; 44
    66e6:	0e 94 ca 26 	call	0x4d94	; 0x4d94 <f_putc>
				f_puts(GPSref->retrieve(GPSVAL::FIX_TIME, buff), fp);
    66ea:	ae 01       	movw	r20, r28
    66ec:	4f 5f       	subi	r20, 0xFF	; 255
    66ee:	5f 4f       	sbci	r21, 0xFF	; 255
    66f0:	60 e0       	ldi	r22, 0x00	; 0
    66f2:	80 91 89 21 	lds	r24, 0x2189
    66f6:	90 91 8a 21 	lds	r25, 0x218A
    66fa:	0e 94 ce 29 	call	0x539c	; 0x539c <_ZN3GPS8retrieveEN6GPSVAL3VALEPc>
    66fe:	b8 01       	movw	r22, r16
    6700:	0e 94 06 27 	call	0x4e0c	; 0x4e0c <f_puts>
				f_putc(',', fp);
    6704:	b8 01       	movw	r22, r16
    6706:	8c e2       	ldi	r24, 0x2C	; 44
    6708:	0e 94 ca 26 	call	0x4d94	; 0x4d94 <f_putc>
				f_puts(itoa(OBDConversion::dp.speed, buff, 10), fp);
    670c:	80 91 7e 21 	lds	r24, 0x217E
    6710:	4a e0       	ldi	r20, 0x0A	; 10
    6712:	be 01       	movw	r22, r28
    6714:	6f 5f       	subi	r22, 0xFF	; 255
    6716:	7f 4f       	sbci	r23, 0xFF	; 255
    6718:	90 e0       	ldi	r25, 0x00	; 0
    671a:	0e 94 a8 3f 	call	0x7f50	; 0x7f50 <__itoa_ncheck>
    671e:	b8 01       	movw	r22, r16
    6720:	0e 94 06 27 	call	0x4e0c	; 0x4e0c <f_puts>
				f_putc(',', fp);
    6724:	b8 01       	movw	r22, r16
    6726:	8c e2       	ldi	r24, 0x2C	; 44
    6728:	0e 94 ca 26 	call	0x4d94	; 0x4d94 <f_putc>
    672c:	4a e0       	ldi	r20, 0x0A	; 10
    672e:	be 01       	movw	r22, r28
    6730:	6f 5f       	subi	r22, 0xFF	; 255
    6732:	7f 4f       	sbci	r23, 0xFF	; 255
    6734:	80 91 81 21 	lds	r24, 0x2181
    6738:	90 91 82 21 	lds	r25, 0x2182
    673c:	0e 94 a8 3f 	call	0x7f50	; 0x7f50 <__itoa_ncheck>
				f_puts(itoa(OBDConversion::dp.rpm, buff, 10), fp);
    6740:	b8 01       	movw	r22, r16
    6742:	0e 94 06 27 	call	0x4e0c	; 0x4e0c <f_puts>
				f_putc(',', fp);
    6746:	b8 01       	movw	r22, r16
    6748:	8c e2       	ldi	r24, 0x2C	; 44
    674a:	0e 94 ca 26 	call	0x4d94	; 0x4d94 <f_putc>
				f_puts(itoa(OBDConversion::dp.throttle_pos, buff, 10), fp);
    674e:	80 91 7f 21 	lds	r24, 0x217F
    6752:	4a e0       	ldi	r20, 0x0A	; 10
    6754:	be 01       	movw	r22, r28
    6756:	6f 5f       	subi	r22, 0xFF	; 255
    6758:	7f 4f       	sbci	r23, 0xFF	; 255
    675a:	90 e0       	ldi	r25, 0x00	; 0
    675c:	0e 94 a8 3f 	call	0x7f50	; 0x7f50 <__itoa_ncheck>
    6760:	b8 01       	movw	r22, r16
    6762:	0e 94 06 27 	call	0x4e0c	; 0x4e0c <f_puts>
				f_putc(',', fp);
    6766:	b8 01       	movw	r22, r16
    6768:	8c e2       	ldi	r24, 0x2C	; 44
    676a:	0e 94 ca 26 	call	0x4d94	; 0x4d94 <f_putc>
				f_puts(itoa(OBDConversion::dp.engine_load, buff, 10), fp);
    676e:	80 91 80 21 	lds	r24, 0x2180
    6772:	4a e0       	ldi	r20, 0x0A	; 10
    6774:	be 01       	movw	r22, r28
    6776:	6f 5f       	subi	r22, 0xFF	; 255
    6778:	7f 4f       	sbci	r23, 0xFF	; 255
    677a:	90 e0       	ldi	r25, 0x00	; 0
    677c:	0e 94 a8 3f 	call	0x7f50	; 0x7f50 <__itoa_ncheck>
    6780:	b8 01       	movw	r22, r16
    6782:	0e 94 06 27 	call	0x4e0c	; 0x4e0c <f_puts>
				f_putc(',', fp);
    6786:	b8 01       	movw	r22, r16
    6788:	8c e2       	ldi	r24, 0x2C	; 44
    678a:	0e 94 ca 26 	call	0x4d94	; 0x4d94 <f_putc>
				f_putc('\n', fp);
    678e:	b8 01       	movw	r22, r16
    6790:	8a e0       	ldi	r24, 0x0A	; 10
    6792:	0e 94 ca 26 	call	0x4d94	; 0x4d94 <f_putc>
				f_puts("GPS Size: ", fp);
    6796:	b8 01       	movw	r22, r16
    6798:	8f e2       	ldi	r24, 0x2F	; 47
    679a:	91 e2       	ldi	r25, 0x21	; 33
    679c:	0e 94 06 27 	call	0x4e0c	; 0x4e0c <f_puts>
				GPSref->dump(fp);
    67a0:	b8 01       	movw	r22, r16
    67a2:	80 91 89 21 	lds	r24, 0x2189
    67a6:	90 91 8a 21 	lds	r25, 0x218A
    67aa:	0e 94 9c 27 	call	0x4f38	; 0x4f38 <_ZN3GPS4dumpEP3FIL>
				f_puts("OBD Size: ", fp);
    67ae:	b8 01       	movw	r22, r16
    67b0:	8a e3       	ldi	r24, 0x3A	; 58
    67b2:	91 e2       	ldi	r25, 0x21	; 33
    67b4:	0e 94 06 27 	call	0x4e0c	; 0x4e0c <f_puts>
				OBDref->dump(fp);
    67b8:	b8 01       	movw	r22, r16
    67ba:	80 91 8d 21 	lds	r24, 0x218D
    67be:	90 91 8e 21 	lds	r25, 0x218E
    67c2:	0e 94 8d 07 	call	0xf1a	; 0xf1a <_ZN5BTOBD4dumpEP3FIL>
    67c6:	b2 c0       	rjmp	.+356    	; 0x692c <_Z7writeDPP3FIL+0x326>
			}
		}else {
			if (fileOpened) {
    67c8:	80 91 86 21 	lds	r24, 0x2186
    67cc:	88 23       	and	r24, r24
    67ce:	09 f4       	brne	.+2      	; 0x67d2 <_Z7writeDPP3FIL+0x1cc>
    67d0:	ad c0       	rjmp	.+346    	; 0x692c <_Z7writeDPP3FIL+0x326>
				GPSref->retrieve(GPSVAL::NS, buff);
    67d2:	ae 01       	movw	r20, r28
    67d4:	4f 5f       	subi	r20, 0xFF	; 255
    67d6:	5f 4f       	sbci	r21, 0xFF	; 255
    67d8:	63 e0       	ldi	r22, 0x03	; 3
    67da:	80 91 89 21 	lds	r24, 0x2189
    67de:	90 91 8a 21 	lds	r25, 0x218A
    67e2:	0e 94 ce 29 	call	0x539c	; 0x539c <_ZN3GPS8retrieveEN6GPSVAL3VALEPc>
				if (*buff == 'S') f_putc('-', fp);
    67e6:	89 81       	ldd	r24, Y+1	; 0x01
    67e8:	83 35       	cpi	r24, 0x53	; 83
    67ea:	21 f4       	brne	.+8      	; 0x67f4 <_Z7writeDPP3FIL+0x1ee>
    67ec:	b8 01       	movw	r22, r16
    67ee:	8d e2       	ldi	r24, 0x2D	; 45
    67f0:	0e 94 ca 26 	call	0x4d94	; 0x4d94 <f_putc>
				f_puts(GPSref->retrieve(GPSVAL::LAT, buff), fp);
    67f4:	ae 01       	movw	r20, r28
    67f6:	4f 5f       	subi	r20, 0xFF	; 255
    67f8:	5f 4f       	sbci	r21, 0xFF	; 255
    67fa:	62 e0       	ldi	r22, 0x02	; 2
    67fc:	80 91 89 21 	lds	r24, 0x2189
    6800:	90 91 8a 21 	lds	r25, 0x218A
    6804:	0e 94 ce 29 	call	0x539c	; 0x539c <_ZN3GPS8retrieveEN6GPSVAL3VALEPc>
    6808:	b8 01       	movw	r22, r16
    680a:	0e 94 06 27 	call	0x4e0c	; 0x4e0c <f_puts>
				f_putc(',', fp);
    680e:	b8 01       	movw	r22, r16
    6810:	8c e2       	ldi	r24, 0x2C	; 44
    6812:	0e 94 ca 26 	call	0x4d94	; 0x4d94 <f_putc>
				GPSref->retrieve(GPSVAL::EW, buff);
    6816:	ae 01       	movw	r20, r28
    6818:	4f 5f       	subi	r20, 0xFF	; 255
    681a:	5f 4f       	sbci	r21, 0xFF	; 255
    681c:	65 e0       	ldi	r22, 0x05	; 5
    681e:	80 91 89 21 	lds	r24, 0x2189
    6822:	90 91 8a 21 	lds	r25, 0x218A
    6826:	0e 94 ce 29 	call	0x539c	; 0x539c <_ZN3GPS8retrieveEN6GPSVAL3VALEPc>
				if (*buff == 'W') f_putc('-', fp);
    682a:	89 81       	ldd	r24, Y+1	; 0x01
    682c:	87 35       	cpi	r24, 0x57	; 87
    682e:	21 f4       	brne	.+8      	; 0x6838 <_Z7writeDPP3FIL+0x232>
    6830:	b8 01       	movw	r22, r16
    6832:	8d e2       	ldi	r24, 0x2D	; 45
    6834:	0e 94 ca 26 	call	0x4d94	; 0x4d94 <f_putc>
				f_puts(GPSref->retrieve(GPSVAL::LONG, buff), fp);
    6838:	ae 01       	movw	r20, r28
    683a:	4f 5f       	subi	r20, 0xFF	; 255
    683c:	5f 4f       	sbci	r21, 0xFF	; 255
    683e:	64 e0       	ldi	r22, 0x04	; 4
    6840:	80 91 89 21 	lds	r24, 0x2189
    6844:	90 91 8a 21 	lds	r25, 0x218A
    6848:	0e 94 ce 29 	call	0x539c	; 0x539c <_ZN3GPS8retrieveEN6GPSVAL3VALEPc>
    684c:	b8 01       	movw	r22, r16
    684e:	0e 94 06 27 	call	0x4e0c	; 0x4e0c <f_puts>
				f_putc(',', fp);
    6852:	b8 01       	movw	r22, r16
    6854:	8c e2       	ldi	r24, 0x2C	; 44
    6856:	0e 94 ca 26 	call	0x4d94	; 0x4d94 <f_putc>
				f_puts(GPSref->retrieve(GPSVAL::FIX_TIME, buff), fp);
    685a:	ae 01       	movw	r20, r28
    685c:	4f 5f       	subi	r20, 0xFF	; 255
    685e:	5f 4f       	sbci	r21, 0xFF	; 255
    6860:	60 e0       	ldi	r22, 0x00	; 0
    6862:	80 91 89 21 	lds	r24, 0x2189
    6866:	90 91 8a 21 	lds	r25, 0x218A
    686a:	0e 94 ce 29 	call	0x539c	; 0x539c <_ZN3GPS8retrieveEN6GPSVAL3VALEPc>
    686e:	b8 01       	movw	r22, r16
    6870:	0e 94 06 27 	call	0x4e0c	; 0x4e0c <f_puts>
				f_putc(',', fp);
    6874:	b8 01       	movw	r22, r16
    6876:	8c e2       	ldi	r24, 0x2C	; 44
    6878:	0e 94 ca 26 	call	0x4d94	; 0x4d94 <f_putc>
				f_puts(itoa(OBDConversion::dp.speed, buff, 10), fp);
    687c:	80 91 7e 21 	lds	r24, 0x217E
    6880:	4a e0       	ldi	r20, 0x0A	; 10
    6882:	be 01       	movw	r22, r28
    6884:	6f 5f       	subi	r22, 0xFF	; 255
    6886:	7f 4f       	sbci	r23, 0xFF	; 255
    6888:	90 e0       	ldi	r25, 0x00	; 0
    688a:	0e 94 a8 3f 	call	0x7f50	; 0x7f50 <__itoa_ncheck>
    688e:	b8 01       	movw	r22, r16
    6890:	0e 94 06 27 	call	0x4e0c	; 0x4e0c <f_puts>
				f_putc(',', fp);
    6894:	b8 01       	movw	r22, r16
    6896:	8c e2       	ldi	r24, 0x2C	; 44
    6898:	0e 94 ca 26 	call	0x4d94	; 0x4d94 <f_putc>
    689c:	4a e0       	ldi	r20, 0x0A	; 10
    689e:	be 01       	movw	r22, r28
    68a0:	6f 5f       	subi	r22, 0xFF	; 255
    68a2:	7f 4f       	sbci	r23, 0xFF	; 255
    68a4:	80 91 81 21 	lds	r24, 0x2181
    68a8:	90 91 82 21 	lds	r25, 0x2182
    68ac:	0e 94 a8 3f 	call	0x7f50	; 0x7f50 <__itoa_ncheck>
				f_puts(itoa(OBDConversion::dp.rpm, buff, 10), fp);
    68b0:	b8 01       	movw	r22, r16
    68b2:	0e 94 06 27 	call	0x4e0c	; 0x4e0c <f_puts>
				f_putc(',', fp);
    68b6:	b8 01       	movw	r22, r16
    68b8:	8c e2       	ldi	r24, 0x2C	; 44
    68ba:	0e 94 ca 26 	call	0x4d94	; 0x4d94 <f_putc>
				f_puts(itoa(OBDConversion::dp.throttle_pos, buff, 10), fp);
    68be:	80 91 7f 21 	lds	r24, 0x217F
    68c2:	4a e0       	ldi	r20, 0x0A	; 10
    68c4:	be 01       	movw	r22, r28
    68c6:	6f 5f       	subi	r22, 0xFF	; 255
    68c8:	7f 4f       	sbci	r23, 0xFF	; 255
    68ca:	90 e0       	ldi	r25, 0x00	; 0
    68cc:	0e 94 a8 3f 	call	0x7f50	; 0x7f50 <__itoa_ncheck>
    68d0:	b8 01       	movw	r22, r16
    68d2:	0e 94 06 27 	call	0x4e0c	; 0x4e0c <f_puts>
				f_putc(',', fp);
    68d6:	b8 01       	movw	r22, r16
    68d8:	8c e2       	ldi	r24, 0x2C	; 44
    68da:	0e 94 ca 26 	call	0x4d94	; 0x4d94 <f_putc>
				f_puts(itoa(OBDConversion::dp.engine_load, buff, 10), fp);
    68de:	80 91 80 21 	lds	r24, 0x2180
    68e2:	4a e0       	ldi	r20, 0x0A	; 10
    68e4:	be 01       	movw	r22, r28
    68e6:	6f 5f       	subi	r22, 0xFF	; 255
    68e8:	7f 4f       	sbci	r23, 0xFF	; 255
    68ea:	90 e0       	ldi	r25, 0x00	; 0
    68ec:	0e 94 a8 3f 	call	0x7f50	; 0x7f50 <__itoa_ncheck>
    68f0:	b8 01       	movw	r22, r16
    68f2:	0e 94 06 27 	call	0x4e0c	; 0x4e0c <f_puts>
				f_putc(',', fp);
    68f6:	b8 01       	movw	r22, r16
    68f8:	8c e2       	ldi	r24, 0x2C	; 44
    68fa:	0e 94 ca 26 	call	0x4d94	; 0x4d94 <f_putc>
				f_putc('\n', fp);
    68fe:	b8 01       	movw	r22, r16
    6900:	8a e0       	ldi	r24, 0x0A	; 10
    6902:	0e 94 ca 26 	call	0x4d94	; 0x4d94 <f_putc>
				GPSref->dump(fp);
    6906:	b8 01       	movw	r22, r16
    6908:	80 91 89 21 	lds	r24, 0x2189
    690c:	90 91 8a 21 	lds	r25, 0x218A
    6910:	0e 94 9c 27 	call	0x4f38	; 0x4f38 <_ZN3GPS4dumpEP3FIL>
				OBDref->dump(fp);
    6914:	b8 01       	movw	r22, r16
    6916:	80 91 8d 21 	lds	r24, 0x218D
    691a:	90 91 8e 21 	lds	r25, 0x218E
    691e:	0e 94 8d 07 	call	0xf1a	; 0xf1a <_ZN5BTOBD4dumpEP3FIL>
				fileOpened = false;
    6922:	10 92 86 21 	sts	0x2186, r1
				f_close(fp);
    6926:	c8 01       	movw	r24, r16
    6928:	0e 94 17 24 	call	0x482e	; 0x482e <f_close>
			}
		}
	} 
}
    692c:	64 96       	adiw	r28, 0x14	; 20
    692e:	cd bf       	out	0x3d, r28	; 61
    6930:	de bf       	out	0x3e, r29	; 62
    6932:	df 91       	pop	r29
    6934:	cf 91       	pop	r28
    6936:	1f 91       	pop	r17
    6938:	0f 91       	pop	r16
    693a:	08 95       	ret

0000693c <main>:


int main(void)
{
    693c:	cf 93       	push	r28
    693e:	df 93       	push	r29
    6940:	cd b7       	in	r28, 0x3d	; 61
    6942:	de b7       	in	r29, 0x3e	; 62
    6944:	c1 54       	subi	r28, 0x41	; 65
    6946:	d5 40       	sbci	r29, 0x05	; 5
    6948:	cd bf       	out	0x3d, r28	; 61
    694a:	de bf       	out	0x3e, r29	; 62
	asm("cli");
    694c:	f8 94       	cli
	setClockTo32MHz();
    694e:	2f de       	rcall	.-930    	; 0x65ae <_Z15setClockTo32MHzv>
	#else
		//round up by default
		__ticks_dc = (uint32_t)(ceil(fabs(__tmp)));
	#endif

	__builtin_avr_delay_cycles(__ticks_dc);
    6950:	2f ef       	ldi	r18, 0xFF	; 255
    6952:	87 ea       	ldi	r24, 0xA7	; 167
    6954:	91 e6       	ldi	r25, 0x61	; 97
    6956:	21 50       	subi	r18, 0x01	; 1
    6958:	80 40       	sbci	r24, 0x00	; 0
    695a:	90 40       	sbci	r25, 0x00	; 0
    695c:	e1 f7       	brne	.-8      	; 0x6956 <main+0x1a>
    695e:	00 c0       	rjmp	.+0      	; 0x6960 <main+0x24>
    6960:	00 00       	nop
	FATFS fs;
	FIL fil;
	int err;

	// Set pins as outputs
	PORTD.OUT = 0x88;
    6962:	e0 e6       	ldi	r30, 0x60	; 96
    6964:	f6 e0       	ldi	r31, 0x06	; 6
    6966:	88 e8       	ldi	r24, 0x88	; 136
    6968:	84 83       	std	Z+4, r24	; 0x04
	PORTD.DIR = 0x88;
    696a:	80 83       	st	Z, r24
	PORTE.DIR = 0xB0;
    696c:	80 eb       	ldi	r24, 0xB0	; 176
    696e:	80 93 80 06 	sts	0x0680, r24
	PORTF.DIR = 0x01;
    6972:	81 e0       	ldi	r24, 0x01	; 1
    6974:	80 93 a0 06 	sts	0x06A0, r24

	//SD card setup
	f_mount(&fs, "", 0);
    6978:	40 e0       	ldi	r20, 0x00	; 0
    697a:	67 e9       	ldi	r22, 0x97	; 151
    697c:	70 e2       	ldi	r23, 0x20	; 32
    697e:	ce 01       	movw	r24, r28
    6980:	01 96       	adiw	r24, 0x01	; 1
    6982:	0e 94 2a 1f 	call	0x3e54	; 0x3e54 <f_mount>
	fr = f_open(&fil, "test.csv",FA_WRITE | FA_CREATE_ALWAYS);
    6986:	4a e0       	ldi	r20, 0x0A	; 10
    6988:	66 e2       	ldi	r22, 0x26	; 38
    698a:	71 e2       	ldi	r23, 0x21	; 33
    698c:	ce 01       	movw	r24, r28
    698e:	81 5d       	subi	r24, 0xD1	; 209
    6990:	9d 4f       	sbci	r25, 0xFD	; 253
    6992:	0e 94 79 1f 	call	0x3ef2	; 0x3ef2 <f_open>
	if (fr == FR_OK) {
    6996:	81 11       	cpse	r24, r1
    6998:	07 c0       	rjmp	.+14     	; 0x69a8 <main+0x6c>
		f_puts((TCHAR *) "lat,long,time,speed,rpm,throttle,load,\n", &fil);
    699a:	be 01       	movw	r22, r28
    699c:	61 5d       	subi	r22, 0xD1	; 209
    699e:	7d 4f       	sbci	r23, 0xFD	; 253
    69a0:	85 e4       	ldi	r24, 0x45	; 69
    69a2:	91 e2       	ldi	r25, 0x21	; 33
    69a4:	0e 94 06 27 	call	0x4e0c	; 0x4e0c <f_puts>
	}
	f_close(&fil);
    69a8:	ce 01       	movw	r24, r28
    69aa:	81 5d       	subi	r24, 0xD1	; 209
    69ac:	9d 4f       	sbci	r25, 0xFD	; 253
    69ae:	0e 94 17 24 	call	0x482e	; 0x482e <f_close>


	// LCD setup
	LCD_Driver LCD;
    69b2:	8e 01       	movw	r16, r28
    69b4:	07 5d       	subi	r16, 0xD7	; 215
    69b6:	1a 4f       	sbci	r17, 0xFA	; 250
    69b8:	c8 01       	movw	r24, r16
    69ba:	0e 94 8b 2a 	call	0x5516	; 0x5516 <_ZN10LCD_DriverC1Ev>
	LCDref = &LCD;
    69be:	00 93 8b 21 	sts	0x218B, r16
    69c2:	10 93 8c 21 	sts	0x218C, r17
	LCD.begin();
    69c6:	c8 01       	movw	r24, r16
    69c8:	0e 94 e8 2a 	call	0x55d0	; 0x55d0 <_ZN10LCD_Driver5beginEv>
	LCD.fillScreen(0x0000);
    69cc:	60 e0       	ldi	r22, 0x00	; 0
    69ce:	70 e0       	ldi	r23, 0x00	; 0
    69d0:	c8 01       	movw	r24, r16
    69d2:	4d d8       	rcall	.-3942   	; 0x5a6e <_ZN10LCD_Driver10fillScreenEj>
	LCD.setRotation(3);
    69d4:	63 e0       	ldi	r22, 0x03	; 3
    69d6:	c8 01       	movw	r24, r16
    69d8:	0e 94 9f 2c 	call	0x593e	; 0x593e <_ZN10LCD_Driver11setRotationEh>
	LCD.setCursor(0,0);
    69dc:	40 e0       	ldi	r20, 0x00	; 0
    69de:	50 e0       	ldi	r21, 0x00	; 0
    69e0:	60 e0       	ldi	r22, 0x00	; 0
    69e2:	70 e0       	ldi	r23, 0x00	; 0
    69e4:	c8 01       	movw	r24, r16
    69e6:	0e 94 03 07 	call	0xe06	; 0xe06 <_ZN12Adafruit_GFX9setCursorEii>
	LCD.setTextColor(0xFFFF, 0x0000);
    69ea:	40 e0       	ldi	r20, 0x00	; 0
    69ec:	50 e0       	ldi	r21, 0x00	; 0
    69ee:	6f ef       	ldi	r22, 0xFF	; 255
    69f0:	7f ef       	ldi	r23, 0xFF	; 255
    69f2:	c8 01       	movw	r24, r16
    69f4:	0e 94 11 07 	call	0xe22	; 0xe22 <_ZN12Adafruit_GFX12setTextColorEjj>
	LCD.setTextSize(2);
    69f8:	62 e0       	ldi	r22, 0x02	; 2
    69fa:	c8 01       	movw	r24, r16
    69fc:	0e 94 0b 07 	call	0xe16	; 0xe16 <_ZN12Adafruit_GFX11setTextSizeEh>
	LCD.setTextWrap(true);
    6a00:	61 e0       	ldi	r22, 0x01	; 1
    6a02:	c8 01       	movw	r24, r16
    6a04:	0e 94 17 07 	call	0xe2e	; 0xe2e <_ZN12Adafruit_GFX11setTextWrapEb>

	OBDConversion::init();
    6a08:	e5 db       	rcall	.-2102   	; 0x61d4 <_ZN13OBDConversion4initEv>
	//Touch toucj;
	//Touchref = &toucj;
	//_delay_ms(1000);
	
	// GPS setup
	GPS GPSModule;
    6a0a:	0a 5d       	subi	r16, 0xDA	; 218
    6a0c:	11 09       	sbc	r17, r1
    6a0e:	c8 01       	movw	r24, r16
    6a10:	0e 94 51 27 	call	0x4ea2	; 0x4ea2 <_ZN3GPSC1Ev>
	GPSref = &GPSModule;
    6a14:	00 93 89 21 	sts	0x2189, r16
    6a18:	10 93 8a 21 	sts	0x218A, r17

	// BT setup
	BTOBD OBDModule;
    6a1c:	02 59       	subi	r16, 0x92	; 146
    6a1e:	1f 4f       	sbci	r17, 0xFF	; 255
    6a20:	c8 01       	movw	r24, r16
    6a22:	0e 94 37 07 	call	0xe6e	; 0xe6e <_ZN5BTOBDC1Ev>
	OBDref = &OBDModule;
    6a26:	00 93 8d 21 	sts	0x218D, r16
    6a2a:	10 93 8e 21 	sts	0x218E, r17

	PMIC.CTRL |= 0x07;
    6a2e:	e0 ea       	ldi	r30, 0xA0	; 160
    6a30:	f0 e0       	ldi	r31, 0x00	; 0
    6a32:	82 81       	ldd	r24, Z+2	; 0x02
    6a34:	87 60       	ori	r24, 0x07	; 7
    6a36:	82 83       	std	Z+2, r24	; 0x02
	asm("sei");
    6a38:	78 94       	sei


	bool send = true;
	OBDModule.initialize("000666643F8F", LCDref);
    6a3a:	40 91 8b 21 	lds	r20, 0x218B
    6a3e:	50 91 8c 21 	lds	r21, 0x218C
    6a42:	6d e6       	ldi	r22, 0x6D	; 109
    6a44:	71 e2       	ldi	r23, 0x21	; 33
    6a46:	ce 01       	movw	r24, r28
    6a48:	83 54       	subi	r24, 0x43	; 67
    6a4a:	9b 4f       	sbci	r25, 0xFB	; 251
    6a4c:	0e 94 63 0c 	call	0x18c6	; 0x18c6 <_ZN5BTOBD10initializeEPcP10LCD_Driver>
	//OBDModule.initialize("00195DE8057A", LCDref);
	GPSModule.init();
    6a50:	ce 01       	movw	r24, r28
    6a52:	81 5b       	subi	r24, 0xB1	; 177
    6a54:	9b 4f       	sbci	r25, 0xFB	; 251
    6a56:	0e 94 4c 28 	call	0x5098	; 0x5098 <_ZN3GPS4initEv>
	MainScreen ms(LCDref);
    6a5a:	60 91 8b 21 	lds	r22, 0x218B
    6a5e:	70 91 8c 21 	lds	r23, 0x218C
    6a62:	ce 01       	movw	r24, r28
    6a64:	80 5c       	subi	r24, 0xC0	; 192
    6a66:	9a 4f       	sbci	r25, 0xFA	; 250
    6a68:	42 d8       	rcall	.-3964   	; 0x5aee <_ZN10MainScreenC1EP10LCD_Driver>
	ms.clear();
    6a6a:	ce 01       	movw	r24, r28
    6a6c:	80 5c       	subi	r24, 0xC0	; 192
    6a6e:	9a 4f       	sbci	r25, 0xFA	; 250
    6a70:	40 d8       	rcall	.-3968   	; 0x5af2 <_ZN10MainScreen5clearEv>
	GPSModule.startReceiving();
    6a72:	ce 01       	movw	r24, r28
    6a74:	81 5b       	subi	r24, 0xB1	; 177
    6a76:	9b 4f       	sbci	r25, 0xFB	; 251
    6a78:	0e 94 3e 2a 	call	0x547c	; 0x547c <_ZN3GPS14startReceivingEv>

	PMIC.CTRL |= 0x07;
	asm("sei");


	bool send = true;
    6a7c:	11 e0       	ldi	r17, 0x01	; 1
	/*while(1) {
		GPSModule.updateRegisters();
		if (GPSModule.getStatus()) break;
	}*/
	while (1) {
		if (send) {
    6a7e:	11 23       	and	r17, r17
    6a80:	41 f0       	breq	.+16     	; 0x6a92 <main+0x156>
			OBDModule.sendCmd(&fil);
    6a82:	be 01       	movw	r22, r28
    6a84:	61 5d       	subi	r22, 0xD1	; 209
    6a86:	7d 4f       	sbci	r23, 0xFD	; 253
    6a88:	ce 01       	movw	r24, r28
    6a8a:	83 54       	subi	r24, 0x43	; 67
    6a8c:	9b 4f       	sbci	r25, 0xFB	; 251
    6a8e:	0e 94 60 0d 	call	0x1ac0	; 0x1ac0 <_ZN5BTOBD7sendCmdEP3FIL>
		}
		send = OBDModule.rcvResp();
    6a92:	ce 01       	movw	r24, r28
    6a94:	83 54       	subi	r24, 0x43	; 67
    6a96:	9b 4f       	sbci	r25, 0xFB	; 251
    6a98:	0e 94 73 0c 	call	0x18e6	; 0x18e6 <_ZN5BTOBD7rcvRespEv>
    6a9c:	18 2f       	mov	r17, r24
		GPSModule.updateRegisters();
    6a9e:	ce 01       	movw	r24, r28
    6aa0:	81 5b       	subi	r24, 0xB1	; 177
    6aa2:	9b 4f       	sbci	r25, 0xFB	; 251
    6aa4:	0e 94 dc 28 	call	0x51b8	; 0x51b8 <_ZN3GPS15updateRegistersEv>

		//GPSModule.vomit(LCDref);
		ms.update(OBDref, GPSref);
    6aa8:	40 91 89 21 	lds	r20, 0x2189
    6aac:	50 91 8a 21 	lds	r21, 0x218A
    6ab0:	60 91 8d 21 	lds	r22, 0x218D
    6ab4:	70 91 8e 21 	lds	r23, 0x218E
    6ab8:	ce 01       	movw	r24, r28
    6aba:	80 5c       	subi	r24, 0xC0	; 192
    6abc:	9a 4f       	sbci	r25, 0xFA	; 250
    6abe:	4c db       	rcall	.-2408   	; 0x6158 <_ZN10MainScreen6updateEP5BTOBDP3GPS>
		if (performWrite) {
    6ac0:	80 91 85 21 	lds	r24, 0x2185
    6ac4:	88 23       	and	r24, r24
    6ac6:	d9 f2       	breq	.-74     	; 0x6a7e <main+0x142>
			writeDP(&fil);
    6ac8:	ce 01       	movw	r24, r28
    6aca:	81 5d       	subi	r24, 0xD1	; 209
    6acc:	9d 4f       	sbci	r25, 0xFD	; 253
    6ace:	9b dd       	rcall	.-1226   	; 0x6606 <_Z7writeDPP3FIL>
			performWrite = false;
    6ad0:	10 92 85 21 	sts	0x2185, r1
    6ad4:	d4 cf       	rjmp	.-88     	; 0x6a7e <main+0x142>

00006ad6 <_ZN6ScreenC1EP10LCD_Driver>:
 *  Author: ee63pc3-user
 */ 

 #include "Screen.h"

 Screen::Screen(LCD_Driver * lcdscreen) {lcd = lcdscreen;}
    6ad6:	fc 01       	movw	r30, r24
    6ad8:	60 83       	st	Z, r22
    6ada:	71 83       	std	Z+1, r23	; 0x01
    6adc:	08 95       	ret

00006ade <get_fattime>:

		TCC1.CTRLA = 0x07; // Prescaler /1024
 }
 DSTATUS SDCard::getStatus() {
	return Stat;
 }
    6ade:	62 e6       	ldi	r22, 0x62	; 98
    6ae0:	77 ea       	ldi	r23, 0xA7	; 167
    6ae2:	8b e9       	ldi	r24, 0x9B	; 155
    6ae4:	90 e0       	ldi	r25, 0x00	; 0
    6ae6:	08 95       	ret

00006ae8 <disk_status>:
    6ae8:	cf 93       	push	r28
    6aea:	df 93       	push	r29
    6aec:	1f 92       	push	r1
    6aee:	cd b7       	in	r28, 0x3d	; 61
    6af0:	de b7       	in	r29, 0x3e	; 62
    6af2:	89 83       	std	Y+1, r24	; 0x01
    6af4:	89 81       	ldd	r24, Y+1	; 0x01
    6af6:	90 91 91 21 	lds	r25, 0x2191
    6afa:	98 13       	cpse	r25, r24
    6afc:	03 c0       	rjmp	.+6      	; 0x6b04 <disk_status+0x1c>
    6afe:	80 91 93 21 	lds	r24, 0x2193
    6b02:	01 c0       	rjmp	.+2      	; 0x6b06 <disk_status+0x1e>
    6b04:	81 e0       	ldi	r24, 0x01	; 1
    6b06:	0f 90       	pop	r0
    6b08:	df 91       	pop	r29
    6b0a:	cf 91       	pop	r28
    6b0c:	08 95       	ret

00006b0e <_ZN6SDCardC1EP10SPI_struct>:
    6b0e:	cf 93       	push	r28
    6b10:	df 93       	push	r29
    6b12:	ec 01       	movw	r28, r24
    6b14:	10 d6       	rcall	.+3104   	; 0x7736 <_ZN10SPI_DriverC1EP10SPI_struct>
    6b16:	81 e0       	ldi	r24, 0x01	; 1
    6b18:	8c 83       	std	Y+4, r24	; 0x04
    6b1a:	e0 e8       	ldi	r30, 0x80	; 128
    6b1c:	f6 e0       	ldi	r31, 0x06	; 6
    6b1e:	80 81       	ld	r24, Z
    6b20:	83 7f       	andi	r24, 0xF3	; 243
    6b22:	80 83       	st	Z, r24
    6b24:	80 85       	ldd	r24, Z+8	; 0x08
    6b26:	83 ff       	sbrs	r24, 3
    6b28:	03 c0       	rjmp	.+6      	; 0x6b30 <_ZN6SDCardC1EP10SPI_struct+0x22>
    6b2a:	8c 81       	ldd	r24, Y+4	; 0x04
    6b2c:	82 60       	ori	r24, 0x02	; 2
    6b2e:	8c 83       	std	Y+4, r24	; 0x04
    6b30:	ce 01       	movw	r24, r28
    6b32:	19 d6       	rcall	.+3122   	; 0x7766 <_ZN10SPI_Driver6enableEv>
    6b34:	e0 e4       	ldi	r30, 0x40	; 64
    6b36:	f8 e0       	ldi	r31, 0x08	; 8
    6b38:	10 82       	st	Z, r1
    6b3a:	80 e1       	ldi	r24, 0x10	; 16
    6b3c:	81 83       	std	Z+1, r24	; 0x01
    6b3e:	82 e1       	ldi	r24, 0x12	; 18
    6b40:	9a e7       	ldi	r25, 0x7A	; 122
    6b42:	80 a7       	std	Z+40, r24	; 0x28
    6b44:	91 a7       	std	Z+41, r25	; 0x29
    6b46:	81 e0       	ldi	r24, 0x01	; 1
    6b48:	87 83       	std	Z+7, r24	; 0x07
    6b4a:	87 e0       	ldi	r24, 0x07	; 7
    6b4c:	80 83       	st	Z, r24
    6b4e:	df 91       	pop	r29
    6b50:	cf 91       	pop	r28
    6b52:	08 95       	ret

00006b54 <_ZN6SDCard13rcv_dataBlockEPVhj>:
		res = spi.get();
	} while ((res & 0x80) && --n);

	return res;
}
int SDCard::rcv_dataBlock(BYTE * buff, UINT btr){
    6b54:	cf 92       	push	r12
    6b56:	df 92       	push	r13
    6b58:	ef 92       	push	r14
    6b5a:	ff 92       	push	r15
    6b5c:	0f 93       	push	r16
    6b5e:	1f 93       	push	r17
    6b60:	cf 93       	push	r28
    6b62:	df 93       	push	r29
    6b64:	00 d0       	rcall	.+0      	; 0x6b66 <_ZN6SDCard13rcv_dataBlockEPVhj+0x12>
    6b66:	cd b7       	in	r28, 0x3d	; 61
    6b68:	de b7       	in	r29, 0x3e	; 62
    6b6a:	8b 01       	movw	r16, r22
    6b6c:	4a 83       	std	Y+2, r20	; 0x02
    6b6e:	5b 83       	std	Y+3, r21	; 0x03
	BYTE token;
	do {
		token = spi.get();
    6b70:	c8 2e       	mov	r12, r24
    6b72:	d9 2e       	mov	r13, r25
    6b74:	ec 2c       	mov	r14, r12
    6b76:	fd 2c       	mov	r15, r13
    6b78:	8c 2d       	mov	r24, r12
    6b7a:	9d 2d       	mov	r25, r13
    6b7c:	10 d6       	rcall	.+3104   	; 0x779e <_ZN10SPI_Driver3getEv>
    6b7e:	89 83       	std	Y+1, r24	; 0x01
	} while((token == 0xFF));
    6b80:	89 81       	ldd	r24, Y+1	; 0x01

	return res;
}
int SDCard::rcv_dataBlock(BYTE * buff, UINT btr){
	BYTE token;
	do {
    6b82:	8f 3f       	cpi	r24, 0xFF	; 255
    6b84:	b9 f3       	breq	.-18     	; 0x6b74 <_ZN6SDCard13rcv_dataBlockEPVhj+0x20>
		token = spi.get();
	} while((token == 0xFF));
	if (token != 0xFE) return 0;
    6b86:	89 81       	ldd	r24, Y+1	; 0x01
    6b88:	8e 3f       	cpi	r24, 0xFE	; 254
    6b8a:	49 f5       	brne	.+82     	; 0x6bde <_ZN6SDCard13rcv_dataBlockEPVhj+0x8a>

	do {
		spi.get_buffered(buff++);
    6b8c:	b8 01       	movw	r22, r16
    6b8e:	8e 2d       	mov	r24, r14
    6b90:	9f 2d       	mov	r25, r15
    6b92:	12 d6       	rcall	.+3108   	; 0x77b8 <_ZN10SPI_Driver12get_bufferedEPVh>
    6b94:	b8 01       	movw	r22, r16
    6b96:	6f 5f       	subi	r22, 0xFF	; 255
    6b98:	7f 4f       	sbci	r23, 0xFF	; 255
		spi.get_buffered(buff++);
    6b9a:	8e 2d       	mov	r24, r14
    6b9c:	9f 2d       	mov	r25, r15
    6b9e:	0c d6       	rcall	.+3096   	; 0x77b8 <_ZN10SPI_Driver12get_bufferedEPVh>
    6ba0:	b8 01       	movw	r22, r16
    6ba2:	6e 5f       	subi	r22, 0xFE	; 254
    6ba4:	7f 4f       	sbci	r23, 0xFF	; 255
		spi.get_buffered(buff++);
    6ba6:	8e 2d       	mov	r24, r14
    6ba8:	9f 2d       	mov	r25, r15
    6baa:	06 d6       	rcall	.+3084   	; 0x77b8 <_ZN10SPI_Driver12get_bufferedEPVh>
		spi.get_buffered(buff++);
    6bac:	b8 01       	movw	r22, r16
    6bae:	6d 5f       	subi	r22, 0xFD	; 253
    6bb0:	7f 4f       	sbci	r23, 0xFF	; 255
    6bb2:	0c 5f       	subi	r16, 0xFC	; 252
    6bb4:	1f 4f       	sbci	r17, 0xFF	; 255
    6bb6:	8e 2d       	mov	r24, r14
    6bb8:	9f 2d       	mov	r25, r15
    6bba:	fe d5       	rcall	.+3068   	; 0x77b8 <_ZN10SPI_Driver12get_bufferedEPVh>
	do {
		token = spi.get();
	} while((token == 0xFF));
	if (token != 0xFE) return 0;

	do {
    6bbc:	2a 81       	ldd	r18, Y+2	; 0x02
    6bbe:	3b 81       	ldd	r19, Y+3	; 0x03
    6bc0:	24 50       	subi	r18, 0x04	; 4
    6bc2:	31 09       	sbc	r19, r1
    6bc4:	2a 83       	std	Y+2, r18	; 0x02
    6bc6:	3b 83       	std	Y+3, r19	; 0x03
    6bc8:	23 2b       	or	r18, r19
    6bca:	01 f7       	brne	.-64     	; 0x6b8c <_ZN6SDCard13rcv_dataBlockEPVhj+0x38>
		spi.get_buffered(buff++);
		spi.get_buffered(buff++);
		spi.get_buffered(buff++);
		spi.get_buffered(buff++);
	} while (btr -= 4);
	spi.get();
    6bcc:	8e 2d       	mov	r24, r14
    6bce:	9f 2d       	mov	r25, r15
    6bd0:	e6 d5       	rcall	.+3020   	; 0x779e <_ZN10SPI_Driver3getEv>
	spi.get();
    6bd2:	8e 2d       	mov	r24, r14
    6bd4:	9f 2d       	mov	r25, r15
    6bd6:	e3 d5       	rcall	.+3014   	; 0x779e <_ZN10SPI_Driver3getEv>

	return 1;
    6bd8:	81 e0       	ldi	r24, 0x01	; 1
    6bda:	90 e0       	ldi	r25, 0x00	; 0
    6bdc:	02 c0       	rjmp	.+4      	; 0x6be2 <_ZN6SDCard13rcv_dataBlockEPVhj+0x8e>
int SDCard::rcv_dataBlock(BYTE * buff, UINT btr){
	BYTE token;
	do {
		token = spi.get();
	} while((token == 0xFF));
	if (token != 0xFE) return 0;
    6bde:	80 e0       	ldi	r24, 0x00	; 0
    6be0:	90 e0       	ldi	r25, 0x00	; 0
	} while (btr -= 4);
	spi.get();
	spi.get();

	return 1;
}
    6be2:	23 96       	adiw	r28, 0x03	; 3
    6be4:	cd bf       	out	0x3d, r28	; 61
    6be6:	de bf       	out	0x3e, r29	; 62
    6be8:	df 91       	pop	r29
    6bea:	cf 91       	pop	r28
    6bec:	1f 91       	pop	r17
    6bee:	0f 91       	pop	r16
    6bf0:	ff 90       	pop	r15
    6bf2:	ef 90       	pop	r14
    6bf4:	df 90       	pop	r13
    6bf6:	cf 90       	pop	r12
    6bf8:	08 95       	ret

00006bfa <_ZN6SDCard10wait_readyEv>:
		if ((resp & 0x1F) != 0x05) return 0;
	}
	return 1;
}

int SDCard::wait_ready() {
    6bfa:	0f 93       	push	r16
    6bfc:	1f 93       	push	r17
    6bfe:	cf 93       	push	r28
    6c00:	df 93       	push	r29
    6c02:	1f 92       	push	r1
    6c04:	cd b7       	in	r28, 0x3d	; 61
    6c06:	de b7       	in	r29, 0x3e	; 62
	BYTE n = 0xFF;
    6c08:	2f ef       	ldi	r18, 0xFF	; 255
    6c0a:	29 83       	std	Y+1, r18	; 0x01
	spi.get();
    6c0c:	08 2f       	mov	r16, r24
    6c0e:	19 2f       	mov	r17, r25
    6c10:	c6 d5       	rcall	.+2956   	; 0x779e <_ZN10SPI_Driver3getEv>
	for (;n;n--) {
    6c12:	89 81       	ldd	r24, Y+1	; 0x01
    6c14:	88 23       	and	r24, r24
    6c16:	61 f0       	breq	.+24     	; 0x6c30 <_ZN6SDCard10wait_readyEv+0x36>
		if (spi.get() == 0xFF) return 1;
    6c18:	80 2f       	mov	r24, r16
    6c1a:	91 2f       	mov	r25, r17
    6c1c:	c0 d5       	rcall	.+2944   	; 0x779e <_ZN10SPI_Driver3getEv>
    6c1e:	8f 3f       	cpi	r24, 0xFF	; 255
    6c20:	51 f0       	breq	.+20     	; 0x6c36 <_ZN6SDCard10wait_readyEv+0x3c>
}

int SDCard::wait_ready() {
	BYTE n = 0xFF;
	spi.get();
	for (;n;n--) {
    6c22:	29 81       	ldd	r18, Y+1	; 0x01
    6c24:	21 50       	subi	r18, 0x01	; 1
    6c26:	29 83       	std	Y+1, r18	; 0x01
    6c28:	29 81       	ldd	r18, Y+1	; 0x01
    6c2a:	21 11       	cpse	r18, r1
    6c2c:	f5 cf       	rjmp	.-22     	; 0x6c18 <_ZN6SDCard10wait_readyEv+0x1e>
    6c2e:	06 c0       	rjmp	.+12     	; 0x6c3c <_ZN6SDCard10wait_readyEv+0x42>
		if (spi.get() == 0xFF) return 1;
	}
	return 0;
    6c30:	80 e0       	ldi	r24, 0x00	; 0
    6c32:	90 e0       	ldi	r25, 0x00	; 0
    6c34:	05 c0       	rjmp	.+10     	; 0x6c40 <_ZN6SDCard10wait_readyEv+0x46>

int SDCard::wait_ready() {
	BYTE n = 0xFF;
	spi.get();
	for (;n;n--) {
		if (spi.get() == 0xFF) return 1;
    6c36:	81 e0       	ldi	r24, 0x01	; 1
    6c38:	90 e0       	ldi	r25, 0x00	; 0
    6c3a:	02 c0       	rjmp	.+4      	; 0x6c40 <_ZN6SDCard10wait_readyEv+0x46>
	}
	return 0;
    6c3c:	80 e0       	ldi	r24, 0x00	; 0
    6c3e:	90 e0       	ldi	r25, 0x00	; 0
}
    6c40:	0f 90       	pop	r0
    6c42:	df 91       	pop	r29
    6c44:	cf 91       	pop	r28
    6c46:	1f 91       	pop	r17
    6c48:	0f 91       	pop	r16
    6c4a:	08 95       	ret

00006c4c <_ZN6SDCard14send_dataBlockEPVKhh>:
	spi.get();

	return 1;
}

int SDCard::send_dataBlock(const BYTE * buff, BYTE token) {
    6c4c:	af 92       	push	r10
    6c4e:	bf 92       	push	r11
    6c50:	cf 92       	push	r12
    6c52:	df 92       	push	r13
    6c54:	ef 92       	push	r14
    6c56:	ff 92       	push	r15
    6c58:	0f 93       	push	r16
    6c5a:	1f 93       	push	r17
    6c5c:	cf 93       	push	r28
    6c5e:	df 93       	push	r29
    6c60:	00 d0       	rcall	.+0      	; 0x6c62 <_ZN6SDCard14send_dataBlockEPVKhh+0x16>
    6c62:	cd b7       	in	r28, 0x3d	; 61
    6c64:	de b7       	in	r29, 0x3e	; 62
    6c66:	a8 2e       	mov	r10, r24
    6c68:	b9 2e       	mov	r11, r25
    6c6a:	8b 01       	movw	r16, r22
    6c6c:	4b 83       	std	Y+3, r20	; 0x03
	BYTE resp,wc;

	if (!wait_ready()) return 0;
    6c6e:	c5 df       	rcall	.-118    	; 0x6bfa <_ZN6SDCard10wait_readyEv>
    6c70:	00 97       	sbiw	r24, 0x00	; 0
    6c72:	b9 f1       	breq	.+110    	; 0x6ce2 <_ZN6SDCard14send_dataBlockEPVKhh+0x96>

	spi.put(token);
    6c74:	6b 81       	ldd	r22, Y+3	; 0x03
    6c76:	da 2c       	mov	r13, r10
    6c78:	cb 2c       	mov	r12, r11
    6c7a:	8a 2d       	mov	r24, r10
    6c7c:	9b 2d       	mov	r25, r11
    6c7e:	7a d5       	rcall	.+2804   	; 0x7774 <_ZN10SPI_Driver3putEh>
	if (token != 0xFD) {
    6c80:	8b 81       	ldd	r24, Y+3	; 0x03
    6c82:	8d 3f       	cpi	r24, 0xFD	; 253
    6c84:	61 f1       	breq	.+88     	; 0x6cde <_ZN6SDCard14send_dataBlockEPVKhh+0x92>
		wc = 0;
    6c86:	19 82       	std	Y+1, r1	; 0x01
		do {
			spi.put(*buff++);
    6c88:	f8 01       	movw	r30, r16
    6c8a:	60 81       	ld	r22, Z
    6c8c:	8d 2d       	mov	r24, r13
    6c8e:	9c 2d       	mov	r25, r12
    6c90:	71 d5       	rcall	.+2786   	; 0x7774 <_ZN10SPI_Driver3putEh>
    6c92:	78 01       	movw	r14, r16
    6c94:	f2 e0       	ldi	r31, 0x02	; 2
    6c96:	ef 0e       	add	r14, r31
    6c98:	f1 1c       	adc	r15, r1
			spi.put(*buff++);
    6c9a:	f8 01       	movw	r30, r16
    6c9c:	61 81       	ldd	r22, Z+1	; 0x01
    6c9e:	8d 2d       	mov	r24, r13
    6ca0:	9c 2d       	mov	r25, r12
    6ca2:	68 d5       	rcall	.+2768   	; 0x7774 <_ZN10SPI_Driver3putEh>
	if (!wait_ready()) return 0;

	spi.put(token);
	if (token != 0xFD) {
		wc = 0;
		do {
    6ca4:	29 81       	ldd	r18, Y+1	; 0x01
    6ca6:	21 50       	subi	r18, 0x01	; 1
    6ca8:	29 83       	std	Y+1, r18	; 0x01
    6caa:	22 23       	and	r18, r18
    6cac:	11 f0       	breq	.+4      	; 0x6cb2 <_ZN6SDCard14send_dataBlockEPVKhh+0x66>
			spi.put(*buff++);
			spi.put(*buff++);
    6cae:	87 01       	movw	r16, r14
    6cb0:	eb cf       	rjmp	.-42     	; 0x6c88 <_ZN6SDCard14send_dataBlockEPVKhh+0x3c>
		} while (--wc);
		spi.put(0xFF);
    6cb2:	6f ef       	ldi	r22, 0xFF	; 255
    6cb4:	8a 2d       	mov	r24, r10
    6cb6:	9b 2d       	mov	r25, r11
    6cb8:	5d d5       	rcall	.+2746   	; 0x7774 <_ZN10SPI_Driver3putEh>
		spi.put(0xFF);
    6cba:	6f ef       	ldi	r22, 0xFF	; 255
    6cbc:	8a 2d       	mov	r24, r10
    6cbe:	9b 2d       	mov	r25, r11
    6cc0:	59 d5       	rcall	.+2738   	; 0x7774 <_ZN10SPI_Driver3putEh>
		resp = spi.get();
    6cc2:	8a 2d       	mov	r24, r10
    6cc4:	9b 2d       	mov	r25, r11
    6cc6:	6b d5       	rcall	.+2774   	; 0x779e <_ZN10SPI_Driver3getEv>
    6cc8:	8a 83       	std	Y+2, r24	; 0x02
		if ((resp & 0x1F) != 0x05) return 0;
    6cca:	2a 81       	ldd	r18, Y+2	; 0x02
    6ccc:	2f 71       	andi	r18, 0x1F	; 31
    6cce:	41 e0       	ldi	r20, 0x01	; 1
    6cd0:	30 e0       	ldi	r19, 0x00	; 0
    6cd2:	25 30       	cpi	r18, 0x05	; 5
    6cd4:	09 f0       	breq	.+2      	; 0x6cd8 <_ZN6SDCard14send_dataBlockEPVKhh+0x8c>
    6cd6:	40 e0       	ldi	r20, 0x00	; 0
}

int SDCard::send_dataBlock(const BYTE * buff, BYTE token) {
	BYTE resp,wc;

	if (!wait_ready()) return 0;
    6cd8:	84 2f       	mov	r24, r20
    6cda:	93 2f       	mov	r25, r19
    6cdc:	02 c0       	rjmp	.+4      	; 0x6ce2 <_ZN6SDCard14send_dataBlockEPVKhh+0x96>
		spi.put(0xFF);
		spi.put(0xFF);
		resp = spi.get();
		if ((resp & 0x1F) != 0x05) return 0;
	}
	return 1;
    6cde:	81 e0       	ldi	r24, 0x01	; 1
    6ce0:	90 e0       	ldi	r25, 0x00	; 0
}
    6ce2:	23 96       	adiw	r28, 0x03	; 3
    6ce4:	cd bf       	out	0x3d, r28	; 61
    6ce6:	de bf       	out	0x3e, r29	; 62
    6ce8:	df 91       	pop	r29
    6cea:	cf 91       	pop	r28
    6cec:	1f 91       	pop	r17
    6cee:	0f 91       	pop	r16
    6cf0:	ff 90       	pop	r15
    6cf2:	ef 90       	pop	r14
    6cf4:	df 90       	pop	r13
    6cf6:	cf 90       	pop	r12
    6cf8:	bf 90       	pop	r11
    6cfa:	af 90       	pop	r10
    6cfc:	08 95       	ret

00006cfe <_ZN6SDCard6selectEv>:
		if (spi.get() == 0xFF) return 1;
	}
	return 0;
}

int SDCard::select() {
    6cfe:	0f 93       	push	r16
    6d00:	1f 93       	push	r17
    6d02:	cf 93       	push	r28
    6d04:	df 93       	push	r29
    6d06:	8c 01       	movw	r16, r24
	SPI_SELECT;
    6d08:	80 e1       	ldi	r24, 0x10	; 16
    6d0a:	e0 e8       	ldi	r30, 0x80	; 128
    6d0c:	f6 e0       	ldi	r31, 0x06	; 6
    6d0e:	86 83       	std	Z+6, r24	; 0x06
	if (!wait_ready()) {
    6d10:	c8 01       	movw	r24, r16
    6d12:	73 df       	rcall	.-282    	; 0x6bfa <_ZN6SDCard10wait_readyEv>
    6d14:	ec 01       	movw	r28, r24
    6d16:	00 97       	sbiw	r24, 0x00	; 0
    6d18:	39 f4       	brne	.+14     	; 0x6d28 <_ZN6SDCard6selectEv+0x2a>
		deselect();
    6d1a:	80 e1       	ldi	r24, 0x10	; 16
    6d1c:	e0 e8       	ldi	r30, 0x80	; 128
    6d1e:	f6 e0       	ldi	r31, 0x06	; 6
    6d20:	85 83       	std	Z+5, r24	; 0x05
    6d22:	c8 01       	movw	r24, r16
    6d24:	3c d5       	rcall	.+2680   	; 0x779e <_ZN10SPI_Driver3getEv>
		return 0;
    6d26:	02 c0       	rjmp	.+4      	; 0x6d2c <_ZN6SDCard6selectEv+0x2e>
	}
	return 1;
    6d28:	c1 e0       	ldi	r28, 0x01	; 1
    6d2a:	d0 e0       	ldi	r29, 0x00	; 0
    6d2c:	ce 01       	movw	r24, r28
    6d2e:	df 91       	pop	r29
    6d30:	cf 91       	pop	r28
    6d32:	1f 91       	pop	r17
    6d34:	0f 91       	pop	r16
    6d36:	08 95       	ret

00006d38 <_ZN6SDCard8send_cmdEhm>:
		return res;
 }
 #endif

//SD Helper Functions
BYTE SDCard::send_cmd(BYTE cmd, DWORD arg) {
    6d38:	ef 92       	push	r14
    6d3a:	ff 92       	push	r15
    6d3c:	0f 93       	push	r16
    6d3e:	1f 93       	push	r17
    6d40:	cf 93       	push	r28
    6d42:	df 93       	push	r29
    6d44:	cd b7       	in	r28, 0x3d	; 61
    6d46:	de b7       	in	r29, 0x3e	; 62
    6d48:	27 97       	sbiw	r28, 0x07	; 7
    6d4a:	cd bf       	out	0x3d, r28	; 61
    6d4c:	de bf       	out	0x3e, r29	; 62
    6d4e:	e8 2e       	mov	r14, r24
    6d50:	f9 2e       	mov	r15, r25
    6d52:	6b 83       	std	Y+3, r22	; 0x03
    6d54:	2c 83       	std	Y+4, r18	; 0x04
    6d56:	3d 83       	std	Y+5, r19	; 0x05
    6d58:	4e 83       	std	Y+6, r20	; 0x06
    6d5a:	5f 83       	std	Y+7, r21	; 0x07
	BYTE n, res;
	//spi.get();
	//spi.get();
	
	if (cmd & 0x80) {
    6d5c:	8b 81       	ldd	r24, Y+3	; 0x03
    6d5e:	88 23       	and	r24, r24
    6d60:	7c f4       	brge	.+30     	; 0x6d80 <_ZN6SDCard8send_cmdEhm+0x48>
		cmd &= 0x7F;
    6d62:	8b 81       	ldd	r24, Y+3	; 0x03
    6d64:	8f 77       	andi	r24, 0x7F	; 127
    6d66:	8b 83       	std	Y+3, r24	; 0x03
		res = send_cmd(CMD55, 0);
    6d68:	20 e0       	ldi	r18, 0x00	; 0
    6d6a:	30 e0       	ldi	r19, 0x00	; 0
    6d6c:	a9 01       	movw	r20, r18
    6d6e:	67 e7       	ldi	r22, 0x77	; 119
    6d70:	8e 2d       	mov	r24, r14
    6d72:	e2 df       	rcall	.-60     	; 0x6d38 <_ZN6SDCard8send_cmdEhm>
    6d74:	89 83       	std	Y+1, r24	; 0x01
		if (res > 1) return res;
    6d76:	89 81       	ldd	r24, Y+1	; 0x01
    6d78:	82 30       	cpi	r24, 0x02	; 2
    6d7a:	10 f0       	brcs	.+4      	; 0x6d80 <_ZN6SDCard8send_cmdEhm+0x48>
    6d7c:	89 81       	ldd	r24, Y+1	; 0x01
    6d7e:	6b c0       	rjmp	.+214    	; 0x6e56 <_ZN6SDCard8send_cmdEhm+0x11e>
	}

	
	if (cmd != CMD0) {
    6d80:	8b 81       	ldd	r24, Y+3	; 0x03
    6d82:	80 34       	cpi	r24, 0x40	; 64
    6d84:	71 f0       	breq	.+28     	; 0x6da2 <_ZN6SDCard8send_cmdEhm+0x6a>
		deselect();
    6d86:	80 e1       	ldi	r24, 0x10	; 16
    6d88:	e0 e8       	ldi	r30, 0x80	; 128
    6d8a:	f6 e0       	ldi	r31, 0x06	; 6
    6d8c:	85 83       	std	Z+5, r24	; 0x05
    6d8e:	8e 2d       	mov	r24, r14
    6d90:	9f 2d       	mov	r25, r15
    6d92:	05 d5       	rcall	.+2570   	; 0x779e <_ZN10SPI_Driver3getEv>
		if (!select()) return 0xFF;
    6d94:	8e 2d       	mov	r24, r14
    6d96:	9f 2d       	mov	r25, r15
    6d98:	b2 df       	rcall	.-156    	; 0x6cfe <_ZN6SDCard6selectEv>
    6d9a:	89 2b       	or	r24, r25
    6d9c:	09 f4       	brne	.+2      	; 0x6da0 <_ZN6SDCard8send_cmdEhm+0x68>
    6d9e:	5a c0       	rjmp	.+180    	; 0x6e54 <_ZN6SDCard8send_cmdEhm+0x11c>
    6da0:	05 c0       	rjmp	.+10     	; 0x6dac <_ZN6SDCard8send_cmdEhm+0x74>
	} else {
		SPI_DESELECT;
    6da2:	e0 e8       	ldi	r30, 0x80	; 128
    6da4:	f6 e0       	ldi	r31, 0x06	; 6
    6da6:	80 e1       	ldi	r24, 0x10	; 16
    6da8:	85 83       	std	Z+5, r24	; 0x05
		SPI_SELECT;
    6daa:	86 83       	std	Z+6, r24	; 0x06
	}
	spi.put(0x40 | cmd);
    6dac:	6b 81       	ldd	r22, Y+3	; 0x03
    6dae:	1e 2d       	mov	r17, r14
    6db0:	0f 2d       	mov	r16, r15
    6db2:	60 64       	ori	r22, 0x40	; 64
    6db4:	8e 2d       	mov	r24, r14
    6db6:	9f 2d       	mov	r25, r15
    6db8:	dd d4       	rcall	.+2490   	; 0x7774 <_ZN10SPI_Driver3putEh>
	spi.put((BYTE)(arg >> 24));
    6dba:	8c 81       	ldd	r24, Y+4	; 0x04
    6dbc:	9d 81       	ldd	r25, Y+5	; 0x05
    6dbe:	ae 81       	ldd	r26, Y+6	; 0x06
    6dc0:	bf 81       	ldd	r27, Y+7	; 0x07
    6dc2:	6b 2f       	mov	r22, r27
    6dc4:	77 27       	eor	r23, r23
    6dc6:	88 27       	eor	r24, r24
    6dc8:	99 27       	eor	r25, r25
    6dca:	8e 2d       	mov	r24, r14
    6dcc:	9f 2d       	mov	r25, r15
    6dce:	d2 d4       	rcall	.+2468   	; 0x7774 <_ZN10SPI_Driver3putEh>
	spi.put((BYTE)(arg >> 16));
    6dd0:	8c 81       	ldd	r24, Y+4	; 0x04
    6dd2:	9d 81       	ldd	r25, Y+5	; 0x05
    6dd4:	ae 81       	ldd	r26, Y+6	; 0x06
    6dd6:	bf 81       	ldd	r27, Y+7	; 0x07
    6dd8:	bd 01       	movw	r22, r26
    6dda:	88 27       	eor	r24, r24
    6ddc:	99 27       	eor	r25, r25
    6dde:	8e 2d       	mov	r24, r14
    6de0:	9f 2d       	mov	r25, r15
    6de2:	c8 d4       	rcall	.+2448   	; 0x7774 <_ZN10SPI_Driver3putEh>
	spi.put((BYTE)(arg >> 8));
    6de4:	8c 81       	ldd	r24, Y+4	; 0x04
    6de6:	9d 81       	ldd	r25, Y+5	; 0x05
    6de8:	ae 81       	ldd	r26, Y+6	; 0x06
    6dea:	bf 81       	ldd	r27, Y+7	; 0x07
    6dec:	69 2f       	mov	r22, r25
    6dee:	7a 2f       	mov	r23, r26
    6df0:	8b 2f       	mov	r24, r27
    6df2:	99 27       	eor	r25, r25
    6df4:	8e 2d       	mov	r24, r14
    6df6:	9f 2d       	mov	r25, r15
    6df8:	bd d4       	rcall	.+2426   	; 0x7774 <_ZN10SPI_Driver3putEh>
	spi.put((BYTE)arg);
    6dfa:	6c 81       	ldd	r22, Y+4	; 0x04
    6dfc:	7d 81       	ldd	r23, Y+5	; 0x05
    6dfe:	8e 81       	ldd	r24, Y+6	; 0x06
    6e00:	9f 81       	ldd	r25, Y+7	; 0x07
    6e02:	8e 2d       	mov	r24, r14
    6e04:	9f 2d       	mov	r25, r15
    6e06:	b6 d4       	rcall	.+2412   	; 0x7774 <_ZN10SPI_Driver3putEh>
	n = 0x01;
    6e08:	81 e0       	ldi	r24, 0x01	; 1
    6e0a:	8a 83       	std	Y+2, r24	; 0x02
	if (cmd == CMD0) n = 0x95;
    6e0c:	8b 81       	ldd	r24, Y+3	; 0x03
    6e0e:	80 34       	cpi	r24, 0x40	; 64
    6e10:	11 f4       	brne	.+4      	; 0x6e16 <_ZN6SDCard8send_cmdEhm+0xde>
    6e12:	85 e9       	ldi	r24, 0x95	; 149
    6e14:	8a 83       	std	Y+2, r24	; 0x02
	if (cmd == CMD8) n = 0x87;
    6e16:	8b 81       	ldd	r24, Y+3	; 0x03
    6e18:	88 34       	cpi	r24, 0x48	; 72
    6e1a:	11 f4       	brne	.+4      	; 0x6e20 <_ZN6SDCard8send_cmdEhm+0xe8>
    6e1c:	87 e8       	ldi	r24, 0x87	; 135
    6e1e:	8a 83       	std	Y+2, r24	; 0x02
	spi.put(n);
    6e20:	6a 81       	ldd	r22, Y+2	; 0x02
    6e22:	8e 2d       	mov	r24, r14
    6e24:	9f 2d       	mov	r25, r15
    6e26:	a6 d4       	rcall	.+2380   	; 0x7774 <_ZN10SPI_Driver3putEh>

	if (cmd == CMD12) spi.get();
    6e28:	8b 81       	ldd	r24, Y+3	; 0x03
    6e2a:	8c 34       	cpi	r24, 0x4C	; 76
    6e2c:	19 f4       	brne	.+6      	; 0x6e34 <_ZN6SDCard8send_cmdEhm+0xfc>
    6e2e:	8e 2d       	mov	r24, r14
    6e30:	9f 2d       	mov	r25, r15
    6e32:	b5 d4       	rcall	.+2410   	; 0x779e <_ZN10SPI_Driver3getEv>
	n = 10;
    6e34:	8a e0       	ldi	r24, 0x0A	; 10
    6e36:	8a 83       	std	Y+2, r24	; 0x02
	do 
	{
		res = spi.get();
    6e38:	81 2f       	mov	r24, r17
    6e3a:	90 2f       	mov	r25, r16
    6e3c:	b0 d4       	rcall	.+2400   	; 0x779e <_ZN10SPI_Driver3getEv>
    6e3e:	89 83       	std	Y+1, r24	; 0x01
	} while ((res & 0x80) && --n);
    6e40:	89 81       	ldd	r24, Y+1	; 0x01
    6e42:	88 23       	and	r24, r24
    6e44:	2c f4       	brge	.+10     	; 0x6e50 <_ZN6SDCard8send_cmdEhm+0x118>
    6e46:	8a 81       	ldd	r24, Y+2	; 0x02
    6e48:	81 50       	subi	r24, 0x01	; 1
    6e4a:	8a 83       	std	Y+2, r24	; 0x02
	if (cmd == CMD8) n = 0x87;
	spi.put(n);

	if (cmd == CMD12) spi.get();
	n = 10;
	do 
    6e4c:	81 11       	cpse	r24, r1
    6e4e:	f4 cf       	rjmp	.-24     	; 0x6e38 <_ZN6SDCard8send_cmdEhm+0x100>
	{
		res = spi.get();
	} while ((res & 0x80) && --n);

	return res;
    6e50:	89 81       	ldd	r24, Y+1	; 0x01
    6e52:	01 c0       	rjmp	.+2      	; 0x6e56 <_ZN6SDCard8send_cmdEhm+0x11e>
	}

	
	if (cmd != CMD0) {
		deselect();
		if (!select()) return 0xFF;
    6e54:	8f ef       	ldi	r24, 0xFF	; 255
	{
		res = spi.get();
	} while ((res & 0x80) && --n);

	return res;
}
    6e56:	27 96       	adiw	r28, 0x07	; 7
    6e58:	cd bf       	out	0x3d, r28	; 61
    6e5a:	de bf       	out	0x3e, r29	; 62
    6e5c:	df 91       	pop	r29
    6e5e:	cf 91       	pop	r28
    6e60:	1f 91       	pop	r17
    6e62:	0f 91       	pop	r16
    6e64:	ff 90       	pop	r15
    6e66:	ef 90       	pop	r14
    6e68:	08 95       	ret

00006e6a <_ZN6SDCard4initEh>:
		TCC1.CTRLA = 0x07; // Prescaler /1024
 }
 DSTATUS SDCard::getStatus() {
	return Stat;
 }
 DSTATUS SDCard::init(BYTE pdrv) {
    6e6a:	cf 92       	push	r12
    6e6c:	df 92       	push	r13
    6e6e:	ef 92       	push	r14
    6e70:	ff 92       	push	r15
    6e72:	0f 93       	push	r16
    6e74:	1f 93       	push	r17
    6e76:	cf 93       	push	r28
    6e78:	df 93       	push	r29
    6e7a:	cd b7       	in	r28, 0x3d	; 61
    6e7c:	de b7       	in	r29, 0x3e	; 62
    6e7e:	28 97       	sbiw	r28, 0x08	; 8
    6e80:	cd bf       	out	0x3d, r28	; 61
    6e82:	de bf       	out	0x3e, r29	; 62
    6e84:	8c 01       	movw	r16, r24
    6e86:	68 87       	std	Y+8, r22	; 0x08
	BYTE n, cmd, ty, ocr[4];

	drvID = pdrv;
    6e88:	88 85       	ldd	r24, Y+8	; 0x08
    6e8a:	f8 01       	movw	r30, r16
    6e8c:	82 83       	std	Z+2, r24	; 0x02
	if (Stat & STA_NODISK) return Stat;
    6e8e:	84 81       	ldd	r24, Z+4	; 0x04
    6e90:	81 ff       	sbrs	r24, 1
    6e92:	02 c0       	rjmp	.+4      	; 0x6e98 <_ZN6SDCard4initEh+0x2e>
    6e94:	84 81       	ldd	r24, Z+4	; 0x04
    6e96:	bc c0       	rjmp	.+376    	; 0x7010 <_ZN6SDCard4initEh+0x1a6>

	spi.clockRate(0x03); // 250 kHz
    6e98:	d0 2e       	mov	r13, r16
    6e9a:	c1 2e       	mov	r12, r17
    6e9c:	63 e0       	ldi	r22, 0x03	; 3
    6e9e:	c8 01       	movw	r24, r16
    6ea0:	55 d4       	rcall	.+2218   	; 0x774c <_ZN10SPI_Driver9clockRateEc>
	deselect();
    6ea2:	80 e1       	ldi	r24, 0x10	; 16
    6ea4:	e0 e8       	ldi	r30, 0x80	; 128
    6ea6:	f6 e0       	ldi	r31, 0x06	; 6
    6ea8:	85 83       	std	Z+5, r24	; 0x05
    6eaa:	c8 01       	movw	r24, r16
    6eac:	78 d4       	rcall	.+2288   	; 0x779e <_ZN10SPI_Driver3getEv>
	for (n = 10; n; n--) spi.get(); //80 clock cycles
    6eae:	8a e0       	ldi	r24, 0x0A	; 10
    6eb0:	8f 83       	std	Y+7, r24	; 0x07
    6eb2:	8f 81       	ldd	r24, Y+7	; 0x07
    6eb4:	88 23       	and	r24, r24
    6eb6:	49 f0       	breq	.+18     	; 0x6eca <_ZN6SDCard4initEh+0x60>
    6eb8:	8d 2d       	mov	r24, r13
    6eba:	9c 2d       	mov	r25, r12
    6ebc:	70 d4       	rcall	.+2272   	; 0x779e <_ZN10SPI_Driver3getEv>
    6ebe:	8f 81       	ldd	r24, Y+7	; 0x07
    6ec0:	81 50       	subi	r24, 0x01	; 1
    6ec2:	8f 83       	std	Y+7, r24	; 0x07
    6ec4:	8f 81       	ldd	r24, Y+7	; 0x07
    6ec6:	81 11       	cpse	r24, r1
    6ec8:	f7 cf       	rjmp	.-18     	; 0x6eb8 <_ZN6SDCard4initEh+0x4e>
	ty = 0;
    6eca:	1d 82       	std	Y+5, r1	; 0x05
	for (n = 16; n; n--) {
    6ecc:	80 e1       	ldi	r24, 0x10	; 16
    6ece:	8f 83       	std	Y+7, r24	; 0x07
    6ed0:	8f 81       	ldd	r24, Y+7	; 0x07
    6ed2:	88 23       	and	r24, r24
    6ed4:	09 f4       	brne	.+2      	; 0x6ed8 <_ZN6SDCard4initEh+0x6e>
    6ed6:	8a c0       	rjmp	.+276    	; 0x6fec <_ZN6SDCard4initEh+0x182>
		if (send_cmd(CMD0, 0) == 1) {
    6ed8:	20 e0       	ldi	r18, 0x00	; 0
    6eda:	30 e0       	ldi	r19, 0x00	; 0
    6edc:	a9 01       	movw	r20, r18
    6ede:	60 e4       	ldi	r22, 0x40	; 64
    6ee0:	c8 01       	movw	r24, r16
    6ee2:	2a df       	rcall	.-428    	; 0x6d38 <_ZN6SDCard8send_cmdEhm>
    6ee4:	81 30       	cpi	r24, 0x01	; 1
    6ee6:	09 f0       	breq	.+2      	; 0x6eea <_ZN6SDCard4initEh+0x80>
    6ee8:	7b c0       	rjmp	.+246    	; 0x6fe0 <_ZN6SDCard4initEh+0x176>
			if (send_cmd(CMD8, 0x1AA) == 1) {
    6eea:	2a ea       	ldi	r18, 0xAA	; 170
    6eec:	31 e0       	ldi	r19, 0x01	; 1
    6eee:	40 e0       	ldi	r20, 0x00	; 0
    6ef0:	50 e0       	ldi	r21, 0x00	; 0
    6ef2:	68 e4       	ldi	r22, 0x48	; 72
    6ef4:	c8 01       	movw	r24, r16
    6ef6:	20 df       	rcall	.-448    	; 0x6d38 <_ZN6SDCard8send_cmdEhm>
    6ef8:	81 30       	cpi	r24, 0x01	; 1
    6efa:	09 f0       	breq	.+2      	; 0x6efe <_ZN6SDCard4initEh+0x94>
    6efc:	4d c0       	rjmp	.+154    	; 0x6f98 <_ZN6SDCard4initEh+0x12e>
				for (n = 0; n<4; n++) ocr[n] = spi.get();
    6efe:	1f 82       	std	Y+7, r1	; 0x07
    6f00:	8f 81       	ldd	r24, Y+7	; 0x07
    6f02:	84 30       	cpi	r24, 0x04	; 4
    6f04:	90 f4       	brcc	.+36     	; 0x6f2a <_ZN6SDCard4initEh+0xc0>
    6f06:	ef 80       	ldd	r14, Y+7	; 0x07
    6f08:	f1 2c       	mov	r15, r1
    6f0a:	8d 2d       	mov	r24, r13
    6f0c:	9c 2d       	mov	r25, r12
    6f0e:	47 d4       	rcall	.+2190   	; 0x779e <_ZN10SPI_Driver3getEv>
    6f10:	e1 e0       	ldi	r30, 0x01	; 1
    6f12:	f0 e0       	ldi	r31, 0x00	; 0
    6f14:	ec 0f       	add	r30, r28
    6f16:	fd 1f       	adc	r31, r29
    6f18:	ee 0d       	add	r30, r14
    6f1a:	ff 1d       	adc	r31, r15
    6f1c:	80 83       	st	Z, r24
    6f1e:	8f 81       	ldd	r24, Y+7	; 0x07
    6f20:	8f 5f       	subi	r24, 0xFF	; 255
    6f22:	8f 83       	std	Y+7, r24	; 0x07
    6f24:	8f 81       	ldd	r24, Y+7	; 0x07
    6f26:	84 30       	cpi	r24, 0x04	; 4
    6f28:	70 f3       	brcs	.-36     	; 0x6f06 <_ZN6SDCard4initEh+0x9c>
				if (ocr[2] == 0x01 && ocr[3] == 0xAA) {
    6f2a:	8b 81       	ldd	r24, Y+3	; 0x03
    6f2c:	81 30       	cpi	r24, 0x01	; 1
    6f2e:	09 f0       	breq	.+2      	; 0x6f32 <_ZN6SDCard4initEh+0xc8>
    6f30:	5d c0       	rjmp	.+186    	; 0x6fec <_ZN6SDCard4initEh+0x182>
    6f32:	8c 81       	ldd	r24, Y+4	; 0x04
    6f34:	8a 3a       	cpi	r24, 0xAA	; 170
    6f36:	09 f0       	breq	.+2      	; 0x6f3a <_ZN6SDCard4initEh+0xd0>
    6f38:	59 c0       	rjmp	.+178    	; 0x6fec <_ZN6SDCard4initEh+0x182>
					while(send_cmd(ACMD41, (DWORD)0x40000000));
    6f3a:	20 e0       	ldi	r18, 0x00	; 0
    6f3c:	30 e0       	ldi	r19, 0x00	; 0
    6f3e:	40 e0       	ldi	r20, 0x00	; 0
    6f40:	50 e4       	ldi	r21, 0x40	; 64
    6f42:	69 ee       	ldi	r22, 0xE9	; 233
    6f44:	c8 01       	movw	r24, r16
    6f46:	f8 de       	rcall	.-528    	; 0x6d38 <_ZN6SDCard8send_cmdEhm>
    6f48:	81 11       	cpse	r24, r1
    6f4a:	f7 cf       	rjmp	.-18     	; 0x6f3a <_ZN6SDCard4initEh+0xd0>
					if (send_cmd(CMD58, 0) == 0) {
    6f4c:	20 e0       	ldi	r18, 0x00	; 0
    6f4e:	30 e0       	ldi	r19, 0x00	; 0
    6f50:	a9 01       	movw	r20, r18
    6f52:	6a e7       	ldi	r22, 0x7A	; 122
    6f54:	c8 01       	movw	r24, r16
    6f56:	f0 de       	rcall	.-544    	; 0x6d38 <_ZN6SDCard8send_cmdEhm>
    6f58:	81 11       	cpse	r24, r1
    6f5a:	48 c0       	rjmp	.+144    	; 0x6fec <_ZN6SDCard4initEh+0x182>
						for (n=0; n<4; n++) ocr[n] = spi.get();
    6f5c:	1f 82       	std	Y+7, r1	; 0x07
    6f5e:	8f 81       	ldd	r24, Y+7	; 0x07
    6f60:	84 30       	cpi	r24, 0x04	; 4
    6f62:	90 f4       	brcc	.+36     	; 0x6f88 <_ZN6SDCard4initEh+0x11e>
    6f64:	ef 80       	ldd	r14, Y+7	; 0x07
    6f66:	f1 2c       	mov	r15, r1
    6f68:	8d 2d       	mov	r24, r13
    6f6a:	9c 2d       	mov	r25, r12
    6f6c:	18 d4       	rcall	.+2096   	; 0x779e <_ZN10SPI_Driver3getEv>
    6f6e:	e1 e0       	ldi	r30, 0x01	; 1
    6f70:	f0 e0       	ldi	r31, 0x00	; 0
    6f72:	ec 0f       	add	r30, r28
    6f74:	fd 1f       	adc	r31, r29
    6f76:	ee 0d       	add	r30, r14
    6f78:	ff 1d       	adc	r31, r15
    6f7a:	80 83       	st	Z, r24
    6f7c:	8f 81       	ldd	r24, Y+7	; 0x07
    6f7e:	8f 5f       	subi	r24, 0xFF	; 255
    6f80:	8f 83       	std	Y+7, r24	; 0x07
    6f82:	8f 81       	ldd	r24, Y+7	; 0x07
    6f84:	84 30       	cpi	r24, 0x04	; 4
    6f86:	70 f3       	brcs	.-36     	; 0x6f64 <_ZN6SDCard4initEh+0xfa>
						ty = (ocr[0] & 0x40) ? CT_SD2 | CT_BLOCK : CT_SD2;
    6f88:	89 81       	ldd	r24, Y+1	; 0x01
    6f8a:	86 ff       	sbrs	r24, 6
    6f8c:	02 c0       	rjmp	.+4      	; 0x6f92 <_ZN6SDCard4initEh+0x128>
    6f8e:	8c e0       	ldi	r24, 0x0C	; 12
    6f90:	01 c0       	rjmp	.+2      	; 0x6f94 <_ZN6SDCard4initEh+0x12a>
    6f92:	84 e0       	ldi	r24, 0x04	; 4
    6f94:	8d 83       	std	Y+5, r24	; 0x05
    6f96:	2a c0       	rjmp	.+84     	; 0x6fec <_ZN6SDCard4initEh+0x182>
					}
				}
			} else {
				if (send_cmd(ACMD41, 0) <= 1) {
    6f98:	20 e0       	ldi	r18, 0x00	; 0
    6f9a:	30 e0       	ldi	r19, 0x00	; 0
    6f9c:	a9 01       	movw	r20, r18
    6f9e:	69 ee       	ldi	r22, 0xE9	; 233
    6fa0:	c8 01       	movw	r24, r16
    6fa2:	ca de       	rcall	.-620    	; 0x6d38 <_ZN6SDCard8send_cmdEhm>
    6fa4:	82 30       	cpi	r24, 0x02	; 2
    6fa6:	28 f4       	brcc	.+10     	; 0x6fb2 <_ZN6SDCard4initEh+0x148>
					ty = CT_SD1; cmd = ACMD41;
    6fa8:	82 e0       	ldi	r24, 0x02	; 2
    6faa:	8d 83       	std	Y+5, r24	; 0x05
    6fac:	89 ee       	ldi	r24, 0xE9	; 233
    6fae:	8e 83       	std	Y+6, r24	; 0x06
    6fb0:	04 c0       	rjmp	.+8      	; 0x6fba <_ZN6SDCard4initEh+0x150>
				} else {
					ty = CT_MMC; cmd = CMD1;
    6fb2:	81 e0       	ldi	r24, 0x01	; 1
    6fb4:	8d 83       	std	Y+5, r24	; 0x05
    6fb6:	81 e4       	ldi	r24, 0x41	; 65
    6fb8:	8e 83       	std	Y+6, r24	; 0x06
				}
				while (send_cmd(cmd, 0));
    6fba:	6e 81       	ldd	r22, Y+6	; 0x06
    6fbc:	20 e0       	ldi	r18, 0x00	; 0
    6fbe:	30 e0       	ldi	r19, 0x00	; 0
    6fc0:	a9 01       	movw	r20, r18
    6fc2:	c8 01       	movw	r24, r16
    6fc4:	b9 de       	rcall	.-654    	; 0x6d38 <_ZN6SDCard8send_cmdEhm>
    6fc6:	81 11       	cpse	r24, r1
    6fc8:	f8 cf       	rjmp	.-16     	; 0x6fba <_ZN6SDCard4initEh+0x150>
				if (send_cmd(CMD16, (DWORD)512) != 0) ty = 0;
    6fca:	20 e0       	ldi	r18, 0x00	; 0
    6fcc:	32 e0       	ldi	r19, 0x02	; 2
    6fce:	40 e0       	ldi	r20, 0x00	; 0
    6fd0:	50 e0       	ldi	r21, 0x00	; 0
    6fd2:	60 e5       	ldi	r22, 0x50	; 80
    6fd4:	c8 01       	movw	r24, r16
    6fd6:	b0 de       	rcall	.-672    	; 0x6d38 <_ZN6SDCard8send_cmdEhm>
    6fd8:	88 23       	and	r24, r24
    6fda:	41 f0       	breq	.+16     	; 0x6fec <_ZN6SDCard4initEh+0x182>
    6fdc:	1d 82       	std	Y+5, r1	; 0x05
    6fde:	06 c0       	rjmp	.+12     	; 0x6fec <_ZN6SDCard4initEh+0x182>

	spi.clockRate(0x03); // 250 kHz
	deselect();
	for (n = 10; n; n--) spi.get(); //80 clock cycles
	ty = 0;
	for (n = 16; n; n--) {
    6fe0:	2f 81       	ldd	r18, Y+7	; 0x07
    6fe2:	21 50       	subi	r18, 0x01	; 1
    6fe4:	2f 83       	std	Y+7, r18	; 0x07
    6fe6:	2f 81       	ldd	r18, Y+7	; 0x07
    6fe8:	21 11       	cpse	r18, r1
    6fea:	76 cf       	rjmp	.-276    	; 0x6ed8 <_ZN6SDCard4initEh+0x6e>
			}
			break;
		}
		
	}
	CardType = ty;
    6fec:	8d 81       	ldd	r24, Y+5	; 0x05
    6fee:	f8 01       	movw	r30, r16
    6ff0:	83 83       	std	Z+3, r24	; 0x03
	deselect();
    6ff2:	80 e1       	ldi	r24, 0x10	; 16
    6ff4:	e0 e8       	ldi	r30, 0x80	; 128
    6ff6:	f6 e0       	ldi	r31, 0x06	; 6
    6ff8:	85 83       	std	Z+5, r24	; 0x05
    6ffa:	c8 01       	movw	r24, r16
    6ffc:	d0 d3       	rcall	.+1952   	; 0x779e <_ZN10SPI_Driver3getEv>

	if (ty) {
    6ffe:	8d 81       	ldd	r24, Y+5	; 0x05
    7000:	88 23       	and	r24, r24
    7002:	21 f0       	breq	.+8      	; 0x700c <_ZN6SDCard4initEh+0x1a2>
		Stat &= ~STA_NOINIT;
    7004:	f8 01       	movw	r30, r16
    7006:	84 81       	ldd	r24, Z+4	; 0x04
    7008:	8e 7f       	andi	r24, 0xFE	; 254
    700a:	84 83       	std	Z+4, r24	; 0x04
		//spi.clockRate(0x81); //4MHz
	}
	return Stat;
    700c:	f8 01       	movw	r30, r16
    700e:	84 81       	ldd	r24, Z+4	; 0x04


}
    7010:	28 96       	adiw	r28, 0x08	; 8
    7012:	cd bf       	out	0x3d, r28	; 61
    7014:	de bf       	out	0x3e, r29	; 62
    7016:	df 91       	pop	r29
    7018:	cf 91       	pop	r28
    701a:	1f 91       	pop	r17
    701c:	0f 91       	pop	r16
    701e:	ff 90       	pop	r15
    7020:	ef 90       	pop	r14
    7022:	df 90       	pop	r13
    7024:	cf 90       	pop	r12
    7026:	08 95       	ret

00007028 <disk_initialize>:
 #include "SDCard.h"

 DWORD get_fattime() {
	return 10200930;
 }
 DSTATUS disk_initialize (BYTE pdrv) {
    7028:	cf 93       	push	r28
    702a:	df 93       	push	r29
    702c:	1f 92       	push	r1
    702e:	cd b7       	in	r28, 0x3d	; 61
    7030:	de b7       	in	r29, 0x3e	; 62
    7032:	89 83       	std	Y+1, r24	; 0x01
	return sdcard.init(pdrv);
    7034:	69 81       	ldd	r22, Y+1	; 0x01
    7036:	8f e8       	ldi	r24, 0x8F	; 143
    7038:	91 e2       	ldi	r25, 0x21	; 33
    703a:	17 df       	rcall	.-466    	; 0x6e6a <_ZN6SDCard4initEh>
 }
    703c:	0f 90       	pop	r0
    703e:	df 91       	pop	r29
    7040:	cf 91       	pop	r28
    7042:	08 95       	ret

00007044 <_ZN6SDCard4readEPVhmj>:
	}
	return Stat;


}
 DRESULT SDCard::read(BYTE* buff, DWORD sector, UINT count) {
    7044:	cf 92       	push	r12
    7046:	df 92       	push	r13
    7048:	ef 92       	push	r14
    704a:	ff 92       	push	r15
    704c:	0f 93       	push	r16
    704e:	1f 93       	push	r17
    7050:	cf 93       	push	r28
    7052:	df 93       	push	r29
    7054:	00 d0       	rcall	.+0      	; 0x7056 <_ZN6SDCard4readEPVhmj+0x12>
    7056:	00 d0       	rcall	.+0      	; 0x7058 <_ZN6SDCard4readEPVhmj+0x14>
    7058:	cd b7       	in	r28, 0x3d	; 61
    705a:	de b7       	in	r29, 0x3e	; 62
    705c:	6c 01       	movw	r12, r24
    705e:	7b 01       	movw	r14, r22
    7060:	29 83       	std	Y+1, r18	; 0x01
    7062:	3a 83       	std	Y+2, r19	; 0x02
    7064:	4b 83       	std	Y+3, r20	; 0x03
    7066:	5c 83       	std	Y+4, r21	; 0x04
    7068:	0d 83       	std	Y+5, r16	; 0x05
    706a:	1e 83       	std	Y+6, r17	; 0x06
	if (Stat & STA_NOINIT) return RES_NOTRDY;
    706c:	fc 01       	movw	r30, r24
    706e:	84 81       	ldd	r24, Z+4	; 0x04
    7070:	80 fd       	sbrc	r24, 0
    7072:	57 c0       	rjmp	.+174    	; 0x7122 <_ZN6SDCard4readEPVhmj+0xde>

	if (!(CardType & CT_BLOCK)) sector *= 512;
    7074:	83 81       	ldd	r24, Z+3	; 0x03
    7076:	83 fd       	sbrc	r24, 3
    7078:	11 c0       	rjmp	.+34     	; 0x709c <_ZN6SDCard4readEPVhmj+0x58>
    707a:	89 81       	ldd	r24, Y+1	; 0x01
    707c:	9a 81       	ldd	r25, Y+2	; 0x02
    707e:	ab 81       	ldd	r26, Y+3	; 0x03
    7080:	bc 81       	ldd	r27, Y+4	; 0x04
    7082:	07 2e       	mov	r0, r23
    7084:	79 e0       	ldi	r23, 0x09	; 9
    7086:	88 0f       	add	r24, r24
    7088:	99 1f       	adc	r25, r25
    708a:	aa 1f       	adc	r26, r26
    708c:	bb 1f       	adc	r27, r27
    708e:	7a 95       	dec	r23
    7090:	d1 f7       	brne	.-12     	; 0x7086 <_ZN6SDCard4readEPVhmj+0x42>
    7092:	70 2d       	mov	r23, r0
    7094:	89 83       	std	Y+1, r24	; 0x01
    7096:	9a 83       	std	Y+2, r25	; 0x02
    7098:	ab 83       	std	Y+3, r26	; 0x03
    709a:	bc 83       	std	Y+4, r27	; 0x04

	if (count == 1) {
    709c:	8d 81       	ldd	r24, Y+5	; 0x05
    709e:	9e 81       	ldd	r25, Y+6	; 0x06
    70a0:	01 97       	sbiw	r24, 0x01	; 1
    70a2:	99 f4       	brne	.+38     	; 0x70ca <_ZN6SDCard4readEPVhmj+0x86>
		if ((send_cmd(CMD17, sector) == 0) && rcv_dataBlock(buff, 512)) count = 0;
    70a4:	29 81       	ldd	r18, Y+1	; 0x01
    70a6:	3a 81       	ldd	r19, Y+2	; 0x02
    70a8:	4b 81       	ldd	r20, Y+3	; 0x03
    70aa:	5c 81       	ldd	r21, Y+4	; 0x04
    70ac:	61 e5       	ldi	r22, 0x51	; 81
    70ae:	c6 01       	movw	r24, r12
    70b0:	43 de       	rcall	.-890    	; 0x6d38 <_ZN6SDCard8send_cmdEhm>
    70b2:	81 11       	cpse	r24, r1
    70b4:	29 c0       	rjmp	.+82     	; 0x7108 <_ZN6SDCard4readEPVhmj+0xc4>
    70b6:	40 e0       	ldi	r20, 0x00	; 0
    70b8:	52 e0       	ldi	r21, 0x02	; 2
    70ba:	b7 01       	movw	r22, r14
    70bc:	c6 01       	movw	r24, r12
    70be:	4a dd       	rcall	.-1388   	; 0x6b54 <_ZN6SDCard13rcv_dataBlockEPVhj>
    70c0:	89 2b       	or	r24, r25
    70c2:	11 f1       	breq	.+68     	; 0x7108 <_ZN6SDCard4readEPVhmj+0xc4>
    70c4:	1d 82       	std	Y+5, r1	; 0x05
    70c6:	1e 82       	std	Y+6, r1	; 0x06
    70c8:	1f c0       	rjmp	.+62     	; 0x7108 <_ZN6SDCard4readEPVhmj+0xc4>
	}
	else {
		if (send_cmd(CMD18, sector) == 0) {
    70ca:	29 81       	ldd	r18, Y+1	; 0x01
    70cc:	3a 81       	ldd	r19, Y+2	; 0x02
    70ce:	4b 81       	ldd	r20, Y+3	; 0x03
    70d0:	5c 81       	ldd	r21, Y+4	; 0x04
    70d2:	62 e5       	ldi	r22, 0x52	; 82
    70d4:	c6 01       	movw	r24, r12
    70d6:	30 de       	rcall	.-928    	; 0x6d38 <_ZN6SDCard8send_cmdEhm>
    70d8:	81 11       	cpse	r24, r1
    70da:	16 c0       	rjmp	.+44     	; 0x7108 <_ZN6SDCard4readEPVhmj+0xc4>
			do {
				if (!rcv_dataBlock(buff, 512)) break;
    70dc:	40 e0       	ldi	r20, 0x00	; 0
    70de:	52 e0       	ldi	r21, 0x02	; 2
    70e0:	b7 01       	movw	r22, r14
    70e2:	c6 01       	movw	r24, r12
    70e4:	37 dd       	rcall	.-1426   	; 0x6b54 <_ZN6SDCard13rcv_dataBlockEPVhj>
    70e6:	89 2b       	or	r24, r25
    70e8:	49 f0       	breq	.+18     	; 0x70fc <_ZN6SDCard4readEPVhmj+0xb8>
				buff += 512;
    70ea:	fe ef       	ldi	r31, 0xFE	; 254
    70ec:	ff 1a       	sub	r15, r31
	if (count == 1) {
		if ((send_cmd(CMD17, sector) == 0) && rcv_dataBlock(buff, 512)) count = 0;
	}
	else {
		if (send_cmd(CMD18, sector) == 0) {
			do {
    70ee:	8d 81       	ldd	r24, Y+5	; 0x05
    70f0:	9e 81       	ldd	r25, Y+6	; 0x06
    70f2:	01 97       	sbiw	r24, 0x01	; 1
    70f4:	8d 83       	std	Y+5, r24	; 0x05
    70f6:	9e 83       	std	Y+6, r25	; 0x06
    70f8:	89 2b       	or	r24, r25
    70fa:	81 f7       	brne	.-32     	; 0x70dc <_ZN6SDCard4readEPVhmj+0x98>
				if (!rcv_dataBlock(buff, 512)) break;
				buff += 512;
			} while (--count);
			send_cmd(CMD12, 0);
    70fc:	20 e0       	ldi	r18, 0x00	; 0
    70fe:	30 e0       	ldi	r19, 0x00	; 0
    7100:	a9 01       	movw	r20, r18
    7102:	6c e4       	ldi	r22, 0x4C	; 76
    7104:	c6 01       	movw	r24, r12
    7106:	18 de       	rcall	.-976    	; 0x6d38 <_ZN6SDCard8send_cmdEhm>
		}
	}
	deselect();
    7108:	80 e1       	ldi	r24, 0x10	; 16
    710a:	e0 e8       	ldi	r30, 0x80	; 128
    710c:	f6 e0       	ldi	r31, 0x06	; 6
    710e:	85 83       	std	Z+5, r24	; 0x05
    7110:	c6 01       	movw	r24, r12
    7112:	45 d3       	rcall	.+1674   	; 0x779e <_ZN10SPI_Driver3getEv>
	return count ? RES_ERROR : RES_OK;
    7114:	2d 81       	ldd	r18, Y+5	; 0x05
    7116:	3e 81       	ldd	r19, Y+6	; 0x06
    7118:	81 e0       	ldi	r24, 0x01	; 1
    711a:	23 2b       	or	r18, r19
    711c:	19 f4       	brne	.+6      	; 0x7124 <_ZN6SDCard4readEPVhmj+0xe0>
    711e:	80 e0       	ldi	r24, 0x00	; 0
    7120:	01 c0       	rjmp	.+2      	; 0x7124 <_ZN6SDCard4readEPVhmj+0xe0>
	return Stat;


}
 DRESULT SDCard::read(BYTE* buff, DWORD sector, UINT count) {
	if (Stat & STA_NOINIT) return RES_NOTRDY;
    7122:	83 e0       	ldi	r24, 0x03	; 3
			send_cmd(CMD12, 0);
		}
	}
	deselect();
	return count ? RES_ERROR : RES_OK;
 }
    7124:	26 96       	adiw	r28, 0x06	; 6
    7126:	cd bf       	out	0x3d, r28	; 61
    7128:	de bf       	out	0x3e, r29	; 62
    712a:	df 91       	pop	r29
    712c:	cf 91       	pop	r28
    712e:	1f 91       	pop	r17
    7130:	0f 91       	pop	r16
    7132:	ff 90       	pop	r15
    7134:	ef 90       	pop	r14
    7136:	df 90       	pop	r13
    7138:	cf 90       	pop	r12
    713a:	08 95       	ret

0000713c <disk_read>:
 DSTATUS disk_status (BYTE pdrv){
	if (sdcard.IDMatch(pdrv))
		return sdcard.getStatus();
	return STA_NOINIT;
 }
 DRESULT disk_read (BYTE pdrv, BYTE* buff, DWORD sector, UINT count){
    713c:	0f 93       	push	r16
    713e:	1f 93       	push	r17
    7140:	cf 93       	push	r28
    7142:	df 93       	push	r29
    7144:	cd b7       	in	r28, 0x3d	; 61
    7146:	de b7       	in	r29, 0x3e	; 62
    7148:	27 97       	sbiw	r28, 0x07	; 7
    714a:	cd bf       	out	0x3d, r28	; 61
    714c:	de bf       	out	0x3e, r29	; 62
    714e:	89 83       	std	Y+1, r24	; 0x01
    7150:	2a 83       	std	Y+2, r18	; 0x02
    7152:	3b 83       	std	Y+3, r19	; 0x03
    7154:	4c 83       	std	Y+4, r20	; 0x04
    7156:	5d 83       	std	Y+5, r21	; 0x05
    7158:	0e 83       	std	Y+6, r16	; 0x06
    715a:	1f 83       	std	Y+7, r17	; 0x07
	if (!sdcard.IDMatch(pdrv) || !count) return RES_PARERR;
    715c:	89 81       	ldd	r24, Y+1	; 0x01
 DRESULT disk_ioctl (BYTE pdrv, BYTE cmd, void* buff){
	if (!sdcard.IDMatch(pdrv)) return RES_PARERR;
	return sdcard.IOctl(cmd, buff);
 }

 bool SDCard::IDMatch(BYTE pdrv) {return pdrv == drvID;}
    715e:	90 91 91 21 	lds	r25, 0x2191
	if (sdcard.IDMatch(pdrv))
		return sdcard.getStatus();
	return STA_NOINIT;
 }
 DRESULT disk_read (BYTE pdrv, BYTE* buff, DWORD sector, UINT count){
	if (!sdcard.IDMatch(pdrv) || !count) return RES_PARERR;
    7162:	98 13       	cpse	r25, r24
    7164:	0e c0       	rjmp	.+28     	; 0x7182 <disk_read+0x46>
    7166:	8e 81       	ldd	r24, Y+6	; 0x06
    7168:	9f 81       	ldd	r25, Y+7	; 0x07
    716a:	89 2b       	or	r24, r25
    716c:	61 f0       	breq	.+24     	; 0x7186 <disk_read+0x4a>
	return sdcard.read(buff, sector, count);
    716e:	0e 81       	ldd	r16, Y+6	; 0x06
    7170:	1f 81       	ldd	r17, Y+7	; 0x07
    7172:	2a 81       	ldd	r18, Y+2	; 0x02
    7174:	3b 81       	ldd	r19, Y+3	; 0x03
    7176:	4c 81       	ldd	r20, Y+4	; 0x04
    7178:	5d 81       	ldd	r21, Y+5	; 0x05
    717a:	8f e8       	ldi	r24, 0x8F	; 143
    717c:	91 e2       	ldi	r25, 0x21	; 33
    717e:	62 df       	rcall	.-316    	; 0x7044 <_ZN6SDCard4readEPVhmj>
    7180:	03 c0       	rjmp	.+6      	; 0x7188 <disk_read+0x4c>
	if (sdcard.IDMatch(pdrv))
		return sdcard.getStatus();
	return STA_NOINIT;
 }
 DRESULT disk_read (BYTE pdrv, BYTE* buff, DWORD sector, UINT count){
	if (!sdcard.IDMatch(pdrv) || !count) return RES_PARERR;
    7182:	84 e0       	ldi	r24, 0x04	; 4
    7184:	01 c0       	rjmp	.+2      	; 0x7188 <disk_read+0x4c>
    7186:	84 e0       	ldi	r24, 0x04	; 4
	return sdcard.read(buff, sector, count);
 }
    7188:	27 96       	adiw	r28, 0x07	; 7
    718a:	cd bf       	out	0x3d, r28	; 61
    718c:	de bf       	out	0x3e, r29	; 62
    718e:	df 91       	pop	r29
    7190:	cf 91       	pop	r28
    7192:	1f 91       	pop	r17
    7194:	0f 91       	pop	r16
    7196:	08 95       	ret

00007198 <_ZN6SDCard5writeEPVKhmj>:
	}
	deselect();
	return count ? RES_ERROR : RES_OK;
 }
 #if _FS_READONLY == 0
 DRESULT SDCard::write(const BYTE* buff, DWORD sector, UINT count) {
    7198:	cf 92       	push	r12
    719a:	df 92       	push	r13
    719c:	ef 92       	push	r14
    719e:	ff 92       	push	r15
    71a0:	0f 93       	push	r16
    71a2:	1f 93       	push	r17
    71a4:	cf 93       	push	r28
    71a6:	df 93       	push	r29
    71a8:	00 d0       	rcall	.+0      	; 0x71aa <_ZN6SDCard5writeEPVKhmj+0x12>
    71aa:	00 d0       	rcall	.+0      	; 0x71ac <_ZN6SDCard5writeEPVKhmj+0x14>
    71ac:	cd b7       	in	r28, 0x3d	; 61
    71ae:	de b7       	in	r29, 0x3e	; 62
    71b0:	7c 01       	movw	r14, r24
    71b2:	6b 01       	movw	r12, r22
    71b4:	29 83       	std	Y+1, r18	; 0x01
    71b6:	3a 83       	std	Y+2, r19	; 0x02
    71b8:	4b 83       	std	Y+3, r20	; 0x03
    71ba:	5c 83       	std	Y+4, r21	; 0x04
    71bc:	0d 83       	std	Y+5, r16	; 0x05
    71be:	1e 83       	std	Y+6, r17	; 0x06
	if (Stat & STA_NOINIT) return RES_NOTRDY;
    71c0:	fc 01       	movw	r30, r24
    71c2:	84 81       	ldd	r24, Z+4	; 0x04
    71c4:	80 fd       	sbrc	r24, 0
    71c6:	68 c0       	rjmp	.+208    	; 0x7298 <_ZN6SDCard5writeEPVKhmj+0x100>
	if (Stat & STA_PROTECT) return RES_WRPRT;
    71c8:	84 81       	ldd	r24, Z+4	; 0x04
    71ca:	82 fd       	sbrc	r24, 2
    71cc:	67 c0       	rjmp	.+206    	; 0x729c <_ZN6SDCard5writeEPVKhmj+0x104>

	if (!(CardType & CT_BLOCK)) sector *= 512;
    71ce:	83 81       	ldd	r24, Z+3	; 0x03
    71d0:	83 fd       	sbrc	r24, 3
    71d2:	11 c0       	rjmp	.+34     	; 0x71f6 <_ZN6SDCard5writeEPVKhmj+0x5e>
    71d4:	89 81       	ldd	r24, Y+1	; 0x01
    71d6:	9a 81       	ldd	r25, Y+2	; 0x02
    71d8:	ab 81       	ldd	r26, Y+3	; 0x03
    71da:	bc 81       	ldd	r27, Y+4	; 0x04
    71dc:	07 2e       	mov	r0, r23
    71de:	79 e0       	ldi	r23, 0x09	; 9
    71e0:	88 0f       	add	r24, r24
    71e2:	99 1f       	adc	r25, r25
    71e4:	aa 1f       	adc	r26, r26
    71e6:	bb 1f       	adc	r27, r27
    71e8:	7a 95       	dec	r23
    71ea:	d1 f7       	brne	.-12     	; 0x71e0 <_ZN6SDCard5writeEPVKhmj+0x48>
    71ec:	70 2d       	mov	r23, r0
    71ee:	89 83       	std	Y+1, r24	; 0x01
    71f0:	9a 83       	std	Y+2, r25	; 0x02
    71f2:	ab 83       	std	Y+3, r26	; 0x03
    71f4:	bc 83       	std	Y+4, r27	; 0x04

	if (count == 1) {
    71f6:	8d 81       	ldd	r24, Y+5	; 0x05
    71f8:	9e 81       	ldd	r25, Y+6	; 0x06
    71fa:	01 97       	sbiw	r24, 0x01	; 1
    71fc:	91 f4       	brne	.+36     	; 0x7222 <_ZN6SDCard5writeEPVKhmj+0x8a>
		if ((send_cmd(CMD24, sector) == 0) && send_dataBlock(buff, 0xFE)) count = 0;
    71fe:	29 81       	ldd	r18, Y+1	; 0x01
    7200:	3a 81       	ldd	r19, Y+2	; 0x02
    7202:	4b 81       	ldd	r20, Y+3	; 0x03
    7204:	5c 81       	ldd	r21, Y+4	; 0x04
    7206:	68 e5       	ldi	r22, 0x58	; 88
    7208:	c7 01       	movw	r24, r14
    720a:	96 dd       	rcall	.-1236   	; 0x6d38 <_ZN6SDCard8send_cmdEhm>
    720c:	81 11       	cpse	r24, r1
    720e:	37 c0       	rjmp	.+110    	; 0x727e <_ZN6SDCard5writeEPVKhmj+0xe6>
    7210:	4e ef       	ldi	r20, 0xFE	; 254
    7212:	b6 01       	movw	r22, r12
    7214:	c7 01       	movw	r24, r14
    7216:	1a dd       	rcall	.-1484   	; 0x6c4c <_ZN6SDCard14send_dataBlockEPVKhh>
    7218:	89 2b       	or	r24, r25
    721a:	89 f1       	breq	.+98     	; 0x727e <_ZN6SDCard5writeEPVKhmj+0xe6>
    721c:	1d 82       	std	Y+5, r1	; 0x05
    721e:	1e 82       	std	Y+6, r1	; 0x06
    7220:	2e c0       	rjmp	.+92     	; 0x727e <_ZN6SDCard5writeEPVKhmj+0xe6>
	} else {
		if (CardType & CT_SDC) send_cmd(ACMD23, count);
    7222:	f7 01       	movw	r30, r14
    7224:	83 81       	ldd	r24, Z+3	; 0x03
    7226:	86 70       	andi	r24, 0x06	; 6
    7228:	39 f0       	breq	.+14     	; 0x7238 <_ZN6SDCard5writeEPVKhmj+0xa0>
    722a:	2d 81       	ldd	r18, Y+5	; 0x05
    722c:	3e 81       	ldd	r19, Y+6	; 0x06
    722e:	40 e0       	ldi	r20, 0x00	; 0
    7230:	50 e0       	ldi	r21, 0x00	; 0
    7232:	67 ed       	ldi	r22, 0xD7	; 215
    7234:	c7 01       	movw	r24, r14
    7236:	80 dd       	rcall	.-1280   	; 0x6d38 <_ZN6SDCard8send_cmdEhm>
		if (send_cmd(CMD25, sector) == 0) {
    7238:	29 81       	ldd	r18, Y+1	; 0x01
    723a:	3a 81       	ldd	r19, Y+2	; 0x02
    723c:	4b 81       	ldd	r20, Y+3	; 0x03
    723e:	5c 81       	ldd	r21, Y+4	; 0x04
    7240:	69 e5       	ldi	r22, 0x59	; 89
    7242:	c7 01       	movw	r24, r14
    7244:	79 dd       	rcall	.-1294   	; 0x6d38 <_ZN6SDCard8send_cmdEhm>
    7246:	81 11       	cpse	r24, r1
    7248:	1a c0       	rjmp	.+52     	; 0x727e <_ZN6SDCard5writeEPVKhmj+0xe6>
			do {
				if (!send_dataBlock(buff, 0xFC)) break;
    724a:	4c ef       	ldi	r20, 0xFC	; 252
    724c:	b6 01       	movw	r22, r12
    724e:	c7 01       	movw	r24, r14
    7250:	fd dc       	rcall	.-1542   	; 0x6c4c <_ZN6SDCard14send_dataBlockEPVKhh>
    7252:	89 2b       	or	r24, r25
    7254:	49 f0       	breq	.+18     	; 0x7268 <_ZN6SDCard5writeEPVKhmj+0xd0>
				buff += 512;
    7256:	fe ef       	ldi	r31, 0xFE	; 254
    7258:	df 1a       	sub	r13, r31
	if (count == 1) {
		if ((send_cmd(CMD24, sector) == 0) && send_dataBlock(buff, 0xFE)) count = 0;
	} else {
		if (CardType & CT_SDC) send_cmd(ACMD23, count);
		if (send_cmd(CMD25, sector) == 0) {
			do {
    725a:	8d 81       	ldd	r24, Y+5	; 0x05
    725c:	9e 81       	ldd	r25, Y+6	; 0x06
    725e:	01 97       	sbiw	r24, 0x01	; 1
    7260:	8d 83       	std	Y+5, r24	; 0x05
    7262:	9e 83       	std	Y+6, r25	; 0x06
    7264:	89 2b       	or	r24, r25
    7266:	89 f7       	brne	.-30     	; 0x724a <_ZN6SDCard5writeEPVKhmj+0xb2>
				if (!send_dataBlock(buff, 0xFC)) break;
				buff += 512;
			} while (--count);
			if (!send_dataBlock(0, 0xFD)) count = 1;
    7268:	4d ef       	ldi	r20, 0xFD	; 253
    726a:	60 e0       	ldi	r22, 0x00	; 0
    726c:	70 e0       	ldi	r23, 0x00	; 0
    726e:	c7 01       	movw	r24, r14
    7270:	ed dc       	rcall	.-1574   	; 0x6c4c <_ZN6SDCard14send_dataBlockEPVKhh>
    7272:	89 2b       	or	r24, r25
    7274:	21 f4       	brne	.+8      	; 0x727e <_ZN6SDCard5writeEPVKhmj+0xe6>
    7276:	81 e0       	ldi	r24, 0x01	; 1
    7278:	90 e0       	ldi	r25, 0x00	; 0
    727a:	8d 83       	std	Y+5, r24	; 0x05
    727c:	9e 83       	std	Y+6, r25	; 0x06
		}
	}

	deselect();
    727e:	80 e1       	ldi	r24, 0x10	; 16
    7280:	e0 e8       	ldi	r30, 0x80	; 128
    7282:	f6 e0       	ldi	r31, 0x06	; 6
    7284:	85 83       	std	Z+5, r24	; 0x05
    7286:	c7 01       	movw	r24, r14
    7288:	8a d2       	rcall	.+1300   	; 0x779e <_ZN10SPI_Driver3getEv>
	return count ? RES_ERROR:RES_OK;
    728a:	2d 81       	ldd	r18, Y+5	; 0x05
    728c:	3e 81       	ldd	r19, Y+6	; 0x06
    728e:	81 e0       	ldi	r24, 0x01	; 1
    7290:	23 2b       	or	r18, r19
    7292:	29 f4       	brne	.+10     	; 0x729e <_ZN6SDCard5writeEPVKhmj+0x106>
    7294:	80 e0       	ldi	r24, 0x00	; 0
    7296:	03 c0       	rjmp	.+6      	; 0x729e <_ZN6SDCard5writeEPVKhmj+0x106>
	deselect();
	return count ? RES_ERROR : RES_OK;
 }
 #if _FS_READONLY == 0
 DRESULT SDCard::write(const BYTE* buff, DWORD sector, UINT count) {
	if (Stat & STA_NOINIT) return RES_NOTRDY;
    7298:	83 e0       	ldi	r24, 0x03	; 3
    729a:	01 c0       	rjmp	.+2      	; 0x729e <_ZN6SDCard5writeEPVKhmj+0x106>
	if (Stat & STA_PROTECT) return RES_WRPRT;
    729c:	82 e0       	ldi	r24, 0x02	; 2
		}
	}

	deselect();
	return count ? RES_ERROR:RES_OK;
 }
    729e:	26 96       	adiw	r28, 0x06	; 6
    72a0:	cd bf       	out	0x3d, r28	; 61
    72a2:	de bf       	out	0x3e, r29	; 62
    72a4:	df 91       	pop	r29
    72a6:	cf 91       	pop	r28
    72a8:	1f 91       	pop	r17
    72aa:	0f 91       	pop	r16
    72ac:	ff 90       	pop	r15
    72ae:	ef 90       	pop	r14
    72b0:	df 90       	pop	r13
    72b2:	cf 90       	pop	r12
    72b4:	08 95       	ret

000072b6 <disk_write>:
 }
 DRESULT disk_read (BYTE pdrv, BYTE* buff, DWORD sector, UINT count){
	if (!sdcard.IDMatch(pdrv) || !count) return RES_PARERR;
	return sdcard.read(buff, sector, count);
 }
 DRESULT disk_write (BYTE pdrv, const BYTE* buff, DWORD sector, UINT count){
    72b6:	0f 93       	push	r16
    72b8:	1f 93       	push	r17
    72ba:	cf 93       	push	r28
    72bc:	df 93       	push	r29
    72be:	cd b7       	in	r28, 0x3d	; 61
    72c0:	de b7       	in	r29, 0x3e	; 62
    72c2:	27 97       	sbiw	r28, 0x07	; 7
    72c4:	cd bf       	out	0x3d, r28	; 61
    72c6:	de bf       	out	0x3e, r29	; 62
    72c8:	89 83       	std	Y+1, r24	; 0x01
    72ca:	2a 83       	std	Y+2, r18	; 0x02
    72cc:	3b 83       	std	Y+3, r19	; 0x03
    72ce:	4c 83       	std	Y+4, r20	; 0x04
    72d0:	5d 83       	std	Y+5, r21	; 0x05
    72d2:	0e 83       	std	Y+6, r16	; 0x06
    72d4:	1f 83       	std	Y+7, r17	; 0x07
	if (!sdcard.IDMatch(pdrv)) return RES_PARERR;
    72d6:	89 81       	ldd	r24, Y+1	; 0x01
 DRESULT disk_ioctl (BYTE pdrv, BYTE cmd, void* buff){
	if (!sdcard.IDMatch(pdrv)) return RES_PARERR;
	return sdcard.IOctl(cmd, buff);
 }

 bool SDCard::IDMatch(BYTE pdrv) {return pdrv == drvID;}
    72d8:	90 91 91 21 	lds	r25, 0x2191
 DRESULT disk_read (BYTE pdrv, BYTE* buff, DWORD sector, UINT count){
	if (!sdcard.IDMatch(pdrv) || !count) return RES_PARERR;
	return sdcard.read(buff, sector, count);
 }
 DRESULT disk_write (BYTE pdrv, const BYTE* buff, DWORD sector, UINT count){
	if (!sdcard.IDMatch(pdrv)) return RES_PARERR;
    72dc:	98 13       	cpse	r25, r24
    72de:	0a c0       	rjmp	.+20     	; 0x72f4 <disk_write+0x3e>
	return sdcard.write(buff, sector, count);
    72e0:	0e 81       	ldd	r16, Y+6	; 0x06
    72e2:	1f 81       	ldd	r17, Y+7	; 0x07
    72e4:	2a 81       	ldd	r18, Y+2	; 0x02
    72e6:	3b 81       	ldd	r19, Y+3	; 0x03
    72e8:	4c 81       	ldd	r20, Y+4	; 0x04
    72ea:	5d 81       	ldd	r21, Y+5	; 0x05
    72ec:	8f e8       	ldi	r24, 0x8F	; 143
    72ee:	91 e2       	ldi	r25, 0x21	; 33
    72f0:	53 df       	rcall	.-346    	; 0x7198 <_ZN6SDCard5writeEPVKhmj>
    72f2:	01 c0       	rjmp	.+2      	; 0x72f6 <disk_write+0x40>
 DRESULT disk_read (BYTE pdrv, BYTE* buff, DWORD sector, UINT count){
	if (!sdcard.IDMatch(pdrv) || !count) return RES_PARERR;
	return sdcard.read(buff, sector, count);
 }
 DRESULT disk_write (BYTE pdrv, const BYTE* buff, DWORD sector, UINT count){
	if (!sdcard.IDMatch(pdrv)) return RES_PARERR;
    72f4:	84 e0       	ldi	r24, 0x04	; 4
	return sdcard.write(buff, sector, count);
 }
    72f6:	27 96       	adiw	r28, 0x07	; 7
    72f8:	cd bf       	out	0x3d, r28	; 61
    72fa:	de bf       	out	0x3e, r29	; 62
    72fc:	df 91       	pop	r29
    72fe:	cf 91       	pop	r28
    7300:	1f 91       	pop	r17
    7302:	0f 91       	pop	r16
    7304:	08 95       	ret

00007306 <_ZN6SDCard5IOctlEhPv>:
	deselect();
	return count ? RES_ERROR:RES_OK;
 }
 #endif
 #if _USE_IOCTL != 0
 DRESULT SDCard::IOctl(BYTE ctrl, void* buff){
    7306:	cf 92       	push	r12
    7308:	df 92       	push	r13
    730a:	ef 92       	push	r14
    730c:	ff 92       	push	r15
    730e:	0f 93       	push	r16
    7310:	1f 93       	push	r17
    7312:	cf 93       	push	r28
    7314:	df 93       	push	r29
    7316:	cd b7       	in	r28, 0x3d	; 61
    7318:	de b7       	in	r29, 0x3e	; 62
    731a:	64 97       	sbiw	r28, 0x14	; 20
    731c:	cd bf       	out	0x3d, r28	; 61
    731e:	de bf       	out	0x3e, r29	; 62
    7320:	7c 01       	movw	r14, r24
    7322:	6c 8b       	std	Y+20, r22	; 0x14
    7324:	6a 01       	movw	r12, r20
	BYTE n, csd[16];
	BYTE *ptr = (BYTE *)buff;
	WORD csize;

	res = RES_ERROR;
	if (ctrl == CTRL_POWER) {
    7326:	8c 89       	ldd	r24, Y+20	; 0x14
    7328:	85 30       	cpi	r24, 0x05	; 5
    732a:	71 f4       	brne	.+28     	; 0x7348 <_ZN6SDCard5IOctlEhPv+0x42>
		switch(*ptr) {
    732c:	fa 01       	movw	r30, r20
    732e:	80 81       	ld	r24, Z
    7330:	82 30       	cpi	r24, 0x02	; 2
    7332:	18 f0       	brcs	.+6      	; 0x733a <_ZN6SDCard5IOctlEhPv+0x34>
    7334:	82 30       	cpi	r24, 0x02	; 2
    7336:	19 f0       	breq	.+6      	; 0x733e <_ZN6SDCard5IOctlEhPv+0x38>
    7338:	d1 c1       	rjmp	.+930    	; 0x76dc <_ZN6SDCard5IOctlEhPv+0x3d6>
		case 0:
			res = RES_OK;
    733a:	80 e0       	ldi	r24, 0x00	; 0
    733c:	d2 c1       	rjmp	.+932    	; 0x76e2 <_ZN6SDCard5IOctlEhPv+0x3dc>
			break;
		case 1:
			res = RES_OK;
			break;
		case 2:
			*(ptr + 1) = (BYTE) 1;
    733e:	81 e0       	ldi	r24, 0x01	; 1
    7340:	fa 01       	movw	r30, r20
    7342:	81 83       	std	Z+1, r24	; 0x01
			res = RES_OK;
    7344:	80 e0       	ldi	r24, 0x00	; 0
			break;
    7346:	cd c1       	rjmp	.+922    	; 0x76e2 <_ZN6SDCard5IOctlEhPv+0x3dc>
		default:
			res = RES_PARERR;
		}
	} else {
		if (Stat & STA_NOINIT) return RES_NOTRDY;
    7348:	f7 01       	movw	r30, r14
    734a:	84 81       	ldd	r24, Z+4	; 0x04
    734c:	80 fd       	sbrc	r24, 0
    734e:	c8 c1       	rjmp	.+912    	; 0x76e0 <_ZN6SDCard5IOctlEhPv+0x3da>

		switch(ctrl) {
    7350:	0c 89       	ldd	r16, Y+20	; 0x14
    7352:	10 e0       	ldi	r17, 0x00	; 0
    7354:	0f 30       	cpi	r16, 0x0F	; 15
    7356:	11 05       	cpc	r17, r1
    7358:	08 f0       	brcs	.+2      	; 0x735c <_ZN6SDCard5IOctlEhPv+0x56>
    735a:	a1 c1       	rjmp	.+834    	; 0x769e <_ZN6SDCard5IOctlEhPv+0x398>
    735c:	f8 01       	movw	r30, r16
    735e:	eb 5d       	subi	r30, 0xDB	; 219
    7360:	fe 4f       	sbci	r31, 0xFE	; 254
    7362:	ac c4       	rjmp	.+2392   	; 0x7cbc <__tablejump2__>
			case CTRL_SYNC:
				if (select()) {
    7364:	c7 01       	movw	r24, r14
    7366:	cb dc       	rcall	.-1642   	; 0x6cfe <_ZN6SDCard6selectEv>
    7368:	89 2b       	or	r24, r25
    736a:	09 f4       	brne	.+2      	; 0x736e <_ZN6SDCard5IOctlEhPv+0x68>
    736c:	9a c1       	rjmp	.+820    	; 0x76a2 <_ZN6SDCard5IOctlEhPv+0x39c>
					deselect();
    736e:	80 e1       	ldi	r24, 0x10	; 16
    7370:	e0 e8       	ldi	r30, 0x80	; 128
    7372:	f6 e0       	ldi	r31, 0x06	; 6
    7374:	85 83       	std	Z+5, r24	; 0x05
    7376:	c7 01       	movw	r24, r14
    7378:	12 d2       	rcall	.+1060   	; 0x779e <_ZN10SPI_Driver3getEv>
					res = RES_OK;
    737a:	10 e0       	ldi	r17, 0x00	; 0
    737c:	a7 c1       	rjmp	.+846    	; 0x76cc <_ZN6SDCard5IOctlEhPv+0x3c6>
				}
				break;
			case GET_SECTOR_COUNT:
				if ((send_cmd(CMD9, 0) == 0) && rcv_dataBlock(csd, 16)) {
    737e:	20 e0       	ldi	r18, 0x00	; 0
    7380:	30 e0       	ldi	r19, 0x00	; 0
    7382:	a9 01       	movw	r20, r18
    7384:	69 e4       	ldi	r22, 0x49	; 73
    7386:	c7 01       	movw	r24, r14
    7388:	d7 dc       	rcall	.-1618   	; 0x6d38 <_ZN6SDCard8send_cmdEhm>
    738a:	81 11       	cpse	r24, r1
    738c:	8c c1       	rjmp	.+792    	; 0x76a6 <_ZN6SDCard5IOctlEhPv+0x3a0>
    738e:	40 e1       	ldi	r20, 0x10	; 16
    7390:	50 e0       	ldi	r21, 0x00	; 0
    7392:	be 01       	movw	r22, r28
    7394:	6f 5f       	subi	r22, 0xFF	; 255
    7396:	7f 4f       	sbci	r23, 0xFF	; 255
    7398:	c7 01       	movw	r24, r14
    739a:	dc db       	rcall	.-2120   	; 0x6b54 <_ZN6SDCard13rcv_dataBlockEPVhj>
    739c:	89 2b       	or	r24, r25
    739e:	09 f4       	brne	.+2      	; 0x73a2 <_ZN6SDCard5IOctlEhPv+0x9c>
    73a0:	84 c1       	rjmp	.+776    	; 0x76aa <_ZN6SDCard5IOctlEhPv+0x3a4>
					if ((csd[0] >> 6) == 1) {
    73a2:	89 81       	ldd	r24, Y+1	; 0x01
    73a4:	90 e0       	ldi	r25, 0x00	; 0
    73a6:	08 2e       	mov	r0, r24
    73a8:	89 2f       	mov	r24, r25
    73aa:	00 0c       	add	r0, r0
    73ac:	88 1f       	adc	r24, r24
    73ae:	99 0b       	sbc	r25, r25
    73b0:	00 0c       	add	r0, r0
    73b2:	88 1f       	adc	r24, r24
    73b4:	99 1f       	adc	r25, r25
    73b6:	01 97       	sbiw	r24, 0x01	; 1
    73b8:	01 f5       	brne	.+64     	; 0x73fa <_ZN6SDCard5IOctlEhPv+0xf4>
						csize = csd[9] + ((WORD) csd[8] << 8) + 1;
    73ba:	2a 85       	ldd	r18, Y+10	; 0x0a
    73bc:	89 85       	ldd	r24, Y+9	; 0x09
    73be:	30 e0       	ldi	r19, 0x00	; 0
    73c0:	2f 5f       	subi	r18, 0xFF	; 255
    73c2:	3f 4f       	sbci	r19, 0xFF	; 255
    73c4:	90 e0       	ldi	r25, 0x00	; 0
    73c6:	98 2f       	mov	r25, r24
    73c8:	88 27       	eor	r24, r24
    73ca:	82 0f       	add	r24, r18
    73cc:	93 1f       	adc	r25, r19
    73ce:	89 8b       	std	Y+17, r24	; 0x11
    73d0:	9a 8b       	std	Y+18, r25	; 0x12
						*(DWORD*)buff = (DWORD)csize << 10;
    73d2:	89 89       	ldd	r24, Y+17	; 0x11
    73d4:	9a 89       	ldd	r25, Y+18	; 0x12
    73d6:	a0 e0       	ldi	r26, 0x00	; 0
    73d8:	b0 e0       	ldi	r27, 0x00	; 0
    73da:	07 2e       	mov	r0, r23
    73dc:	7a e0       	ldi	r23, 0x0A	; 10
    73de:	88 0f       	add	r24, r24
    73e0:	99 1f       	adc	r25, r25
    73e2:	aa 1f       	adc	r26, r26
    73e4:	bb 1f       	adc	r27, r27
    73e6:	7a 95       	dec	r23
    73e8:	d1 f7       	brne	.-12     	; 0x73de <_ZN6SDCard5IOctlEhPv+0xd8>
    73ea:	70 2d       	mov	r23, r0
    73ec:	f6 01       	movw	r30, r12
    73ee:	80 83       	st	Z, r24
    73f0:	91 83       	std	Z+1, r25	; 0x01
    73f2:	a2 83       	std	Z+2, r26	; 0x02
    73f4:	b3 83       	std	Z+3, r27	; 0x03
					} else {
						n=(csd[5] & 15) + ((csd[10] & 128) >> 7) + ((csd[9] & 3) << 1) + 2;
						csize = (csd[8] >> 6) + ((WORD)csd[7] << 2) + ((WORD)(csd[6] & 3) << 10) + 1;
						*(DWORD*)buff = (DWORD)csize << (n-9);
					}
					res = RES_OK;
    73f6:	10 e0       	ldi	r17, 0x00	; 0
    73f8:	69 c1       	rjmp	.+722    	; 0x76cc <_ZN6SDCard5IOctlEhPv+0x3c6>
				if ((send_cmd(CMD9, 0) == 0) && rcv_dataBlock(csd, 16)) {
					if ((csd[0] >> 6) == 1) {
						csize = csd[9] + ((WORD) csd[8] << 8) + 1;
						*(DWORD*)buff = (DWORD)csize << 10;
					} else {
						n=(csd[5] & 15) + ((csd[10] & 128) >> 7) + ((csd[9] & 3) << 1) + 2;
    73fa:	2e 81       	ldd	r18, Y+6	; 0x06
    73fc:	9b 85       	ldd	r25, Y+11	; 0x0b
    73fe:	8a 85       	ldd	r24, Y+10	; 0x0a
    7400:	2f 70       	andi	r18, 0x0F	; 15
    7402:	99 1f       	adc	r25, r25
    7404:	99 27       	eor	r25, r25
    7406:	99 1f       	adc	r25, r25
    7408:	92 0f       	add	r25, r18
    740a:	9e 5f       	subi	r25, 0xFE	; 254
    740c:	83 70       	andi	r24, 0x03	; 3
    740e:	88 0f       	add	r24, r24
    7410:	89 0f       	add	r24, r25
    7412:	8b 8b       	std	Y+19, r24	; 0x13
						csize = (csd[8] >> 6) + ((WORD)csd[7] << 2) + ((WORD)(csd[6] & 3) << 10) + 1;
    7414:	49 85       	ldd	r20, Y+9	; 0x09
    7416:	88 85       	ldd	r24, Y+8	; 0x08
    7418:	2f 81       	ldd	r18, Y+7	; 0x07
    741a:	90 e0       	ldi	r25, 0x00	; 0
    741c:	88 0f       	add	r24, r24
    741e:	99 1f       	adc	r25, r25
    7420:	88 0f       	add	r24, r24
    7422:	99 1f       	adc	r25, r25
    7424:	01 96       	adiw	r24, 0x01	; 1
    7426:	50 e0       	ldi	r21, 0x00	; 0
    7428:	04 2e       	mov	r0, r20
    742a:	45 2f       	mov	r20, r21
    742c:	00 0c       	add	r0, r0
    742e:	44 1f       	adc	r20, r20
    7430:	55 0b       	sbc	r21, r21
    7432:	00 0c       	add	r0, r0
    7434:	44 1f       	adc	r20, r20
    7436:	55 1f       	adc	r21, r21
    7438:	84 0f       	add	r24, r20
    743a:	95 1f       	adc	r25, r21
    743c:	23 70       	andi	r18, 0x03	; 3
    743e:	30 e0       	ldi	r19, 0x00	; 0
    7440:	32 2f       	mov	r19, r18
    7442:	22 27       	eor	r18, r18
    7444:	33 0f       	add	r19, r19
    7446:	33 0f       	add	r19, r19
    7448:	82 0f       	add	r24, r18
    744a:	93 1f       	adc	r25, r19
    744c:	89 8b       	std	Y+17, r24	; 0x11
    744e:	9a 8b       	std	Y+18, r25	; 0x12
						*(DWORD*)buff = (DWORD)csize << (n-9);
    7450:	49 89       	ldd	r20, Y+17	; 0x11
    7452:	5a 89       	ldd	r21, Y+18	; 0x12
    7454:	8b 89       	ldd	r24, Y+19	; 0x13
    7456:	60 e0       	ldi	r22, 0x00	; 0
    7458:	70 e0       	ldi	r23, 0x00	; 0
    745a:	89 50       	subi	r24, 0x09	; 9
    745c:	8a 01       	movw	r16, r20
    745e:	9b 01       	movw	r18, r22
    7460:	04 c0       	rjmp	.+8      	; 0x746a <_ZN6SDCard5IOctlEhPv+0x164>
    7462:	00 0f       	add	r16, r16
    7464:	11 1f       	adc	r17, r17
    7466:	22 1f       	adc	r18, r18
    7468:	33 1f       	adc	r19, r19
    746a:	8a 95       	dec	r24
    746c:	d2 f7       	brpl	.-12     	; 0x7462 <_ZN6SDCard5IOctlEhPv+0x15c>
    746e:	f6 01       	movw	r30, r12
    7470:	00 83       	st	Z, r16
    7472:	11 83       	std	Z+1, r17	; 0x01
    7474:	22 83       	std	Z+2, r18	; 0x02
    7476:	33 83       	std	Z+3, r19	; 0x03
					}
					res = RES_OK;
    7478:	10 e0       	ldi	r17, 0x00	; 0
    747a:	28 c1       	rjmp	.+592    	; 0x76cc <_ZN6SDCard5IOctlEhPv+0x3c6>
				}
				break;
			case GET_SECTOR_SIZE:
				*(WORD*)buff = 512;
    747c:	80 e0       	ldi	r24, 0x00	; 0
    747e:	92 e0       	ldi	r25, 0x02	; 2
    7480:	fa 01       	movw	r30, r20
    7482:	80 83       	st	Z, r24
    7484:	91 83       	std	Z+1, r25	; 0x01
				res = RES_OK;
    7486:	10 e0       	ldi	r17, 0x00	; 0
				break;
    7488:	21 c1       	rjmp	.+578    	; 0x76cc <_ZN6SDCard5IOctlEhPv+0x3c6>
			case GET_BLOCK_SIZE:
				if (CardType & CT_SD2) {
    748a:	f7 01       	movw	r30, r14
    748c:	83 81       	ldd	r24, Z+3	; 0x03
    748e:	82 ff       	sbrs	r24, 2
    7490:	3b c0       	rjmp	.+118    	; 0x7508 <_ZN6SDCard5IOctlEhPv+0x202>
					if (send_cmd(ACMD13, 0) == 0) {
    7492:	20 e0       	ldi	r18, 0x00	; 0
    7494:	30 e0       	ldi	r19, 0x00	; 0
    7496:	a9 01       	movw	r20, r18
    7498:	6d ec       	ldi	r22, 0xCD	; 205
    749a:	c7 01       	movw	r24, r14
    749c:	4d dc       	rcall	.-1894   	; 0x6d38 <_ZN6SDCard8send_cmdEhm>
    749e:	81 11       	cpse	r24, r1
    74a0:	06 c1       	rjmp	.+524    	; 0x76ae <_ZN6SDCard5IOctlEhPv+0x3a8>
						spi.get();
    74a2:	1e 2d       	mov	r17, r14
    74a4:	0f 2d       	mov	r16, r15
    74a6:	c7 01       	movw	r24, r14
    74a8:	7a d1       	rcall	.+756    	; 0x779e <_ZN10SPI_Driver3getEv>
						if (rcv_dataBlock(csd,16)) {
    74aa:	40 e1       	ldi	r20, 0x10	; 16
    74ac:	50 e0       	ldi	r21, 0x00	; 0
    74ae:	be 01       	movw	r22, r28
    74b0:	6f 5f       	subi	r22, 0xFF	; 255
    74b2:	7f 4f       	sbci	r23, 0xFF	; 255
    74b4:	c7 01       	movw	r24, r14
    74b6:	4e db       	rcall	.-2404   	; 0x6b54 <_ZN6SDCard13rcv_dataBlockEPVhj>
    74b8:	89 2b       	or	r24, r25
    74ba:	09 f4       	brne	.+2      	; 0x74be <_ZN6SDCard5IOctlEhPv+0x1b8>
    74bc:	fa c0       	rjmp	.+500    	; 0x76b2 <_ZN6SDCard5IOctlEhPv+0x3ac>
							for (n = 64 - 16; n; n--) spi.get();
    74be:	80 e3       	ldi	r24, 0x30	; 48
    74c0:	8b 8b       	std	Y+19, r24	; 0x13
    74c2:	8b 89       	ldd	r24, Y+19	; 0x13
    74c4:	88 23       	and	r24, r24
    74c6:	49 f0       	breq	.+18     	; 0x74da <_ZN6SDCard5IOctlEhPv+0x1d4>
    74c8:	81 2f       	mov	r24, r17
    74ca:	90 2f       	mov	r25, r16
    74cc:	68 d1       	rcall	.+720    	; 0x779e <_ZN10SPI_Driver3getEv>
    74ce:	2b 89       	ldd	r18, Y+19	; 0x13
    74d0:	21 50       	subi	r18, 0x01	; 1
    74d2:	2b 8b       	std	Y+19, r18	; 0x13
    74d4:	2b 89       	ldd	r18, Y+19	; 0x13
    74d6:	21 11       	cpse	r18, r1
    74d8:	f7 cf       	rjmp	.-18     	; 0x74c8 <_ZN6SDCard5IOctlEhPv+0x1c2>
							*(DWORD*) buff = (DWORD)0x00000010 << (csd[10] >> 4);
    74da:	8b 85       	ldd	r24, Y+11	; 0x0b
    74dc:	82 95       	swap	r24
    74de:	8f 70       	andi	r24, 0x0F	; 15
    74e0:	40 e1       	ldi	r20, 0x10	; 16
    74e2:	50 e0       	ldi	r21, 0x00	; 0
    74e4:	60 e0       	ldi	r22, 0x00	; 0
    74e6:	70 e0       	ldi	r23, 0x00	; 0
    74e8:	8a 01       	movw	r16, r20
    74ea:	9b 01       	movw	r18, r22
    74ec:	04 c0       	rjmp	.+8      	; 0x74f6 <_ZN6SDCard5IOctlEhPv+0x1f0>
    74ee:	00 0f       	add	r16, r16
    74f0:	11 1f       	adc	r17, r17
    74f2:	22 1f       	adc	r18, r18
    74f4:	33 1f       	adc	r19, r19
    74f6:	8a 95       	dec	r24
    74f8:	d2 f7       	brpl	.-12     	; 0x74ee <_ZN6SDCard5IOctlEhPv+0x1e8>
    74fa:	f6 01       	movw	r30, r12
    74fc:	00 83       	st	Z, r16
    74fe:	11 83       	std	Z+1, r17	; 0x01
    7500:	22 83       	std	Z+2, r18	; 0x02
    7502:	33 83       	std	Z+3, r19	; 0x03
							res = RES_OK;
    7504:	10 e0       	ldi	r17, 0x00	; 0
    7506:	e2 c0       	rjmp	.+452    	; 0x76cc <_ZN6SDCard5IOctlEhPv+0x3c6>
						}
					}
				} else {
					if ((send_cmd(CMD9, 0) == 0) && rcv_dataBlock(csd,16)) {
    7508:	20 e0       	ldi	r18, 0x00	; 0
    750a:	30 e0       	ldi	r19, 0x00	; 0
    750c:	a9 01       	movw	r20, r18
    750e:	69 e4       	ldi	r22, 0x49	; 73
    7510:	c7 01       	movw	r24, r14
    7512:	12 dc       	rcall	.-2012   	; 0x6d38 <_ZN6SDCard8send_cmdEhm>
    7514:	81 11       	cpse	r24, r1
    7516:	cf c0       	rjmp	.+414    	; 0x76b6 <_ZN6SDCard5IOctlEhPv+0x3b0>
    7518:	40 e1       	ldi	r20, 0x10	; 16
    751a:	50 e0       	ldi	r21, 0x00	; 0
    751c:	be 01       	movw	r22, r28
    751e:	6f 5f       	subi	r22, 0xFF	; 255
    7520:	7f 4f       	sbci	r23, 0xFF	; 255
    7522:	c7 01       	movw	r24, r14
    7524:	17 db       	rcall	.-2514   	; 0x6b54 <_ZN6SDCard13rcv_dataBlockEPVhj>
    7526:	89 2b       	or	r24, r25
    7528:	09 f4       	brne	.+2      	; 0x752c <_ZN6SDCard5IOctlEhPv+0x226>
    752a:	c7 c0       	rjmp	.+398    	; 0x76ba <_ZN6SDCard5IOctlEhPv+0x3b4>
						if (CardType & CT_SD1) {
    752c:	f7 01       	movw	r30, r14
    752e:	83 81       	ldd	r24, Z+3	; 0x03
    7530:	81 ff       	sbrs	r24, 1
    7532:	29 c0       	rjmp	.+82     	; 0x7586 <_ZN6SDCard5IOctlEhPv+0x280>
							*(DWORD*)buff = (((csd[10] & 63) << 1) + ((WORD)(csd[11] & 128) >> 7) + 1) << ((csd[13] >> 6) - 1);
    7534:	2b 85       	ldd	r18, Y+11	; 0x0b
    7536:	4c 85       	ldd	r20, Y+12	; 0x0c
    7538:	8e 85       	ldd	r24, Y+14	; 0x0e
    753a:	44 1f       	adc	r20, r20
    753c:	44 27       	eor	r20, r20
    753e:	44 1f       	adc	r20, r20
    7540:	50 e0       	ldi	r21, 0x00	; 0
    7542:	4f 5f       	subi	r20, 0xFF	; 255
    7544:	5f 4f       	sbci	r21, 0xFF	; 255
    7546:	2f 73       	andi	r18, 0x3F	; 63
    7548:	30 e0       	ldi	r19, 0x00	; 0
    754a:	22 0f       	add	r18, r18
    754c:	33 1f       	adc	r19, r19
    754e:	24 0f       	add	r18, r20
    7550:	35 1f       	adc	r19, r21
    7552:	90 e0       	ldi	r25, 0x00	; 0
    7554:	08 2e       	mov	r0, r24
    7556:	89 2f       	mov	r24, r25
    7558:	00 0c       	add	r0, r0
    755a:	88 1f       	adc	r24, r24
    755c:	99 0b       	sbc	r25, r25
    755e:	00 0c       	add	r0, r0
    7560:	88 1f       	adc	r24, r24
    7562:	99 1f       	adc	r25, r25
    7564:	01 97       	sbiw	r24, 0x01	; 1
    7566:	89 01       	movw	r16, r18
    7568:	02 c0       	rjmp	.+4      	; 0x756e <_ZN6SDCard5IOctlEhPv+0x268>
    756a:	00 0f       	add	r16, r16
    756c:	11 1f       	adc	r17, r17
    756e:	8a 95       	dec	r24
    7570:	e2 f7       	brpl	.-8      	; 0x756a <_ZN6SDCard5IOctlEhPv+0x264>
    7572:	c8 01       	movw	r24, r16
    7574:	a0 e0       	ldi	r26, 0x00	; 0
    7576:	b0 e0       	ldi	r27, 0x00	; 0
    7578:	f6 01       	movw	r30, r12
    757a:	80 83       	st	Z, r24
    757c:	91 83       	std	Z+1, r25	; 0x01
    757e:	a2 83       	std	Z+2, r26	; 0x02
    7580:	b3 83       	std	Z+3, r27	; 0x03
						} else {
							*(DWORD*)buff = ((WORD)((csd[10] & 124) >> 2) + 1) * (((csd[11] & 3) << 3) + ((csd[11] & 224) >> 5) + 1);
						}
						res = RES_OK;
    7582:	10 e0       	ldi	r17, 0x00	; 0
    7584:	a3 c0       	rjmp	.+326    	; 0x76cc <_ZN6SDCard5IOctlEhPv+0x3c6>
				} else {
					if ((send_cmd(CMD9, 0) == 0) && rcv_dataBlock(csd,16)) {
						if (CardType & CT_SD1) {
							*(DWORD*)buff = (((csd[10] & 63) << 1) + ((WORD)(csd[11] & 128) >> 7) + 1) << ((csd[13] >> 6) - 1);
						} else {
							*(DWORD*)buff = ((WORD)((csd[10] & 124) >> 2) + 1) * (((csd[11] & 3) << 3) + ((csd[11] & 224) >> 5) + 1);
    7586:	2b 85       	ldd	r18, Y+11	; 0x0b
    7588:	4c 85       	ldd	r20, Y+12	; 0x0c
    758a:	8c 85       	ldd	r24, Y+12	; 0x0c
    758c:	43 70       	andi	r20, 0x03	; 3
    758e:	50 e0       	ldi	r21, 0x00	; 0
    7590:	44 0f       	add	r20, r20
    7592:	55 1f       	adc	r21, r21
    7594:	44 0f       	add	r20, r20
    7596:	55 1f       	adc	r21, r21
    7598:	44 0f       	add	r20, r20
    759a:	55 1f       	adc	r21, r21
    759c:	82 95       	swap	r24
    759e:	86 95       	lsr	r24
    75a0:	87 70       	andi	r24, 0x07	; 7
    75a2:	48 0f       	add	r20, r24
    75a4:	51 1d       	adc	r21, r1
    75a6:	4f 5f       	subi	r20, 0xFF	; 255
    75a8:	5f 4f       	sbci	r21, 0xFF	; 255
    75aa:	2c 77       	andi	r18, 0x7C	; 124
    75ac:	30 e0       	ldi	r19, 0x00	; 0
    75ae:	35 95       	asr	r19
    75b0:	27 95       	ror	r18
    75b2:	35 95       	asr	r19
    75b4:	27 95       	ror	r18
    75b6:	2f 5f       	subi	r18, 0xFF	; 255
    75b8:	3f 4f       	sbci	r19, 0xFF	; 255
    75ba:	42 9f       	mul	r20, r18
    75bc:	c0 01       	movw	r24, r0
    75be:	43 9f       	mul	r20, r19
    75c0:	90 0d       	add	r25, r0
    75c2:	52 9f       	mul	r21, r18
    75c4:	90 0d       	add	r25, r0
    75c6:	11 24       	eor	r1, r1
    75c8:	a0 e0       	ldi	r26, 0x00	; 0
    75ca:	b0 e0       	ldi	r27, 0x00	; 0
    75cc:	f6 01       	movw	r30, r12
    75ce:	80 83       	st	Z, r24
    75d0:	91 83       	std	Z+1, r25	; 0x01
    75d2:	a2 83       	std	Z+2, r26	; 0x02
    75d4:	b3 83       	std	Z+3, r27	; 0x03
						}
						res = RES_OK;
    75d6:	10 e0       	ldi	r17, 0x00	; 0
    75d8:	79 c0       	rjmp	.+242    	; 0x76cc <_ZN6SDCard5IOctlEhPv+0x3c6>
					}
				}
				break;
			case MMC_GET_TYPE:
				*ptr = CardType;
    75da:	f7 01       	movw	r30, r14
    75dc:	83 81       	ldd	r24, Z+3	; 0x03
    75de:	fa 01       	movw	r30, r20
    75e0:	80 83       	st	Z, r24
				res = RES_OK;
    75e2:	10 e0       	ldi	r17, 0x00	; 0
				break;
    75e4:	73 c0       	rjmp	.+230    	; 0x76cc <_ZN6SDCard5IOctlEhPv+0x3c6>
			case MMC_GET_CSD:
				if (send_cmd(CMD9, 0) == 0 && rcv_dataBlock(ptr, 16)) res = RES_OK;
    75e6:	20 e0       	ldi	r18, 0x00	; 0
    75e8:	30 e0       	ldi	r19, 0x00	; 0
    75ea:	a9 01       	movw	r20, r18
    75ec:	69 e4       	ldi	r22, 0x49	; 73
    75ee:	c7 01       	movw	r24, r14
    75f0:	a3 db       	rcall	.-2234   	; 0x6d38 <_ZN6SDCard8send_cmdEhm>
    75f2:	81 11       	cpse	r24, r1
    75f4:	0a c0       	rjmp	.+20     	; 0x760a <_ZN6SDCard5IOctlEhPv+0x304>
    75f6:	40 e1       	ldi	r20, 0x10	; 16
    75f8:	50 e0       	ldi	r21, 0x00	; 0
    75fa:	b6 01       	movw	r22, r12
    75fc:	c7 01       	movw	r24, r14
    75fe:	aa da       	rcall	.-2732   	; 0x6b54 <_ZN6SDCard13rcv_dataBlockEPVhj>
    7600:	11 e0       	ldi	r17, 0x01	; 1
    7602:	89 2b       	or	r24, r25
    7604:	19 f4       	brne	.+6      	; 0x760c <_ZN6SDCard5IOctlEhPv+0x306>
    7606:	10 e0       	ldi	r17, 0x00	; 0
    7608:	01 c0       	rjmp	.+2      	; 0x760c <_ZN6SDCard5IOctlEhPv+0x306>
    760a:	10 e0       	ldi	r17, 0x00	; 0
    760c:	81 e0       	ldi	r24, 0x01	; 1
    760e:	18 27       	eor	r17, r24
    7610:	5d c0       	rjmp	.+186    	; 0x76cc <_ZN6SDCard5IOctlEhPv+0x3c6>
				break;
			case MMC_GET_CID:
				if (send_cmd(CMD10, 0) == 0 && rcv_dataBlock(ptr, 16)) res = RES_OK;
    7612:	20 e0       	ldi	r18, 0x00	; 0
    7614:	30 e0       	ldi	r19, 0x00	; 0
    7616:	a9 01       	movw	r20, r18
    7618:	6a e4       	ldi	r22, 0x4A	; 74
    761a:	c7 01       	movw	r24, r14
    761c:	8d db       	rcall	.-2278   	; 0x6d38 <_ZN6SDCard8send_cmdEhm>
    761e:	81 11       	cpse	r24, r1
    7620:	0a c0       	rjmp	.+20     	; 0x7636 <_ZN6SDCard5IOctlEhPv+0x330>
    7622:	40 e1       	ldi	r20, 0x10	; 16
    7624:	50 e0       	ldi	r21, 0x00	; 0
    7626:	b6 01       	movw	r22, r12
    7628:	c7 01       	movw	r24, r14
    762a:	94 da       	rcall	.-2776   	; 0x6b54 <_ZN6SDCard13rcv_dataBlockEPVhj>
    762c:	11 e0       	ldi	r17, 0x01	; 1
    762e:	89 2b       	or	r24, r25
    7630:	19 f4       	brne	.+6      	; 0x7638 <_ZN6SDCard5IOctlEhPv+0x332>
    7632:	10 e0       	ldi	r17, 0x00	; 0
    7634:	01 c0       	rjmp	.+2      	; 0x7638 <_ZN6SDCard5IOctlEhPv+0x332>
    7636:	10 e0       	ldi	r17, 0x00	; 0
    7638:	81 e0       	ldi	r24, 0x01	; 1
    763a:	18 27       	eor	r17, r24
    763c:	47 c0       	rjmp	.+142    	; 0x76cc <_ZN6SDCard5IOctlEhPv+0x3c6>
				break;
			case MMC_GET_OCR:
				if (send_cmd(CMD58, 0) == 0) {
    763e:	20 e0       	ldi	r18, 0x00	; 0
    7640:	30 e0       	ldi	r19, 0x00	; 0
    7642:	a9 01       	movw	r20, r18
    7644:	6a e7       	ldi	r22, 0x7A	; 122
    7646:	c7 01       	movw	r24, r14
    7648:	77 db       	rcall	.-2322   	; 0x6d38 <_ZN6SDCard8send_cmdEhm>
    764a:	81 11       	cpse	r24, r1
    764c:	38 c0       	rjmp	.+112    	; 0x76be <_ZN6SDCard5IOctlEhPv+0x3b8>
					for (n=4; n; n--) *ptr++ = spi.get();
    764e:	84 e0       	ldi	r24, 0x04	; 4
    7650:	8b 8b       	std	Y+19, r24	; 0x13
    7652:	8b 89       	ldd	r24, Y+19	; 0x13
    7654:	88 23       	and	r24, r24
    7656:	a9 f1       	breq	.+106    	; 0x76c2 <_ZN6SDCard5IOctlEhPv+0x3bc>
    7658:	86 01       	movw	r16, r12
    765a:	0f 5f       	subi	r16, 0xFF	; 255
    765c:	1f 4f       	sbci	r17, 0xFF	; 255
    765e:	c7 01       	movw	r24, r14
    7660:	9e d0       	rcall	.+316    	; 0x779e <_ZN10SPI_Driver3getEv>
    7662:	f6 01       	movw	r30, r12
    7664:	80 83       	st	Z, r24
    7666:	8b 89       	ldd	r24, Y+19	; 0x13
    7668:	81 50       	subi	r24, 0x01	; 1
    766a:	8b 8b       	std	Y+19, r24	; 0x13
    766c:	8b 89       	ldd	r24, Y+19	; 0x13
    766e:	88 23       	and	r24, r24
    7670:	51 f1       	breq	.+84     	; 0x76c6 <_ZN6SDCard5IOctlEhPv+0x3c0>
    7672:	68 01       	movw	r12, r16
    7674:	f1 cf       	rjmp	.-30     	; 0x7658 <_ZN6SDCard5IOctlEhPv+0x352>
					res = RES_OK;
				}
				break;
			case MMC_GET_SDSTAT:
				if (send_cmd(ACMD13, 0) == 0) {
    7676:	20 e0       	ldi	r18, 0x00	; 0
    7678:	30 e0       	ldi	r19, 0x00	; 0
    767a:	a9 01       	movw	r20, r18
    767c:	6d ec       	ldi	r22, 0xCD	; 205
    767e:	c7 01       	movw	r24, r14
    7680:	5b db       	rcall	.-2378   	; 0x6d38 <_ZN6SDCard8send_cmdEhm>
    7682:	81 11       	cpse	r24, r1
    7684:	22 c0       	rjmp	.+68     	; 0x76ca <_ZN6SDCard5IOctlEhPv+0x3c4>
					spi.get();
    7686:	c7 01       	movw	r24, r14
    7688:	8a d0       	rcall	.+276    	; 0x779e <_ZN10SPI_Driver3getEv>
					if (rcv_dataBlock(ptr, 64)) res = RES_OK;
    768a:	40 e4       	ldi	r20, 0x40	; 64
    768c:	50 e0       	ldi	r21, 0x00	; 0
    768e:	b6 01       	movw	r22, r12
    7690:	c7 01       	movw	r24, r14
    7692:	60 da       	rcall	.-2880   	; 0x6b54 <_ZN6SDCard13rcv_dataBlockEPVhj>
    7694:	11 e0       	ldi	r17, 0x01	; 1
    7696:	89 2b       	or	r24, r25
    7698:	c9 f0       	breq	.+50     	; 0x76cc <_ZN6SDCard5IOctlEhPv+0x3c6>
    769a:	10 e0       	ldi	r17, 0x00	; 0
    769c:	17 c0       	rjmp	.+46     	; 0x76cc <_ZN6SDCard5IOctlEhPv+0x3c6>
				}
				break;
			default:
				res = RES_PARERR;
    769e:	14 e0       	ldi	r17, 0x04	; 4
    76a0:	15 c0       	rjmp	.+42     	; 0x76cc <_ZN6SDCard5IOctlEhPv+0x3c6>
	DRESULT res;
	BYTE n, csd[16];
	BYTE *ptr = (BYTE *)buff;
	WORD csize;

	res = RES_ERROR;
    76a2:	11 e0       	ldi	r17, 0x01	; 1
    76a4:	13 c0       	rjmp	.+38     	; 0x76cc <_ZN6SDCard5IOctlEhPv+0x3c6>
    76a6:	11 e0       	ldi	r17, 0x01	; 1
    76a8:	11 c0       	rjmp	.+34     	; 0x76cc <_ZN6SDCard5IOctlEhPv+0x3c6>
    76aa:	11 e0       	ldi	r17, 0x01	; 1
    76ac:	0f c0       	rjmp	.+30     	; 0x76cc <_ZN6SDCard5IOctlEhPv+0x3c6>
    76ae:	11 e0       	ldi	r17, 0x01	; 1
    76b0:	0d c0       	rjmp	.+26     	; 0x76cc <_ZN6SDCard5IOctlEhPv+0x3c6>
    76b2:	11 e0       	ldi	r17, 0x01	; 1
    76b4:	0b c0       	rjmp	.+22     	; 0x76cc <_ZN6SDCard5IOctlEhPv+0x3c6>
    76b6:	11 e0       	ldi	r17, 0x01	; 1
    76b8:	09 c0       	rjmp	.+18     	; 0x76cc <_ZN6SDCard5IOctlEhPv+0x3c6>
    76ba:	11 e0       	ldi	r17, 0x01	; 1
    76bc:	07 c0       	rjmp	.+14     	; 0x76cc <_ZN6SDCard5IOctlEhPv+0x3c6>
    76be:	11 e0       	ldi	r17, 0x01	; 1
    76c0:	05 c0       	rjmp	.+10     	; 0x76cc <_ZN6SDCard5IOctlEhPv+0x3c6>
				if (send_cmd(CMD10, 0) == 0 && rcv_dataBlock(ptr, 16)) res = RES_OK;
				break;
			case MMC_GET_OCR:
				if (send_cmd(CMD58, 0) == 0) {
					for (n=4; n; n--) *ptr++ = spi.get();
					res = RES_OK;
    76c2:	10 e0       	ldi	r17, 0x00	; 0
    76c4:	03 c0       	rjmp	.+6      	; 0x76cc <_ZN6SDCard5IOctlEhPv+0x3c6>
    76c6:	10 e0       	ldi	r17, 0x00	; 0
    76c8:	01 c0       	rjmp	.+2      	; 0x76cc <_ZN6SDCard5IOctlEhPv+0x3c6>
	DRESULT res;
	BYTE n, csd[16];
	BYTE *ptr = (BYTE *)buff;
	WORD csize;

	res = RES_ERROR;
    76ca:	11 e0       	ldi	r17, 0x01	; 1
				}
				break;
			default:
				res = RES_PARERR;
			}
			deselect();
    76cc:	90 e1       	ldi	r25, 0x10	; 16
    76ce:	e0 e8       	ldi	r30, 0x80	; 128
    76d0:	f6 e0       	ldi	r31, 0x06	; 6
    76d2:	95 83       	std	Z+5, r25	; 0x05
    76d4:	c7 01       	movw	r24, r14
    76d6:	63 d0       	rcall	.+198    	; 0x779e <_ZN10SPI_Driver3getEv>
    76d8:	81 2f       	mov	r24, r17
    76da:	03 c0       	rjmp	.+6      	; 0x76e2 <_ZN6SDCard5IOctlEhPv+0x3dc>
		case 2:
			*(ptr + 1) = (BYTE) 1;
			res = RES_OK;
			break;
		default:
			res = RES_PARERR;
    76dc:	84 e0       	ldi	r24, 0x04	; 4
    76de:	01 c0       	rjmp	.+2      	; 0x76e2 <_ZN6SDCard5IOctlEhPv+0x3dc>
		}
	} else {
		if (Stat & STA_NOINIT) return RES_NOTRDY;
    76e0:	83 e0       	ldi	r24, 0x03	; 3
			}
			deselect();
		}

		return res;
 }
    76e2:	64 96       	adiw	r28, 0x14	; 20
    76e4:	cd bf       	out	0x3d, r28	; 61
    76e6:	de bf       	out	0x3e, r29	; 62
    76e8:	df 91       	pop	r29
    76ea:	cf 91       	pop	r28
    76ec:	1f 91       	pop	r17
    76ee:	0f 91       	pop	r16
    76f0:	ff 90       	pop	r15
    76f2:	ef 90       	pop	r14
    76f4:	df 90       	pop	r13
    76f6:	cf 90       	pop	r12
    76f8:	08 95       	ret

000076fa <disk_ioctl>:
 }
 DRESULT disk_write (BYTE pdrv, const BYTE* buff, DWORD sector, UINT count){
	if (!sdcard.IDMatch(pdrv)) return RES_PARERR;
	return sdcard.write(buff, sector, count);
 }
 DRESULT disk_ioctl (BYTE pdrv, BYTE cmd, void* buff){
    76fa:	cf 93       	push	r28
    76fc:	df 93       	push	r29
    76fe:	1f 92       	push	r1
    7700:	1f 92       	push	r1
    7702:	cd b7       	in	r28, 0x3d	; 61
    7704:	de b7       	in	r29, 0x3e	; 62
    7706:	89 83       	std	Y+1, r24	; 0x01
    7708:	6a 83       	std	Y+2, r22	; 0x02
	if (!sdcard.IDMatch(pdrv)) return RES_PARERR;
    770a:	89 81       	ldd	r24, Y+1	; 0x01
	return sdcard.IOctl(cmd, buff);
 }

 bool SDCard::IDMatch(BYTE pdrv) {return pdrv == drvID;}
    770c:	90 91 91 21 	lds	r25, 0x2191
 DRESULT disk_write (BYTE pdrv, const BYTE* buff, DWORD sector, UINT count){
	if (!sdcard.IDMatch(pdrv)) return RES_PARERR;
	return sdcard.write(buff, sector, count);
 }
 DRESULT disk_ioctl (BYTE pdrv, BYTE cmd, void* buff){
	if (!sdcard.IDMatch(pdrv)) return RES_PARERR;
    7710:	98 13       	cpse	r25, r24
    7712:	05 c0       	rjmp	.+10     	; 0x771e <disk_ioctl+0x24>
	return sdcard.IOctl(cmd, buff);
    7714:	6a 81       	ldd	r22, Y+2	; 0x02
    7716:	8f e8       	ldi	r24, 0x8F	; 143
    7718:	91 e2       	ldi	r25, 0x21	; 33
    771a:	f5 dd       	rcall	.-1046   	; 0x7306 <_ZN6SDCard5IOctlEhPv>
    771c:	01 c0       	rjmp	.+2      	; 0x7720 <disk_ioctl+0x26>
 DRESULT disk_write (BYTE pdrv, const BYTE* buff, DWORD sector, UINT count){
	if (!sdcard.IDMatch(pdrv)) return RES_PARERR;
	return sdcard.write(buff, sector, count);
 }
 DRESULT disk_ioctl (BYTE pdrv, BYTE cmd, void* buff){
	if (!sdcard.IDMatch(pdrv)) return RES_PARERR;
    771e:	84 e0       	ldi	r24, 0x04	; 4
	return sdcard.IOctl(cmd, buff);
 }
    7720:	0f 90       	pop	r0
    7722:	0f 90       	pop	r0
    7724:	df 91       	pop	r29
    7726:	cf 91       	pop	r28
    7728:	08 95       	ret

0000772a <_GLOBAL__sub_I_sdcard>:
	DSTATUS getStatus();
	DRESULT read(BYTE* buff, DWORD sector, UINT count);
	DRESULT write(const BYTE* buff, DWORD sector, UINT count);
	DRESULT IOctl(BYTE ctrl, void* buff);
};
SDCard sdcard(&SPIE);
    772a:	60 ec       	ldi	r22, 0xC0	; 192
    772c:	7a e0       	ldi	r23, 0x0A	; 10
    772e:	8f e8       	ldi	r24, 0x8F	; 143
    7730:	91 e2       	ldi	r25, 0x21	; 33
    7732:	ed c9       	rjmp	.-3110   	; 0x6b0e <_ZN6SDCardC1EP10SPI_struct>
    7734:	08 95       	ret

00007736 <_ZN10SPI_DriverC1EP10SPI_struct>:
 void SPI_Driver::disable() {
	spi->CTRL &= ~0x40;
 }
 bool SPI_Driver::txOK() {
	return spi->STATUS & 0x80 ? true : false;
 }
    7736:	dc 01       	movw	r26, r24
    7738:	6d 93       	st	X+, r22
    773a:	7c 93       	st	X, r23
    773c:	11 97       	sbiw	r26, 0x01	; 1
    773e:	23 e9       	ldi	r18, 0x93	; 147
    7740:	fb 01       	movw	r30, r22
    7742:	20 83       	st	Z, r18
    7744:	ed 91       	ld	r30, X+
    7746:	fc 91       	ld	r31, X
    7748:	11 82       	std	Z+1, r1	; 0x01
    774a:	08 95       	ret

0000774c <_ZN10SPI_Driver9clockRateEc>:
    774c:	dc 01       	movw	r26, r24
    774e:	ed 91       	ld	r30, X+
    7750:	fc 91       	ld	r31, X
    7752:	11 97       	sbiw	r26, 0x01	; 1
    7754:	20 81       	ld	r18, Z
    7756:	2c 77       	andi	r18, 0x7C	; 124
    7758:	20 83       	st	Z, r18
    775a:	ed 91       	ld	r30, X+
    775c:	fc 91       	ld	r31, X
    775e:	80 81       	ld	r24, Z
    7760:	68 2b       	or	r22, r24
    7762:	60 83       	st	Z, r22
    7764:	08 95       	ret

00007766 <_ZN10SPI_Driver6enableEv>:
    7766:	dc 01       	movw	r26, r24
    7768:	ed 91       	ld	r30, X+
    776a:	fc 91       	ld	r31, X
    776c:	80 81       	ld	r24, Z
    776e:	80 64       	ori	r24, 0x40	; 64
    7770:	80 83       	st	Z, r24
    7772:	08 95       	ret

00007774 <_ZN10SPI_Driver3putEh>:
 void SPI_Driver::put(BYTE c) {
    7774:	cf 93       	push	r28
    7776:	df 93       	push	r29
    7778:	1f 92       	push	r1
    777a:	cd b7       	in	r28, 0x3d	; 61
    777c:	de b7       	in	r29, 0x3e	; 62
    777e:	69 83       	std	Y+1, r22	; 0x01
		spi->DATA = c;
		tx_in_prog = true;
	}else {
		MOQueue.enqueue(c);
	}*/
	spi->DATA = c;
    7780:	dc 01       	movw	r26, r24
    7782:	ed 91       	ld	r30, X+
    7784:	fc 91       	ld	r31, X
    7786:	11 97       	sbiw	r26, 0x01	; 1
    7788:	29 81       	ldd	r18, Y+1	; 0x01
    778a:	23 83       	std	Z+3, r18	; 0x03
	while(!(spi->STATUS & SPI_IF_bm)){}
    778c:	ed 91       	ld	r30, X+
    778e:	fc 91       	ld	r31, X
    7790:	82 81       	ldd	r24, Z+2	; 0x02
    7792:	88 23       	and	r24, r24
    7794:	ec f7       	brge	.-6      	; 0x7790 <_ZN10SPI_Driver3putEh+0x1c>
 }
    7796:	0f 90       	pop	r0
    7798:	df 91       	pop	r29
    779a:	cf 91       	pop	r28
    779c:	08 95       	ret

0000779e <_ZN10SPI_Driver3getEv>:
 BYTE SPI_Driver::get() {
	spi->DATA = 0xFF;
    779e:	dc 01       	movw	r26, r24
    77a0:	ed 91       	ld	r30, X+
    77a2:	fc 91       	ld	r31, X
    77a4:	11 97       	sbiw	r26, 0x01	; 1
    77a6:	2f ef       	ldi	r18, 0xFF	; 255
    77a8:	23 83       	std	Z+3, r18	; 0x03
	while(!(spi->STATUS & SPI_IF_bm)){}
    77aa:	ed 91       	ld	r30, X+
    77ac:	fc 91       	ld	r31, X
    77ae:	82 81       	ldd	r24, Z+2	; 0x02
    77b0:	88 23       	and	r24, r24
    77b2:	ec f7       	brge	.-6      	; 0x77ae <_ZN10SPI_Driver3getEv+0x10>
	return spi->DATA;
    77b4:	83 81       	ldd	r24, Z+3	; 0x03
 }
    77b6:	08 95       	ret

000077b8 <_ZN10SPI_Driver12get_bufferedEPVh>:
 void SPI_Driver::get_buffered(BYTE * dst) {
	spi->DATA = 0xFF;
    77b8:	dc 01       	movw	r26, r24
    77ba:	ed 91       	ld	r30, X+
    77bc:	fc 91       	ld	r31, X
    77be:	11 97       	sbiw	r26, 0x01	; 1
    77c0:	2f ef       	ldi	r18, 0xFF	; 255
    77c2:	23 83       	std	Z+3, r18	; 0x03
	while (!(spi->STATUS & SPI_IF_bm)) {}
    77c4:	ed 91       	ld	r30, X+
    77c6:	fc 91       	ld	r31, X
    77c8:	82 81       	ldd	r24, Z+2	; 0x02
    77ca:	88 23       	and	r24, r24
    77cc:	ec f7       	brge	.-6      	; 0x77c8 <_ZN10SPI_Driver12get_bufferedEPVh+0x10>
	*(dst)=spi->DATA;
    77ce:	83 81       	ldd	r24, Z+3	; 0x03
    77d0:	fb 01       	movw	r30, r22
    77d2:	80 83       	st	Z, r24
    77d4:	08 95       	ret

000077d6 <_ZN5Touch8getCycleEv>:

void Touch::startY() {

	// Start ADC
	ADCA.CH0.MUXCTRL = 0x2F;
	ADCA.CH0.CTRL = 0x82;
    77d6:	fc 01       	movw	r30, r24
    77d8:	20 81       	ld	r18, Z
    77da:	31 81       	ldd	r19, Z+1	; 0x01
    77dc:	2f 5f       	subi	r18, 0xFF	; 255
    77de:	3f 4f       	sbci	r19, 0xFF	; 255
    77e0:	24 30       	cpi	r18, 0x04	; 4
    77e2:	31 05       	cpc	r19, r1
    77e4:	19 f4       	brne	.+6      	; 0x77ec <_ZN5Touch8getCycleEv+0x16>
    77e6:	80 e0       	ldi	r24, 0x00	; 0
    77e8:	90 e0       	ldi	r25, 0x00	; 0
    77ea:	02 c0       	rjmp	.+4      	; 0x77f0 <_ZN5Touch8getCycleEv+0x1a>
    77ec:	82 2f       	mov	r24, r18
    77ee:	93 2f       	mov	r25, r19
    77f0:	80 83       	st	Z, r24
    77f2:	91 83       	std	Z+1, r25	; 0x01
    77f4:	08 95       	ret

000077f6 <_ZN5Touch6setupXEv>:

	//return ADCA.CH0.RES;
}

void Touch::setupX()
{
    77f6:	dc 01       	movw	r26, r24
    while(!(ADCA.CH0.INTFLAGS & 0x01));
    77f8:	e0 e0       	ldi	r30, 0x00	; 0
    77fa:	f2 e0       	ldi	r31, 0x02	; 2
    77fc:	83 a1       	ldd	r24, Z+35	; 0x23
    77fe:	80 ff       	sbrs	r24, 0
    7800:	fd cf       	rjmp	.-6      	; 0x77fc <_ZN5Touch6setupXEv+0x6>
	xout = xin;
    7802:	16 96       	adiw	r26, 0x06	; 6
    7804:	8d 91       	ld	r24, X+
    7806:	9c 91       	ld	r25, X
    7808:	17 97       	sbiw	r26, 0x07	; 7
    780a:	12 96       	adiw	r26, 0x02	; 2
    780c:	8d 93       	st	X+, r24
    780e:	9c 93       	st	X, r25
    7810:	13 97       	sbiw	r26, 0x03	; 3
	yout = ADCA.CH0.RES;
    7812:	e0 e0       	ldi	r30, 0x00	; 0
    7814:	f2 e0       	ldi	r31, 0x02	; 2
    7816:	84 a1       	ldd	r24, Z+36	; 0x24
    7818:	95 a1       	ldd	r25, Z+37	; 0x25
    781a:	14 96       	adiw	r26, 0x04	; 4
    781c:	8d 93       	st	X+, r24
    781e:	9c 93       	st	X, r25
    7820:	15 97       	sbiw	r26, 0x05	; 5

    //// Set yp high, set xp input
	TFT_CTRL_PORT.DIRCLR = 0x50;
    7822:	e0 e0       	ldi	r30, 0x00	; 0
    7824:	f6 e0       	ldi	r31, 0x06	; 6
    7826:	80 e5       	ldi	r24, 0x50	; 80
    7828:	82 83       	std	Z+2, r24	; 0x02
	TFT_CTRL_PORT.DIRSET = 0xA0;
    782a:	80 ea       	ldi	r24, 0xA0	; 160
    782c:	81 83       	std	Z+1, r24	; 0x01
	TFT_Y_P_SET;
    782e:	84 81       	ldd	r24, Z+4	; 0x04
    7830:	80 62       	ori	r24, 0x20	; 32
    7832:	84 83       	std	Z+4, r24	; 0x04
	TFT_Y_M_CLR;
    7834:	84 81       	ldd	r24, Z+4	; 0x04
    7836:	8f 77       	andi	r24, 0x7F	; 127
    7838:	84 83       	std	Z+4, r24	; 0x04
    783a:	08 95       	ret

0000783c <_ZN5Touch6setupYEv>:
}

void Touch::setupY()
{
    while(!(ADCA.CH0.INTFLAGS & 0x01));
    783c:	e0 e0       	ldi	r30, 0x00	; 0
    783e:	f2 e0       	ldi	r31, 0x02	; 2
    7840:	23 a1       	ldd	r18, Z+35	; 0x23
    7842:	20 ff       	sbrs	r18, 0
    7844:	fd cf       	rjmp	.-6      	; 0x7840 <_ZN5Touch6setupYEv+0x4>
	xin = ADCA.CH0.RES;
    7846:	e0 e0       	ldi	r30, 0x00	; 0
    7848:	f2 e0       	ldi	r31, 0x02	; 2
    784a:	24 a1       	ldd	r18, Z+36	; 0x24
    784c:	35 a1       	ldd	r19, Z+37	; 0x25
    784e:	fc 01       	movw	r30, r24
    7850:	26 83       	std	Z+6, r18	; 0x06
    7852:	37 83       	std	Z+7, r19	; 0x07

    // Set xp high, set yp input
	TFT_CTRL_PORT.DIRCLR = 0xA0;
    7854:	e0 e0       	ldi	r30, 0x00	; 0
    7856:	f6 e0       	ldi	r31, 0x06	; 6
    7858:	80 ea       	ldi	r24, 0xA0	; 160
    785a:	82 83       	std	Z+2, r24	; 0x02
	TFT_CTRL_PORT.DIRSET = 0x50;
    785c:	80 e5       	ldi	r24, 0x50	; 80
    785e:	81 83       	std	Z+1, r24	; 0x01
	TFT_X_P_SET;
    7860:	84 81       	ldd	r24, Z+4	; 0x04
    7862:	80 61       	ori	r24, 0x10	; 16
    7864:	84 83       	std	Z+4, r24	; 0x04
	TFT_X_M_CLR;
    7866:	84 81       	ldd	r24, Z+4	; 0x04
    7868:	8f 7b       	andi	r24, 0xBF	; 191
    786a:	84 83       	std	Z+4, r24	; 0x04
    786c:	08 95       	ret

0000786e <_ZN5Touch7processEv>:
}

void Touch::process()
{
    786e:	cf 93       	push	r28
    7870:	df 93       	push	r29
    7872:	ec 01       	movw	r28, r24
    switch (this->getCycle())
    7874:	b0 df       	rcall	.-160    	; 0x77d6 <_ZN5Touch8getCycleEv>
    7876:	81 30       	cpi	r24, 0x01	; 1
    7878:	91 05       	cpc	r25, r1
    787a:	69 f0       	breq	.+26     	; 0x7896 <_ZN5Touch7processEv+0x28>
    787c:	1c f4       	brge	.+6      	; 0x7884 <_ZN5Touch7processEv+0x16>
    787e:	89 2b       	or	r24, r25
    7880:	39 f0       	breq	.+14     	; 0x7890 <_ZN5Touch7processEv+0x22>
    7882:	1a c0       	rjmp	.+52     	; 0x78b8 <_ZN5Touch7processEv+0x4a>
    7884:	82 30       	cpi	r24, 0x02	; 2
    7886:	91 05       	cpc	r25, r1
    7888:	69 f0       	breq	.+26     	; 0x78a4 <_ZN5Touch7processEv+0x36>
    788a:	03 97       	sbiw	r24, 0x03	; 3
    788c:	71 f0       	breq	.+28     	; 0x78aa <_ZN5Touch7processEv+0x3c>
    788e:	14 c0       	rjmp	.+40     	; 0x78b8 <_ZN5Touch7processEv+0x4a>
	{
	    case 0: setupX(); break;
    7890:	ce 01       	movw	r24, r28
    7892:	b1 df       	rcall	.-158    	; 0x77f6 <_ZN5Touch6setupXEv>
    7894:	12 c0       	rjmp	.+36     	; 0x78ba <_ZN5Touch7processEv+0x4c>
}

void Touch::startX() {

	// Start ADC
	ADCA.CH0.MUXCTRL = 0x27;
    7896:	e0 e0       	ldi	r30, 0x00	; 0
    7898:	f2 e0       	ldi	r31, 0x02	; 2
    789a:	87 e2       	ldi	r24, 0x27	; 39
    789c:	81 a3       	std	Z+33, r24	; 0x21
	ADCA.CH0.CTRL = 0x82;
    789e:	82 e8       	ldi	r24, 0x82	; 130
    78a0:	80 a3       	std	Z+32, r24	; 0x20
    78a2:	0b c0       	rjmp	.+22     	; 0x78ba <_ZN5Touch7processEv+0x4c>
{
    switch (this->getCycle())
	{
	    case 0: setupX(); break;
		case 1: startX(); break;
		case 2: setupY(); break;
    78a4:	ce 01       	movw	r24, r28
    78a6:	ca df       	rcall	.-108    	; 0x783c <_ZN5Touch6setupYEv>
    78a8:	08 c0       	rjmp	.+16     	; 0x78ba <_ZN5Touch7processEv+0x4c>
}

void Touch::startY() {

	// Start ADC
	ADCA.CH0.MUXCTRL = 0x2F;
    78aa:	e0 e0       	ldi	r30, 0x00	; 0
    78ac:	f2 e0       	ldi	r31, 0x02	; 2
    78ae:	8f e2       	ldi	r24, 0x2F	; 47
    78b0:	81 a3       	std	Z+33, r24	; 0x21
	ADCA.CH0.CTRL = 0x82;
    78b2:	82 e8       	ldi	r24, 0x82	; 130
    78b4:	80 a3       	std	Z+32, r24	; 0x20
    78b6:	01 c0       	rjmp	.+2      	; 0x78ba <_ZN5Touch7processEv+0x4c>
	{
	    case 0: setupX(); break;
		case 1: startX(); break;
		case 2: setupY(); break;
		case 3: startY(); break;
		default: asm("nop");
    78b8:	00 00       	nop
	}
}
    78ba:	df 91       	pop	r29
    78bc:	cf 91       	pop	r28
    78be:	08 95       	ret

000078c0 <_ZN5Touch4getXEv>:

int Touch::getX()
{
    return this->xout;
}
    78c0:	fc 01       	movw	r30, r24
    78c2:	82 81       	ldd	r24, Z+2	; 0x02
    78c4:	93 81       	ldd	r25, Z+3	; 0x03
    78c6:	08 95       	ret

000078c8 <_ZN5Touch4getYEv>:

int Touch::getY()
{
    return this->yout;
    78c8:	fc 01       	movw	r30, r24
    78ca:	84 81       	ldd	r24, Z+4	; 0x04
    78cc:	95 81       	ldd	r25, Z+5	; 0x05
    78ce:	08 95       	ret

000078d0 <_ZN10UartDriverC1Eii>:
 *  Author: ee63pc3-user
 */ 

#include "uart_driver.h"

UartDriver::UartDriver(int rx_buffer_size, int tx_buffer_size) : rxQueue(rx_buffer_size), txQueue(tx_buffer_size) {}
    78d0:	0f 93       	push	r16
    78d2:	1f 93       	push	r17
    78d4:	cf 93       	push	r28
    78d6:	df 93       	push	r29
    78d8:	ec 01       	movw	r28, r24
    78da:	8a 01       	movw	r16, r20
    78dc:	02 96       	adiw	r24, 0x02	; 2
    78de:	0e 94 fa 0d 	call	0x1bf4	; 0x1bf4 <_ZN9ByteQueueC1Ei>
    78e2:	b8 01       	movw	r22, r16
    78e4:	ce 01       	movw	r24, r28
    78e6:	0e 96       	adiw	r24, 0x0e	; 14
    78e8:	0e 94 fa 0d 	call	0x1bf4	; 0x1bf4 <_ZN9ByteQueueC1Ei>
    78ec:	df 91       	pop	r29
    78ee:	cf 91       	pop	r28
    78f0:	1f 91       	pop	r17
    78f2:	0f 91       	pop	r16
    78f4:	08 95       	ret

000078f6 <_ZN10UartDriver4dumpEP3FIL>:
	
void UartDriver::dump(FIL * fp) {
	rxQueue.dumpToFile(fp);
    78f6:	02 96       	adiw	r24, 0x02	; 2
    78f8:	0c 94 0f 0e 	jmp	0x1c1e	; 0x1c1e <_ZN9ByteQueue10dumpToFileEP3FIL>
    78fc:	08 95       	ret

000078fe <_ZN10UartDriver4initEP12USART_structN10ParityMode5PMODEEN8CharSize6CHSIZEEbcc>:
}

void UartDriver::init(USART_t * uval, ParityMode::PMODE pmode, CharSize::CHSIZE chsize, bool stopbit, char baudctrla, char baudctrlb)
{
    78fe:	cf 92       	push	r12
    7900:	ef 92       	push	r14
    7902:	0f 93       	push	r16
    7904:	fc 01       	movw	r30, r24
	this->uval = uval;
    7906:	60 83       	st	Z, r22
    7908:	71 83       	std	Z+1, r23	; 0x01
	this->uval->CTRLC = 0x00;
    790a:	db 01       	movw	r26, r22
    790c:	15 96       	adiw	r26, 0x05	; 5
    790e:	1c 92       	st	X, r1
	this->uval->BAUDCTRLA = baudctrla;
    7910:	a0 81       	ld	r26, Z
    7912:	b1 81       	ldd	r27, Z+1	; 0x01
    7914:	16 96       	adiw	r26, 0x06	; 6
    7916:	ec 92       	st	X, r14
	this->uval->BAUDCTRLB = baudctrlb;
    7918:	a0 81       	ld	r26, Z
    791a:	b1 81       	ldd	r27, Z+1	; 0x01
    791c:	17 96       	adiw	r26, 0x07	; 7
    791e:	cc 92       	st	X, r12

	if (pmode == ParityMode::EVEN) this->uval->CTRLC |= 0x20;
    7920:	41 30       	cpi	r20, 0x01	; 1
    7922:	49 f4       	brne	.+18     	; 0x7936 <_ZN10UartDriver4initEP12USART_structN10ParityMode5PMODEEN8CharSize6CHSIZEEbcc+0x38>
    7924:	a0 81       	ld	r26, Z
    7926:	b1 81       	ldd	r27, Z+1	; 0x01
    7928:	15 96       	adiw	r26, 0x05	; 5
    792a:	8c 91       	ld	r24, X
    792c:	15 97       	sbiw	r26, 0x05	; 5
    792e:	80 62       	ori	r24, 0x20	; 32
    7930:	15 96       	adiw	r26, 0x05	; 5
    7932:	8c 93       	st	X, r24
    7934:	0a c0       	rjmp	.+20     	; 0x794a <_ZN10UartDriver4initEP12USART_structN10ParityMode5PMODEEN8CharSize6CHSIZEEbcc+0x4c>
	else if (pmode == ParityMode::ODD) this->uval->CTRLC |= 0x30;
    7936:	42 30       	cpi	r20, 0x02	; 2
    7938:	41 f4       	brne	.+16     	; 0x794a <_ZN10UartDriver4initEP12USART_structN10ParityMode5PMODEEN8CharSize6CHSIZEEbcc+0x4c>
    793a:	a0 81       	ld	r26, Z
    793c:	b1 81       	ldd	r27, Z+1	; 0x01
    793e:	15 96       	adiw	r26, 0x05	; 5
    7940:	8c 91       	ld	r24, X
    7942:	15 97       	sbiw	r26, 0x05	; 5
    7944:	80 63       	ori	r24, 0x30	; 48
    7946:	15 96       	adiw	r26, 0x05	; 5
    7948:	8c 93       	st	X, r24
	
	if (chsize == CharSize::SIX) this->uval->CTRLC |= 0x01;
    794a:	21 30       	cpi	r18, 0x01	; 1
    794c:	49 f4       	brne	.+18     	; 0x7960 <_ZN10UartDriver4initEP12USART_structN10ParityMode5PMODEEN8CharSize6CHSIZEEbcc+0x62>
    794e:	a0 81       	ld	r26, Z
    7950:	b1 81       	ldd	r27, Z+1	; 0x01
    7952:	15 96       	adiw	r26, 0x05	; 5
    7954:	8c 91       	ld	r24, X
    7956:	15 97       	sbiw	r26, 0x05	; 5
    7958:	81 60       	ori	r24, 0x01	; 1
    795a:	15 96       	adiw	r26, 0x05	; 5
    795c:	8c 93       	st	X, r24
    795e:	20 c0       	rjmp	.+64     	; 0x79a0 <_ZN10UartDriver4initEP12USART_structN10ParityMode5PMODEEN8CharSize6CHSIZEEbcc+0xa2>
	else if (chsize == CharSize::SEVEN) this->uval->CTRLC |= 0x02;
    7960:	22 30       	cpi	r18, 0x02	; 2
    7962:	49 f4       	brne	.+18     	; 0x7976 <_ZN10UartDriver4initEP12USART_structN10ParityMode5PMODEEN8CharSize6CHSIZEEbcc+0x78>
    7964:	a0 81       	ld	r26, Z
    7966:	b1 81       	ldd	r27, Z+1	; 0x01
    7968:	15 96       	adiw	r26, 0x05	; 5
    796a:	8c 91       	ld	r24, X
    796c:	15 97       	sbiw	r26, 0x05	; 5
    796e:	82 60       	ori	r24, 0x02	; 2
    7970:	15 96       	adiw	r26, 0x05	; 5
    7972:	8c 93       	st	X, r24
    7974:	15 c0       	rjmp	.+42     	; 0x79a0 <_ZN10UartDriver4initEP12USART_structN10ParityMode5PMODEEN8CharSize6CHSIZEEbcc+0xa2>
	else if (chsize == CharSize::EIGHT) this->uval->CTRLC |= 0x03;
    7976:	23 30       	cpi	r18, 0x03	; 3
    7978:	49 f4       	brne	.+18     	; 0x798c <_ZN10UartDriver4initEP12USART_structN10ParityMode5PMODEEN8CharSize6CHSIZEEbcc+0x8e>
    797a:	a0 81       	ld	r26, Z
    797c:	b1 81       	ldd	r27, Z+1	; 0x01
    797e:	15 96       	adiw	r26, 0x05	; 5
    7980:	8c 91       	ld	r24, X
    7982:	15 97       	sbiw	r26, 0x05	; 5
    7984:	83 60       	ori	r24, 0x03	; 3
    7986:	15 96       	adiw	r26, 0x05	; 5
    7988:	8c 93       	st	X, r24
    798a:	0a c0       	rjmp	.+20     	; 0x79a0 <_ZN10UartDriver4initEP12USART_structN10ParityMode5PMODEEN8CharSize6CHSIZEEbcc+0xa2>
	else if (chsize == CharSize::NINE) this->uval->CTRLC |= 0x07;
    798c:	24 30       	cpi	r18, 0x04	; 4
    798e:	41 f4       	brne	.+16     	; 0x79a0 <_ZN10UartDriver4initEP12USART_structN10ParityMode5PMODEEN8CharSize6CHSIZEEbcc+0xa2>
    7990:	a0 81       	ld	r26, Z
    7992:	b1 81       	ldd	r27, Z+1	; 0x01
    7994:	15 96       	adiw	r26, 0x05	; 5
    7996:	8c 91       	ld	r24, X
    7998:	15 97       	sbiw	r26, 0x05	; 5
    799a:	87 60       	ori	r24, 0x07	; 7
    799c:	15 96       	adiw	r26, 0x05	; 5
    799e:	8c 93       	st	X, r24
	
	if (stopbit) this->uval->CTRLC |= 0x08;
    79a0:	00 23       	and	r16, r16
    79a2:	41 f0       	breq	.+16     	; 0x79b4 <_ZN10UartDriver4initEP12USART_structN10ParityMode5PMODEEN8CharSize6CHSIZEEbcc+0xb6>
    79a4:	a0 81       	ld	r26, Z
    79a6:	b1 81       	ldd	r27, Z+1	; 0x01
    79a8:	15 96       	adiw	r26, 0x05	; 5
    79aa:	8c 91       	ld	r24, X
    79ac:	15 97       	sbiw	r26, 0x05	; 5
    79ae:	88 60       	ori	r24, 0x08	; 8
    79b0:	15 96       	adiw	r26, 0x05	; 5
    79b2:	8c 93       	st	X, r24

	this->uval->CTRLA = 0x3F; //set receive and transmit interrupt to high priority
    79b4:	a0 81       	ld	r26, Z
    79b6:	b1 81       	ldd	r27, Z+1	; 0x01
    79b8:	8f e3       	ldi	r24, 0x3F	; 63
    79ba:	13 96       	adiw	r26, 0x03	; 3
    79bc:	8c 93       	st	X, r24
	this->uval->CTRLB = 0x18; //set rxen, txen
    79be:	01 90       	ld	r0, Z+
    79c0:	f0 81       	ld	r31, Z
    79c2:	e0 2d       	mov	r30, r0
    79c4:	88 e1       	ldi	r24, 0x18	; 24
    79c6:	84 83       	std	Z+4, r24	; 0x04
}
    79c8:	0f 91       	pop	r16
    79ca:	ef 90       	pop	r14
    79cc:	cf 90       	pop	r12
    79ce:	08 95       	ret

000079d0 <_ZN10UartDriver8sendByteEc>:

void UartDriver::sendByte(char c) {
    79d0:	cf 93       	push	r28
    79d2:	df 93       	push	r29
    79d4:	ec 01       	movw	r28, r24
	if (this->uval->STATUS & USART_DREIF_bm) {
    79d6:	e8 81       	ld	r30, Y
    79d8:	f9 81       	ldd	r31, Y+1	; 0x01
    79da:	81 81       	ldd	r24, Z+1	; 0x01
    79dc:	85 ff       	sbrs	r24, 5
    79de:	02 c0       	rjmp	.+4      	; 0x79e4 <_ZN10UartDriver8sendByteEc+0x14>
		//IF data register is empty, transmit the next character
		this->uval->DATA = c;
    79e0:	60 83       	st	Z, r22
    79e2:	04 c0       	rjmp	.+8      	; 0x79ec <_ZN10UartDriver8sendByteEc+0x1c>
	}else {
		//try to add to the queue if it is not empty (not guaranteed)
		txQueue.enqueue(c);
    79e4:	ce 01       	movw	r24, r28
    79e6:	0e 96       	adiw	r24, 0x0e	; 14
    79e8:	0e 94 31 0e 	call	0x1c62	; 0x1c62 <_ZN9ByteQueue7enqueueEc>
	}
	uval->CTRLA |= (0x03);
    79ec:	e8 81       	ld	r30, Y
    79ee:	f9 81       	ldd	r31, Y+1	; 0x01
    79f0:	83 81       	ldd	r24, Z+3	; 0x03
    79f2:	83 60       	ori	r24, 0x03	; 3
    79f4:	83 83       	std	Z+3, r24	; 0x03
}
    79f6:	df 91       	pop	r29
    79f8:	cf 91       	pop	r28
    79fa:	08 95       	ret

000079fc <_ZN10UartDriver7rcvByteEc>:
void UartDriver::rcvByte(char c) {
	rxQueue.enqueue(c);
    79fc:	02 96       	adiw	r24, 0x02	; 2
    79fe:	0c 94 31 0e 	jmp	0x1c62	; 0x1c62 <_ZN9ByteQueue7enqueueEc>
    7a02:	08 95       	ret

00007a04 <_ZN10UartDriver9rxDequeueEv>:
}

char UartDriver::rxDequeue() {
	return rxQueue.dequeue();
    7a04:	02 96       	adiw	r24, 0x02	; 2
    7a06:	0c 94 5a 0e 	jmp	0x1cb4	; 0x1cb4 <_ZN9ByteQueue7dequeueEv>
}
    7a0a:	08 95       	ret

00007a0c <_ZN10UartDriver9rxIsEmptyEv>:
bool UartDriver::rxIsEmpty() {
	return rxQueue.isEmpty();
    7a0c:	02 96       	adiw	r24, 0x02	; 2
    7a0e:	0c 94 8d 0e 	jmp	0x1d1a	; 0x1d1a <_ZN9ByteQueue7isEmptyEv>
}
    7a12:	08 95       	ret

00007a14 <_ZN10UartDriver9txIsEmptyEv>:
bool UartDriver::txIsEmpty() {
	return txQueue.isEmpty();
    7a14:	0e 96       	adiw	r24, 0x0e	; 14
    7a16:	0c 94 8d 0e 	jmp	0x1d1a	; 0x1d1a <_ZN9ByteQueue7isEmptyEv>
}
    7a1a:	08 95       	ret

00007a1c <_ZN10UartDriver9txDequeueEv>:
char UartDriver::txDequeue() {
	return txQueue.dequeue();
    7a1c:	0e 96       	adiw	r24, 0x0e	; 14
    7a1e:	0c 94 5a 0e 	jmp	0x1cb4	; 0x1cb4 <_ZN9ByteQueue7dequeueEv>
}
    7a22:	08 95       	ret

00007a24 <_ZN10UartDriver11getUARTPortEv>:
USART_t * UartDriver::getUARTPort() {
	return uval;
}
    7a24:	fc 01       	movw	r30, r24
    7a26:	80 81       	ld	r24, Z
    7a28:	91 81       	ldd	r25, Z+1	; 0x01
    7a2a:	08 95       	ret

00007a2c <_ZN10UartDriver10sendStringEPKcih>:

BYTE UartDriver::sendString(const char * str, int numchars, BYTE checksum) {
    7a2c:	af 92       	push	r10
    7a2e:	bf 92       	push	r11
    7a30:	cf 92       	push	r12
    7a32:	df 92       	push	r13
    7a34:	ef 92       	push	r14
    7a36:	ff 92       	push	r15
    7a38:	0f 93       	push	r16
    7a3a:	1f 93       	push	r17
    7a3c:	cf 93       	push	r28
    7a3e:	df 93       	push	r29
    7a40:	00 d0       	rcall	.+0      	; 0x7a42 <_ZN10UartDriver10sendStringEPKcih+0x16>
    7a42:	cd b7       	in	r28, 0x3d	; 61
    7a44:	de b7       	in	r29, 0x3e	; 62
    7a46:	5c 01       	movw	r10, r24
    7a48:	7b 01       	movw	r14, r22
    7a4a:	6a 01       	movw	r12, r20
    7a4c:	2b 83       	std	Y+3, r18	; 0x03
	 for (volatile int i = 0; i < numchars; i++) {
    7a4e:	19 82       	std	Y+1, r1	; 0x01
    7a50:	1a 82       	std	Y+2, r1	; 0x02
    7a52:	89 81       	ldd	r24, Y+1	; 0x01
    7a54:	9a 81       	ldd	r25, Y+2	; 0x02
    7a56:	84 17       	cp	r24, r20
    7a58:	95 07       	cpc	r25, r21
    7a5a:	b4 f5       	brge	.+108    	; 0x7ac8 <_ZN10UartDriver10sendStringEPKcih+0x9c>
		if (str[i] == '\0') break;
    7a5c:	e9 81       	ldd	r30, Y+1	; 0x01
    7a5e:	fa 81       	ldd	r31, Y+2	; 0x02
    7a60:	e6 0f       	add	r30, r22
    7a62:	f7 1f       	adc	r31, r23
    7a64:	80 81       	ld	r24, Z
    7a66:	88 23       	and	r24, r24
    7a68:	79 f1       	breq	.+94     	; 0x7ac8 <_ZN10UartDriver10sendStringEPKcih+0x9c>
		if (str[i] != '$' && str[i] != '*') checksum ^= str[i];
		while (txQueue.isFull()) {}
    7a6a:	85 01       	movw	r16, r10
    7a6c:	02 5f       	subi	r16, 0xF2	; 242
    7a6e:	1f 4f       	sbci	r17, 0xFF	; 255
    7a70:	07 c0       	rjmp	.+14     	; 0x7a80 <_ZN10UartDriver10sendStringEPKcih+0x54>
	return uval;
}

BYTE UartDriver::sendString(const char * str, int numchars, BYTE checksum) {
	 for (volatile int i = 0; i < numchars; i++) {
		if (str[i] == '\0') break;
    7a72:	e9 81       	ldd	r30, Y+1	; 0x01
    7a74:	fa 81       	ldd	r31, Y+2	; 0x02
    7a76:	ee 0d       	add	r30, r14
    7a78:	ff 1d       	adc	r31, r15
    7a7a:	80 81       	ld	r24, Z
    7a7c:	88 23       	and	r24, r24
    7a7e:	21 f1       	breq	.+72     	; 0x7ac8 <_ZN10UartDriver10sendStringEPKcih+0x9c>
		if (str[i] != '$' && str[i] != '*') checksum ^= str[i];
    7a80:	e9 81       	ldd	r30, Y+1	; 0x01
    7a82:	fa 81       	ldd	r31, Y+2	; 0x02
    7a84:	ee 0d       	add	r30, r14
    7a86:	ff 1d       	adc	r31, r15
    7a88:	80 81       	ld	r24, Z
    7a8a:	84 32       	cpi	r24, 0x24	; 36
    7a8c:	39 f0       	breq	.+14     	; 0x7a9c <_ZN10UartDriver10sendStringEPKcih+0x70>
    7a8e:	e9 81       	ldd	r30, Y+1	; 0x01
    7a90:	fa 81       	ldd	r31, Y+2	; 0x02
    7a92:	ee 0d       	add	r30, r14
    7a94:	ff 1d       	adc	r31, r15
    7a96:	80 81       	ld	r24, Z
    7a98:	8a 32       	cpi	r24, 0x2A	; 42
    7a9a:	c1 f4       	brne	.+48     	; 0x7acc <_ZN10UartDriver10sendStringEPKcih+0xa0>
		while (txQueue.isFull()) {}
    7a9c:	c8 01       	movw	r24, r16
    7a9e:	0e 94 82 0e 	call	0x1d04	; 0x1d04 <_ZN9ByteQueue6isFullEv>
    7aa2:	81 11       	cpse	r24, r1
    7aa4:	fb cf       	rjmp	.-10     	; 0x7a9c <_ZN10UartDriver10sendStringEPKcih+0x70>
		this->sendByte(str[i]);
    7aa6:	e9 81       	ldd	r30, Y+1	; 0x01
    7aa8:	fa 81       	ldd	r31, Y+2	; 0x02
    7aaa:	ee 0d       	add	r30, r14
    7aac:	ff 1d       	adc	r31, r15
    7aae:	60 81       	ld	r22, Z
    7ab0:	c5 01       	movw	r24, r10
    7ab2:	8e df       	rcall	.-228    	; 0x79d0 <_ZN10UartDriver8sendByteEc>
USART_t * UartDriver::getUARTPort() {
	return uval;
}

BYTE UartDriver::sendString(const char * str, int numchars, BYTE checksum) {
	 for (volatile int i = 0; i < numchars; i++) {
    7ab4:	89 81       	ldd	r24, Y+1	; 0x01
    7ab6:	9a 81       	ldd	r25, Y+2	; 0x02
    7ab8:	01 96       	adiw	r24, 0x01	; 1
    7aba:	89 83       	std	Y+1, r24	; 0x01
    7abc:	9a 83       	std	Y+2, r25	; 0x02
    7abe:	29 81       	ldd	r18, Y+1	; 0x01
    7ac0:	3a 81       	ldd	r19, Y+2	; 0x02
    7ac2:	2c 15       	cp	r18, r12
    7ac4:	3d 05       	cpc	r19, r13
    7ac6:	ac f2       	brlt	.-86     	; 0x7a72 <_ZN10UartDriver10sendStringEPKcih+0x46>
		if (str[i] != '$' && str[i] != '*') checksum ^= str[i];
		while (txQueue.isFull()) {}
		this->sendByte(str[i]);
	 }

	 return checksum;
    7ac8:	8b 81       	ldd	r24, Y+3	; 0x03
    7aca:	09 c0       	rjmp	.+18     	; 0x7ade <_ZN10UartDriver10sendStringEPKcih+0xb2>
}

BYTE UartDriver::sendString(const char * str, int numchars, BYTE checksum) {
	 for (volatile int i = 0; i < numchars; i++) {
		if (str[i] == '\0') break;
		if (str[i] != '$' && str[i] != '*') checksum ^= str[i];
    7acc:	e9 81       	ldd	r30, Y+1	; 0x01
    7ace:	fa 81       	ldd	r31, Y+2	; 0x02
    7ad0:	9b 81       	ldd	r25, Y+3	; 0x03
    7ad2:	ee 0d       	add	r30, r14
    7ad4:	ff 1d       	adc	r31, r15
    7ad6:	80 81       	ld	r24, Z
    7ad8:	89 27       	eor	r24, r25
    7ada:	8b 83       	std	Y+3, r24	; 0x03
    7adc:	df cf       	rjmp	.-66     	; 0x7a9c <_ZN10UartDriver10sendStringEPKcih+0x70>
		while (txQueue.isFull()) {}
		this->sendByte(str[i]);
	 }

	 return checksum;
    7ade:	23 96       	adiw	r28, 0x03	; 3
    7ae0:	cd bf       	out	0x3d, r28	; 61
    7ae2:	de bf       	out	0x3e, r29	; 62
    7ae4:	df 91       	pop	r29
    7ae6:	cf 91       	pop	r28
    7ae8:	1f 91       	pop	r17
    7aea:	0f 91       	pop	r16
    7aec:	ff 90       	pop	r15
    7aee:	ef 90       	pop	r14
    7af0:	df 90       	pop	r13
    7af2:	cf 90       	pop	r12
    7af4:	bf 90       	pop	r11
    7af6:	af 90       	pop	r10
    7af8:	08 95       	ret

00007afa <__fixsfsi>:
    7afa:	04 d0       	rcall	.+8      	; 0x7b04 <__fixunssfsi>
    7afc:	68 94       	set
    7afe:	b1 11       	cpse	r27, r1
    7b00:	8d c0       	rjmp	.+282    	; 0x7c1c <__fp_szero>
    7b02:	08 95       	ret

00007b04 <__fixunssfsi>:
    7b04:	70 d0       	rcall	.+224    	; 0x7be6 <__fp_splitA>
    7b06:	88 f0       	brcs	.+34     	; 0x7b2a <__fixunssfsi+0x26>
    7b08:	9f 57       	subi	r25, 0x7F	; 127
    7b0a:	90 f0       	brcs	.+36     	; 0x7b30 <__fixunssfsi+0x2c>
    7b0c:	b9 2f       	mov	r27, r25
    7b0e:	99 27       	eor	r25, r25
    7b10:	b7 51       	subi	r27, 0x17	; 23
    7b12:	a0 f0       	brcs	.+40     	; 0x7b3c <__fixunssfsi+0x38>
    7b14:	d1 f0       	breq	.+52     	; 0x7b4a <__fixunssfsi+0x46>
    7b16:	66 0f       	add	r22, r22
    7b18:	77 1f       	adc	r23, r23
    7b1a:	88 1f       	adc	r24, r24
    7b1c:	99 1f       	adc	r25, r25
    7b1e:	1a f0       	brmi	.+6      	; 0x7b26 <__fixunssfsi+0x22>
    7b20:	ba 95       	dec	r27
    7b22:	c9 f7       	brne	.-14     	; 0x7b16 <__fixunssfsi+0x12>
    7b24:	12 c0       	rjmp	.+36     	; 0x7b4a <__fixunssfsi+0x46>
    7b26:	b1 30       	cpi	r27, 0x01	; 1
    7b28:	81 f0       	breq	.+32     	; 0x7b4a <__fixunssfsi+0x46>
    7b2a:	77 d0       	rcall	.+238    	; 0x7c1a <__fp_zero>
    7b2c:	b1 e0       	ldi	r27, 0x01	; 1
    7b2e:	08 95       	ret
    7b30:	74 c0       	rjmp	.+232    	; 0x7c1a <__fp_zero>
    7b32:	67 2f       	mov	r22, r23
    7b34:	78 2f       	mov	r23, r24
    7b36:	88 27       	eor	r24, r24
    7b38:	b8 5f       	subi	r27, 0xF8	; 248
    7b3a:	39 f0       	breq	.+14     	; 0x7b4a <__fixunssfsi+0x46>
    7b3c:	b9 3f       	cpi	r27, 0xF9	; 249
    7b3e:	cc f3       	brlt	.-14     	; 0x7b32 <__fixunssfsi+0x2e>
    7b40:	86 95       	lsr	r24
    7b42:	77 95       	ror	r23
    7b44:	67 95       	ror	r22
    7b46:	b3 95       	inc	r27
    7b48:	d9 f7       	brne	.-10     	; 0x7b40 <__fixunssfsi+0x3c>
    7b4a:	3e f4       	brtc	.+14     	; 0x7b5a <__fixunssfsi+0x56>
    7b4c:	90 95       	com	r25
    7b4e:	80 95       	com	r24
    7b50:	70 95       	com	r23
    7b52:	61 95       	neg	r22
    7b54:	7f 4f       	sbci	r23, 0xFF	; 255
    7b56:	8f 4f       	sbci	r24, 0xFF	; 255
    7b58:	9f 4f       	sbci	r25, 0xFF	; 255
    7b5a:	08 95       	ret

00007b5c <__floatunsisf>:
    7b5c:	e8 94       	clt
    7b5e:	09 c0       	rjmp	.+18     	; 0x7b72 <__floatsisf+0x12>

00007b60 <__floatsisf>:
    7b60:	97 fb       	bst	r25, 7
    7b62:	3e f4       	brtc	.+14     	; 0x7b72 <__floatsisf+0x12>
    7b64:	90 95       	com	r25
    7b66:	80 95       	com	r24
    7b68:	70 95       	com	r23
    7b6a:	61 95       	neg	r22
    7b6c:	7f 4f       	sbci	r23, 0xFF	; 255
    7b6e:	8f 4f       	sbci	r24, 0xFF	; 255
    7b70:	9f 4f       	sbci	r25, 0xFF	; 255
    7b72:	99 23       	and	r25, r25
    7b74:	a9 f0       	breq	.+42     	; 0x7ba0 <__floatsisf+0x40>
    7b76:	f9 2f       	mov	r31, r25
    7b78:	96 e9       	ldi	r25, 0x96	; 150
    7b7a:	bb 27       	eor	r27, r27
    7b7c:	93 95       	inc	r25
    7b7e:	f6 95       	lsr	r31
    7b80:	87 95       	ror	r24
    7b82:	77 95       	ror	r23
    7b84:	67 95       	ror	r22
    7b86:	b7 95       	ror	r27
    7b88:	f1 11       	cpse	r31, r1
    7b8a:	f8 cf       	rjmp	.-16     	; 0x7b7c <__floatsisf+0x1c>
    7b8c:	fa f4       	brpl	.+62     	; 0x7bcc <__floatsisf+0x6c>
    7b8e:	bb 0f       	add	r27, r27
    7b90:	11 f4       	brne	.+4      	; 0x7b96 <__floatsisf+0x36>
    7b92:	60 ff       	sbrs	r22, 0
    7b94:	1b c0       	rjmp	.+54     	; 0x7bcc <__floatsisf+0x6c>
    7b96:	6f 5f       	subi	r22, 0xFF	; 255
    7b98:	7f 4f       	sbci	r23, 0xFF	; 255
    7b9a:	8f 4f       	sbci	r24, 0xFF	; 255
    7b9c:	9f 4f       	sbci	r25, 0xFF	; 255
    7b9e:	16 c0       	rjmp	.+44     	; 0x7bcc <__floatsisf+0x6c>
    7ba0:	88 23       	and	r24, r24
    7ba2:	11 f0       	breq	.+4      	; 0x7ba8 <__floatsisf+0x48>
    7ba4:	96 e9       	ldi	r25, 0x96	; 150
    7ba6:	11 c0       	rjmp	.+34     	; 0x7bca <__floatsisf+0x6a>
    7ba8:	77 23       	and	r23, r23
    7baa:	21 f0       	breq	.+8      	; 0x7bb4 <__floatsisf+0x54>
    7bac:	9e e8       	ldi	r25, 0x8E	; 142
    7bae:	87 2f       	mov	r24, r23
    7bb0:	76 2f       	mov	r23, r22
    7bb2:	05 c0       	rjmp	.+10     	; 0x7bbe <__floatsisf+0x5e>
    7bb4:	66 23       	and	r22, r22
    7bb6:	71 f0       	breq	.+28     	; 0x7bd4 <__floatsisf+0x74>
    7bb8:	96 e8       	ldi	r25, 0x86	; 134
    7bba:	86 2f       	mov	r24, r22
    7bbc:	70 e0       	ldi	r23, 0x00	; 0
    7bbe:	60 e0       	ldi	r22, 0x00	; 0
    7bc0:	2a f0       	brmi	.+10     	; 0x7bcc <__floatsisf+0x6c>
    7bc2:	9a 95       	dec	r25
    7bc4:	66 0f       	add	r22, r22
    7bc6:	77 1f       	adc	r23, r23
    7bc8:	88 1f       	adc	r24, r24
    7bca:	da f7       	brpl	.-10     	; 0x7bc2 <__floatsisf+0x62>
    7bcc:	88 0f       	add	r24, r24
    7bce:	96 95       	lsr	r25
    7bd0:	87 95       	ror	r24
    7bd2:	97 f9       	bld	r25, 7
    7bd4:	08 95       	ret

00007bd6 <__fp_split3>:
    7bd6:	57 fd       	sbrc	r21, 7
    7bd8:	90 58       	subi	r25, 0x80	; 128
    7bda:	44 0f       	add	r20, r20
    7bdc:	55 1f       	adc	r21, r21
    7bde:	59 f0       	breq	.+22     	; 0x7bf6 <__fp_splitA+0x10>
    7be0:	5f 3f       	cpi	r21, 0xFF	; 255
    7be2:	71 f0       	breq	.+28     	; 0x7c00 <__fp_splitA+0x1a>
    7be4:	47 95       	ror	r20

00007be6 <__fp_splitA>:
    7be6:	88 0f       	add	r24, r24
    7be8:	97 fb       	bst	r25, 7
    7bea:	99 1f       	adc	r25, r25
    7bec:	61 f0       	breq	.+24     	; 0x7c06 <__fp_splitA+0x20>
    7bee:	9f 3f       	cpi	r25, 0xFF	; 255
    7bf0:	79 f0       	breq	.+30     	; 0x7c10 <__fp_splitA+0x2a>
    7bf2:	87 95       	ror	r24
    7bf4:	08 95       	ret
    7bf6:	12 16       	cp	r1, r18
    7bf8:	13 06       	cpc	r1, r19
    7bfa:	14 06       	cpc	r1, r20
    7bfc:	55 1f       	adc	r21, r21
    7bfe:	f2 cf       	rjmp	.-28     	; 0x7be4 <__fp_split3+0xe>
    7c00:	46 95       	lsr	r20
    7c02:	f1 df       	rcall	.-30     	; 0x7be6 <__fp_splitA>
    7c04:	08 c0       	rjmp	.+16     	; 0x7c16 <__fp_splitA+0x30>
    7c06:	16 16       	cp	r1, r22
    7c08:	17 06       	cpc	r1, r23
    7c0a:	18 06       	cpc	r1, r24
    7c0c:	99 1f       	adc	r25, r25
    7c0e:	f1 cf       	rjmp	.-30     	; 0x7bf2 <__fp_splitA+0xc>
    7c10:	86 95       	lsr	r24
    7c12:	71 05       	cpc	r23, r1
    7c14:	61 05       	cpc	r22, r1
    7c16:	08 94       	sec
    7c18:	08 95       	ret

00007c1a <__fp_zero>:
    7c1a:	e8 94       	clt

00007c1c <__fp_szero>:
    7c1c:	bb 27       	eor	r27, r27
    7c1e:	66 27       	eor	r22, r22
    7c20:	77 27       	eor	r23, r23
    7c22:	cb 01       	movw	r24, r22
    7c24:	97 f9       	bld	r25, 7
    7c26:	08 95       	ret

00007c28 <__gesf2>:
    7c28:	03 d0       	rcall	.+6      	; 0x7c30 <__fp_cmp>
    7c2a:	08 f4       	brcc	.+2      	; 0x7c2e <__gesf2+0x6>
    7c2c:	8f ef       	ldi	r24, 0xFF	; 255
    7c2e:	08 95       	ret

00007c30 <__fp_cmp>:
    7c30:	99 0f       	add	r25, r25
    7c32:	00 08       	sbc	r0, r0
    7c34:	55 0f       	add	r21, r21
    7c36:	aa 0b       	sbc	r26, r26
    7c38:	e0 e8       	ldi	r30, 0x80	; 128
    7c3a:	fe ef       	ldi	r31, 0xFE	; 254
    7c3c:	16 16       	cp	r1, r22
    7c3e:	17 06       	cpc	r1, r23
    7c40:	e8 07       	cpc	r30, r24
    7c42:	f9 07       	cpc	r31, r25
    7c44:	c0 f0       	brcs	.+48     	; 0x7c76 <__fp_cmp+0x46>
    7c46:	12 16       	cp	r1, r18
    7c48:	13 06       	cpc	r1, r19
    7c4a:	e4 07       	cpc	r30, r20
    7c4c:	f5 07       	cpc	r31, r21
    7c4e:	98 f0       	brcs	.+38     	; 0x7c76 <__fp_cmp+0x46>
    7c50:	62 1b       	sub	r22, r18
    7c52:	73 0b       	sbc	r23, r19
    7c54:	84 0b       	sbc	r24, r20
    7c56:	95 0b       	sbc	r25, r21
    7c58:	39 f4       	brne	.+14     	; 0x7c68 <__fp_cmp+0x38>
    7c5a:	0a 26       	eor	r0, r26
    7c5c:	61 f0       	breq	.+24     	; 0x7c76 <__fp_cmp+0x46>
    7c5e:	23 2b       	or	r18, r19
    7c60:	24 2b       	or	r18, r20
    7c62:	25 2b       	or	r18, r21
    7c64:	21 f4       	brne	.+8      	; 0x7c6e <__fp_cmp+0x3e>
    7c66:	08 95       	ret
    7c68:	0a 26       	eor	r0, r26
    7c6a:	09 f4       	brne	.+2      	; 0x7c6e <__fp_cmp+0x3e>
    7c6c:	a1 40       	sbci	r26, 0x01	; 1
    7c6e:	a6 95       	lsr	r26
    7c70:	8f ef       	ldi	r24, 0xFF	; 255
    7c72:	81 1d       	adc	r24, r1
    7c74:	81 1d       	adc	r24, r1
    7c76:	08 95       	ret

00007c78 <__udivmodsi4>:
    7c78:	a1 e2       	ldi	r26, 0x21	; 33
    7c7a:	1a 2e       	mov	r1, r26
    7c7c:	aa 1b       	sub	r26, r26
    7c7e:	bb 1b       	sub	r27, r27
    7c80:	fd 01       	movw	r30, r26
    7c82:	0d c0       	rjmp	.+26     	; 0x7c9e <__udivmodsi4_ep>

00007c84 <__udivmodsi4_loop>:
    7c84:	aa 1f       	adc	r26, r26
    7c86:	bb 1f       	adc	r27, r27
    7c88:	ee 1f       	adc	r30, r30
    7c8a:	ff 1f       	adc	r31, r31
    7c8c:	a2 17       	cp	r26, r18
    7c8e:	b3 07       	cpc	r27, r19
    7c90:	e4 07       	cpc	r30, r20
    7c92:	f5 07       	cpc	r31, r21
    7c94:	20 f0       	brcs	.+8      	; 0x7c9e <__udivmodsi4_ep>
    7c96:	a2 1b       	sub	r26, r18
    7c98:	b3 0b       	sbc	r27, r19
    7c9a:	e4 0b       	sbc	r30, r20
    7c9c:	f5 0b       	sbc	r31, r21

00007c9e <__udivmodsi4_ep>:
    7c9e:	66 1f       	adc	r22, r22
    7ca0:	77 1f       	adc	r23, r23
    7ca2:	88 1f       	adc	r24, r24
    7ca4:	99 1f       	adc	r25, r25
    7ca6:	1a 94       	dec	r1
    7ca8:	69 f7       	brne	.-38     	; 0x7c84 <__udivmodsi4_loop>
    7caa:	60 95       	com	r22
    7cac:	70 95       	com	r23
    7cae:	80 95       	com	r24
    7cb0:	90 95       	com	r25
    7cb2:	9b 01       	movw	r18, r22
    7cb4:	ac 01       	movw	r20, r24
    7cb6:	bd 01       	movw	r22, r26
    7cb8:	cf 01       	movw	r24, r30
    7cba:	08 95       	ret

00007cbc <__tablejump2__>:
    7cbc:	ee 0f       	add	r30, r30
    7cbe:	ff 1f       	adc	r31, r31

00007cc0 <__tablejump__>:
    7cc0:	05 90       	lpm	r0, Z+
    7cc2:	f4 91       	lpm	r31, Z
    7cc4:	e0 2d       	mov	r30, r0
    7cc6:	19 94       	eijmp

00007cc8 <__umulhisi3>:
    7cc8:	a2 9f       	mul	r26, r18
    7cca:	b0 01       	movw	r22, r0
    7ccc:	b3 9f       	mul	r27, r19
    7cce:	c0 01       	movw	r24, r0
    7cd0:	a3 9f       	mul	r26, r19
    7cd2:	70 0d       	add	r23, r0
    7cd4:	81 1d       	adc	r24, r1
    7cd6:	11 24       	eor	r1, r1
    7cd8:	91 1d       	adc	r25, r1
    7cda:	b2 9f       	mul	r27, r18
    7cdc:	70 0d       	add	r23, r0
    7cde:	81 1d       	adc	r24, r1
    7ce0:	11 24       	eor	r1, r1
    7ce2:	91 1d       	adc	r25, r1
    7ce4:	08 95       	ret

00007ce6 <__muluhisi3>:
    7ce6:	f0 df       	rcall	.-32     	; 0x7cc8 <__umulhisi3>
    7ce8:	a5 9f       	mul	r26, r21
    7cea:	90 0d       	add	r25, r0
    7cec:	b4 9f       	mul	r27, r20
    7cee:	90 0d       	add	r25, r0
    7cf0:	a4 9f       	mul	r26, r20
    7cf2:	80 0d       	add	r24, r0
    7cf4:	91 1d       	adc	r25, r1
    7cf6:	11 24       	eor	r1, r1
    7cf8:	08 95       	ret

00007cfa <__tablejump_elpm__>:
    7cfa:	07 90       	elpm	r0, Z+
    7cfc:	f6 91       	elpm	r31, Z
    7cfe:	e0 2d       	mov	r30, r0
    7d00:	19 94       	eijmp

00007d02 <malloc>:
    7d02:	cf 93       	push	r28
    7d04:	df 93       	push	r29
    7d06:	82 30       	cpi	r24, 0x02	; 2
    7d08:	91 05       	cpc	r25, r1
    7d0a:	10 f4       	brcc	.+4      	; 0x7d10 <malloc+0xe>
    7d0c:	82 e0       	ldi	r24, 0x02	; 2
    7d0e:	90 e0       	ldi	r25, 0x00	; 0
    7d10:	e0 91 96 21 	lds	r30, 0x2196
    7d14:	f0 91 97 21 	lds	r31, 0x2197
    7d18:	20 e0       	ldi	r18, 0x00	; 0
    7d1a:	30 e0       	ldi	r19, 0x00	; 0
    7d1c:	a0 e0       	ldi	r26, 0x00	; 0
    7d1e:	b0 e0       	ldi	r27, 0x00	; 0
    7d20:	30 97       	sbiw	r30, 0x00	; 0
    7d22:	39 f1       	breq	.+78     	; 0x7d72 <malloc+0x70>
    7d24:	40 81       	ld	r20, Z
    7d26:	51 81       	ldd	r21, Z+1	; 0x01
    7d28:	48 17       	cp	r20, r24
    7d2a:	59 07       	cpc	r21, r25
    7d2c:	b8 f0       	brcs	.+46     	; 0x7d5c <malloc+0x5a>
    7d2e:	48 17       	cp	r20, r24
    7d30:	59 07       	cpc	r21, r25
    7d32:	71 f4       	brne	.+28     	; 0x7d50 <malloc+0x4e>
    7d34:	82 81       	ldd	r24, Z+2	; 0x02
    7d36:	93 81       	ldd	r25, Z+3	; 0x03
    7d38:	10 97       	sbiw	r26, 0x00	; 0
    7d3a:	29 f0       	breq	.+10     	; 0x7d46 <malloc+0x44>
    7d3c:	12 96       	adiw	r26, 0x02	; 2
    7d3e:	8d 93       	st	X+, r24
    7d40:	9c 93       	st	X, r25
    7d42:	13 97       	sbiw	r26, 0x03	; 3
    7d44:	2c c0       	rjmp	.+88     	; 0x7d9e <malloc+0x9c>
    7d46:	80 93 96 21 	sts	0x2196, r24
    7d4a:	90 93 97 21 	sts	0x2197, r25
    7d4e:	27 c0       	rjmp	.+78     	; 0x7d9e <malloc+0x9c>
    7d50:	21 15       	cp	r18, r1
    7d52:	31 05       	cpc	r19, r1
    7d54:	31 f0       	breq	.+12     	; 0x7d62 <malloc+0x60>
    7d56:	42 17       	cp	r20, r18
    7d58:	53 07       	cpc	r21, r19
    7d5a:	18 f0       	brcs	.+6      	; 0x7d62 <malloc+0x60>
    7d5c:	a9 01       	movw	r20, r18
    7d5e:	db 01       	movw	r26, r22
    7d60:	01 c0       	rjmp	.+2      	; 0x7d64 <malloc+0x62>
    7d62:	ef 01       	movw	r28, r30
    7d64:	9a 01       	movw	r18, r20
    7d66:	bd 01       	movw	r22, r26
    7d68:	df 01       	movw	r26, r30
    7d6a:	02 80       	ldd	r0, Z+2	; 0x02
    7d6c:	f3 81       	ldd	r31, Z+3	; 0x03
    7d6e:	e0 2d       	mov	r30, r0
    7d70:	d7 cf       	rjmp	.-82     	; 0x7d20 <malloc+0x1e>
    7d72:	21 15       	cp	r18, r1
    7d74:	31 05       	cpc	r19, r1
    7d76:	f9 f0       	breq	.+62     	; 0x7db6 <malloc+0xb4>
    7d78:	28 1b       	sub	r18, r24
    7d7a:	39 0b       	sbc	r19, r25
    7d7c:	24 30       	cpi	r18, 0x04	; 4
    7d7e:	31 05       	cpc	r19, r1
    7d80:	80 f4       	brcc	.+32     	; 0x7da2 <malloc+0xa0>
    7d82:	8a 81       	ldd	r24, Y+2	; 0x02
    7d84:	9b 81       	ldd	r25, Y+3	; 0x03
    7d86:	61 15       	cp	r22, r1
    7d88:	71 05       	cpc	r23, r1
    7d8a:	21 f0       	breq	.+8      	; 0x7d94 <malloc+0x92>
    7d8c:	fb 01       	movw	r30, r22
    7d8e:	82 83       	std	Z+2, r24	; 0x02
    7d90:	93 83       	std	Z+3, r25	; 0x03
    7d92:	04 c0       	rjmp	.+8      	; 0x7d9c <malloc+0x9a>
    7d94:	80 93 96 21 	sts	0x2196, r24
    7d98:	90 93 97 21 	sts	0x2197, r25
    7d9c:	fe 01       	movw	r30, r28
    7d9e:	32 96       	adiw	r30, 0x02	; 2
    7da0:	44 c0       	rjmp	.+136    	; 0x7e2a <malloc+0x128>
    7da2:	fe 01       	movw	r30, r28
    7da4:	e2 0f       	add	r30, r18
    7da6:	f3 1f       	adc	r31, r19
    7da8:	81 93       	st	Z+, r24
    7daa:	91 93       	st	Z+, r25
    7dac:	22 50       	subi	r18, 0x02	; 2
    7dae:	31 09       	sbc	r19, r1
    7db0:	28 83       	st	Y, r18
    7db2:	39 83       	std	Y+1, r19	; 0x01
    7db4:	3a c0       	rjmp	.+116    	; 0x7e2a <malloc+0x128>
    7db6:	20 91 94 21 	lds	r18, 0x2194
    7dba:	30 91 95 21 	lds	r19, 0x2195
    7dbe:	23 2b       	or	r18, r19
    7dc0:	41 f4       	brne	.+16     	; 0x7dd2 <malloc+0xd0>
    7dc2:	20 91 02 20 	lds	r18, 0x2002
    7dc6:	30 91 03 20 	lds	r19, 0x2003
    7dca:	20 93 94 21 	sts	0x2194, r18
    7dce:	30 93 95 21 	sts	0x2195, r19
    7dd2:	20 91 00 20 	lds	r18, 0x2000
    7dd6:	30 91 01 20 	lds	r19, 0x2001
    7dda:	21 15       	cp	r18, r1
    7ddc:	31 05       	cpc	r19, r1
    7dde:	41 f4       	brne	.+16     	; 0x7df0 <malloc+0xee>
    7de0:	2d b7       	in	r18, 0x3d	; 61
    7de2:	3e b7       	in	r19, 0x3e	; 62
    7de4:	40 91 04 20 	lds	r20, 0x2004
    7de8:	50 91 05 20 	lds	r21, 0x2005
    7dec:	24 1b       	sub	r18, r20
    7dee:	35 0b       	sbc	r19, r21
    7df0:	e0 91 94 21 	lds	r30, 0x2194
    7df4:	f0 91 95 21 	lds	r31, 0x2195
    7df8:	e2 17       	cp	r30, r18
    7dfa:	f3 07       	cpc	r31, r19
    7dfc:	a0 f4       	brcc	.+40     	; 0x7e26 <malloc+0x124>
    7dfe:	2e 1b       	sub	r18, r30
    7e00:	3f 0b       	sbc	r19, r31
    7e02:	28 17       	cp	r18, r24
    7e04:	39 07       	cpc	r19, r25
    7e06:	78 f0       	brcs	.+30     	; 0x7e26 <malloc+0x124>
    7e08:	ac 01       	movw	r20, r24
    7e0a:	4e 5f       	subi	r20, 0xFE	; 254
    7e0c:	5f 4f       	sbci	r21, 0xFF	; 255
    7e0e:	24 17       	cp	r18, r20
    7e10:	35 07       	cpc	r19, r21
    7e12:	48 f0       	brcs	.+18     	; 0x7e26 <malloc+0x124>
    7e14:	4e 0f       	add	r20, r30
    7e16:	5f 1f       	adc	r21, r31
    7e18:	40 93 94 21 	sts	0x2194, r20
    7e1c:	50 93 95 21 	sts	0x2195, r21
    7e20:	81 93       	st	Z+, r24
    7e22:	91 93       	st	Z+, r25
    7e24:	02 c0       	rjmp	.+4      	; 0x7e2a <malloc+0x128>
    7e26:	e0 e0       	ldi	r30, 0x00	; 0
    7e28:	f0 e0       	ldi	r31, 0x00	; 0
    7e2a:	cf 01       	movw	r24, r30
    7e2c:	df 91       	pop	r29
    7e2e:	cf 91       	pop	r28
    7e30:	08 95       	ret

00007e32 <free>:
    7e32:	cf 93       	push	r28
    7e34:	df 93       	push	r29
    7e36:	00 97       	sbiw	r24, 0x00	; 0
    7e38:	09 f4       	brne	.+2      	; 0x7e3c <free+0xa>
    7e3a:	87 c0       	rjmp	.+270    	; 0x7f4a <free+0x118>
    7e3c:	fc 01       	movw	r30, r24
    7e3e:	32 97       	sbiw	r30, 0x02	; 2
    7e40:	12 82       	std	Z+2, r1	; 0x02
    7e42:	13 82       	std	Z+3, r1	; 0x03
    7e44:	c0 91 96 21 	lds	r28, 0x2196
    7e48:	d0 91 97 21 	lds	r29, 0x2197
    7e4c:	20 97       	sbiw	r28, 0x00	; 0
    7e4e:	81 f4       	brne	.+32     	; 0x7e70 <free+0x3e>
    7e50:	20 81       	ld	r18, Z
    7e52:	31 81       	ldd	r19, Z+1	; 0x01
    7e54:	28 0f       	add	r18, r24
    7e56:	39 1f       	adc	r19, r25
    7e58:	80 91 94 21 	lds	r24, 0x2194
    7e5c:	90 91 95 21 	lds	r25, 0x2195
    7e60:	82 17       	cp	r24, r18
    7e62:	93 07       	cpc	r25, r19
    7e64:	79 f5       	brne	.+94     	; 0x7ec4 <free+0x92>
    7e66:	e0 93 94 21 	sts	0x2194, r30
    7e6a:	f0 93 95 21 	sts	0x2195, r31
    7e6e:	6d c0       	rjmp	.+218    	; 0x7f4a <free+0x118>
    7e70:	de 01       	movw	r26, r28
    7e72:	20 e0       	ldi	r18, 0x00	; 0
    7e74:	30 e0       	ldi	r19, 0x00	; 0
    7e76:	ae 17       	cp	r26, r30
    7e78:	bf 07       	cpc	r27, r31
    7e7a:	50 f4       	brcc	.+20     	; 0x7e90 <free+0x5e>
    7e7c:	12 96       	adiw	r26, 0x02	; 2
    7e7e:	4d 91       	ld	r20, X+
    7e80:	5c 91       	ld	r21, X
    7e82:	13 97       	sbiw	r26, 0x03	; 3
    7e84:	9d 01       	movw	r18, r26
    7e86:	41 15       	cp	r20, r1
    7e88:	51 05       	cpc	r21, r1
    7e8a:	09 f1       	breq	.+66     	; 0x7ece <free+0x9c>
    7e8c:	da 01       	movw	r26, r20
    7e8e:	f3 cf       	rjmp	.-26     	; 0x7e76 <free+0x44>
    7e90:	a2 83       	std	Z+2, r26	; 0x02
    7e92:	b3 83       	std	Z+3, r27	; 0x03
    7e94:	40 81       	ld	r20, Z
    7e96:	51 81       	ldd	r21, Z+1	; 0x01
    7e98:	84 0f       	add	r24, r20
    7e9a:	95 1f       	adc	r25, r21
    7e9c:	8a 17       	cp	r24, r26
    7e9e:	9b 07       	cpc	r25, r27
    7ea0:	71 f4       	brne	.+28     	; 0x7ebe <free+0x8c>
    7ea2:	8d 91       	ld	r24, X+
    7ea4:	9c 91       	ld	r25, X
    7ea6:	11 97       	sbiw	r26, 0x01	; 1
    7ea8:	84 0f       	add	r24, r20
    7eaa:	95 1f       	adc	r25, r21
    7eac:	02 96       	adiw	r24, 0x02	; 2
    7eae:	80 83       	st	Z, r24
    7eb0:	91 83       	std	Z+1, r25	; 0x01
    7eb2:	12 96       	adiw	r26, 0x02	; 2
    7eb4:	8d 91       	ld	r24, X+
    7eb6:	9c 91       	ld	r25, X
    7eb8:	13 97       	sbiw	r26, 0x03	; 3
    7eba:	82 83       	std	Z+2, r24	; 0x02
    7ebc:	93 83       	std	Z+3, r25	; 0x03
    7ebe:	21 15       	cp	r18, r1
    7ec0:	31 05       	cpc	r19, r1
    7ec2:	29 f4       	brne	.+10     	; 0x7ece <free+0x9c>
    7ec4:	e0 93 96 21 	sts	0x2196, r30
    7ec8:	f0 93 97 21 	sts	0x2197, r31
    7ecc:	3e c0       	rjmp	.+124    	; 0x7f4a <free+0x118>
    7ece:	d9 01       	movw	r26, r18
    7ed0:	12 96       	adiw	r26, 0x02	; 2
    7ed2:	ed 93       	st	X+, r30
    7ed4:	fc 93       	st	X, r31
    7ed6:	13 97       	sbiw	r26, 0x03	; 3
    7ed8:	4d 91       	ld	r20, X+
    7eda:	5d 91       	ld	r21, X+
    7edc:	a4 0f       	add	r26, r20
    7ede:	b5 1f       	adc	r27, r21
    7ee0:	ea 17       	cp	r30, r26
    7ee2:	fb 07       	cpc	r31, r27
    7ee4:	79 f4       	brne	.+30     	; 0x7f04 <free+0xd2>
    7ee6:	80 81       	ld	r24, Z
    7ee8:	91 81       	ldd	r25, Z+1	; 0x01
    7eea:	84 0f       	add	r24, r20
    7eec:	95 1f       	adc	r25, r21
    7eee:	02 96       	adiw	r24, 0x02	; 2
    7ef0:	d9 01       	movw	r26, r18
    7ef2:	8d 93       	st	X+, r24
    7ef4:	9c 93       	st	X, r25
    7ef6:	11 97       	sbiw	r26, 0x01	; 1
    7ef8:	82 81       	ldd	r24, Z+2	; 0x02
    7efa:	93 81       	ldd	r25, Z+3	; 0x03
    7efc:	12 96       	adiw	r26, 0x02	; 2
    7efe:	8d 93       	st	X+, r24
    7f00:	9c 93       	st	X, r25
    7f02:	13 97       	sbiw	r26, 0x03	; 3
    7f04:	e0 e0       	ldi	r30, 0x00	; 0
    7f06:	f0 e0       	ldi	r31, 0x00	; 0
    7f08:	8a 81       	ldd	r24, Y+2	; 0x02
    7f0a:	9b 81       	ldd	r25, Y+3	; 0x03
    7f0c:	00 97       	sbiw	r24, 0x00	; 0
    7f0e:	19 f0       	breq	.+6      	; 0x7f16 <free+0xe4>
    7f10:	fe 01       	movw	r30, r28
    7f12:	ec 01       	movw	r28, r24
    7f14:	f9 cf       	rjmp	.-14     	; 0x7f08 <free+0xd6>
    7f16:	ce 01       	movw	r24, r28
    7f18:	02 96       	adiw	r24, 0x02	; 2
    7f1a:	28 81       	ld	r18, Y
    7f1c:	39 81       	ldd	r19, Y+1	; 0x01
    7f1e:	82 0f       	add	r24, r18
    7f20:	93 1f       	adc	r25, r19
    7f22:	20 91 94 21 	lds	r18, 0x2194
    7f26:	30 91 95 21 	lds	r19, 0x2195
    7f2a:	28 17       	cp	r18, r24
    7f2c:	39 07       	cpc	r19, r25
    7f2e:	69 f4       	brne	.+26     	; 0x7f4a <free+0x118>
    7f30:	30 97       	sbiw	r30, 0x00	; 0
    7f32:	29 f4       	brne	.+10     	; 0x7f3e <free+0x10c>
    7f34:	10 92 96 21 	sts	0x2196, r1
    7f38:	10 92 97 21 	sts	0x2197, r1
    7f3c:	02 c0       	rjmp	.+4      	; 0x7f42 <free+0x110>
    7f3e:	12 82       	std	Z+2, r1	; 0x02
    7f40:	13 82       	std	Z+3, r1	; 0x03
    7f42:	c0 93 94 21 	sts	0x2194, r28
    7f46:	d0 93 95 21 	sts	0x2195, r29
    7f4a:	df 91       	pop	r29
    7f4c:	cf 91       	pop	r28
    7f4e:	08 95       	ret

00007f50 <__itoa_ncheck>:
    7f50:	bb 27       	eor	r27, r27
    7f52:	4a 30       	cpi	r20, 0x0A	; 10
    7f54:	31 f4       	brne	.+12     	; 0x7f62 <__itoa_ncheck+0x12>
    7f56:	99 23       	and	r25, r25
    7f58:	22 f4       	brpl	.+8      	; 0x7f62 <__itoa_ncheck+0x12>
    7f5a:	bd e2       	ldi	r27, 0x2D	; 45
    7f5c:	90 95       	com	r25
    7f5e:	81 95       	neg	r24
    7f60:	9f 4f       	sbci	r25, 0xFF	; 255
    7f62:	01 c0       	rjmp	.+2      	; 0x7f66 <__utoa_common>

00007f64 <__utoa_ncheck>:
    7f64:	bb 27       	eor	r27, r27

00007f66 <__utoa_common>:
    7f66:	fb 01       	movw	r30, r22
    7f68:	55 27       	eor	r21, r21
    7f6a:	aa 27       	eor	r26, r26
    7f6c:	88 0f       	add	r24, r24
    7f6e:	99 1f       	adc	r25, r25
    7f70:	aa 1f       	adc	r26, r26
    7f72:	a4 17       	cp	r26, r20
    7f74:	10 f0       	brcs	.+4      	; 0x7f7a <__utoa_common+0x14>
    7f76:	a4 1b       	sub	r26, r20
    7f78:	83 95       	inc	r24
    7f7a:	50 51       	subi	r21, 0x10	; 16
    7f7c:	b9 f7       	brne	.-18     	; 0x7f6c <__utoa_common+0x6>
    7f7e:	a0 5d       	subi	r26, 0xD0	; 208
    7f80:	aa 33       	cpi	r26, 0x3A	; 58
    7f82:	08 f0       	brcs	.+2      	; 0x7f86 <__utoa_common+0x20>
    7f84:	a9 5d       	subi	r26, 0xD9	; 217
    7f86:	a1 93       	st	Z+, r26
    7f88:	00 97       	sbiw	r24, 0x00	; 0
    7f8a:	79 f7       	brne	.-34     	; 0x7f6a <__utoa_common+0x4>
    7f8c:	b1 11       	cpse	r27, r1
    7f8e:	b1 93       	st	Z+, r27
    7f90:	11 92       	st	Z+, r1
    7f92:	cb 01       	movw	r24, r22
    7f94:	26 c2       	rjmp	.+1100   	; 0x83e2 <strrev>

00007f96 <sprintf>:
    7f96:	0f 93       	push	r16
    7f98:	1f 93       	push	r17
    7f9a:	cf 93       	push	r28
    7f9c:	df 93       	push	r29
    7f9e:	cd b7       	in	r28, 0x3d	; 61
    7fa0:	de b7       	in	r29, 0x3e	; 62
    7fa2:	2e 97       	sbiw	r28, 0x0e	; 14
    7fa4:	cd bf       	out	0x3d, r28	; 61
    7fa6:	de bf       	out	0x3e, r29	; 62
    7fa8:	0e 89       	ldd	r16, Y+22	; 0x16
    7faa:	1f 89       	ldd	r17, Y+23	; 0x17
    7fac:	86 e0       	ldi	r24, 0x06	; 6
    7fae:	8c 83       	std	Y+4, r24	; 0x04
    7fb0:	09 83       	std	Y+1, r16	; 0x01
    7fb2:	1a 83       	std	Y+2, r17	; 0x02
    7fb4:	8f ef       	ldi	r24, 0xFF	; 255
    7fb6:	9f e7       	ldi	r25, 0x7F	; 127
    7fb8:	8d 83       	std	Y+5, r24	; 0x05
    7fba:	9e 83       	std	Y+6, r25	; 0x06
    7fbc:	ae 01       	movw	r20, r28
    7fbe:	46 5e       	subi	r20, 0xE6	; 230
    7fc0:	5f 4f       	sbci	r21, 0xFF	; 255
    7fc2:	68 8d       	ldd	r22, Y+24	; 0x18
    7fc4:	79 8d       	ldd	r23, Y+25	; 0x19
    7fc6:	ce 01       	movw	r24, r28
    7fc8:	01 96       	adiw	r24, 0x01	; 1
    7fca:	0d d0       	rcall	.+26     	; 0x7fe6 <vfprintf>
    7fcc:	ef 81       	ldd	r30, Y+7	; 0x07
    7fce:	f8 85       	ldd	r31, Y+8	; 0x08
    7fd0:	e0 0f       	add	r30, r16
    7fd2:	f1 1f       	adc	r31, r17
    7fd4:	10 82       	st	Z, r1
    7fd6:	2e 96       	adiw	r28, 0x0e	; 14
    7fd8:	cd bf       	out	0x3d, r28	; 61
    7fda:	de bf       	out	0x3e, r29	; 62
    7fdc:	df 91       	pop	r29
    7fde:	cf 91       	pop	r28
    7fe0:	1f 91       	pop	r17
    7fe2:	0f 91       	pop	r16
    7fe4:	08 95       	ret

00007fe6 <vfprintf>:
    7fe6:	2f 92       	push	r2
    7fe8:	3f 92       	push	r3
    7fea:	4f 92       	push	r4
    7fec:	5f 92       	push	r5
    7fee:	6f 92       	push	r6
    7ff0:	7f 92       	push	r7
    7ff2:	8f 92       	push	r8
    7ff4:	9f 92       	push	r9
    7ff6:	af 92       	push	r10
    7ff8:	bf 92       	push	r11
    7ffa:	cf 92       	push	r12
    7ffc:	df 92       	push	r13
    7ffe:	ef 92       	push	r14
    8000:	ff 92       	push	r15
    8002:	0f 93       	push	r16
    8004:	1f 93       	push	r17
    8006:	cf 93       	push	r28
    8008:	df 93       	push	r29
    800a:	cd b7       	in	r28, 0x3d	; 61
    800c:	de b7       	in	r29, 0x3e	; 62
    800e:	2c 97       	sbiw	r28, 0x0c	; 12
    8010:	cd bf       	out	0x3d, r28	; 61
    8012:	de bf       	out	0x3e, r29	; 62
    8014:	7c 01       	movw	r14, r24
    8016:	6b 01       	movw	r12, r22
    8018:	8a 01       	movw	r16, r20
    801a:	fc 01       	movw	r30, r24
    801c:	16 82       	std	Z+6, r1	; 0x06
    801e:	17 82       	std	Z+7, r1	; 0x07
    8020:	83 81       	ldd	r24, Z+3	; 0x03
    8022:	81 ff       	sbrs	r24, 1
    8024:	b0 c1       	rjmp	.+864    	; 0x8386 <vfprintf+0x3a0>
    8026:	ce 01       	movw	r24, r28
    8028:	01 96       	adiw	r24, 0x01	; 1
    802a:	4c 01       	movw	r8, r24
    802c:	f7 01       	movw	r30, r14
    802e:	93 81       	ldd	r25, Z+3	; 0x03
    8030:	f6 01       	movw	r30, r12
    8032:	93 fd       	sbrc	r25, 3
    8034:	85 91       	lpm	r24, Z+
    8036:	93 ff       	sbrs	r25, 3
    8038:	81 91       	ld	r24, Z+
    803a:	6f 01       	movw	r12, r30
    803c:	88 23       	and	r24, r24
    803e:	09 f4       	brne	.+2      	; 0x8042 <vfprintf+0x5c>
    8040:	9e c1       	rjmp	.+828    	; 0x837e <vfprintf+0x398>
    8042:	85 32       	cpi	r24, 0x25	; 37
    8044:	39 f4       	brne	.+14     	; 0x8054 <vfprintf+0x6e>
    8046:	93 fd       	sbrc	r25, 3
    8048:	85 91       	lpm	r24, Z+
    804a:	93 ff       	sbrs	r25, 3
    804c:	81 91       	ld	r24, Z+
    804e:	6f 01       	movw	r12, r30
    8050:	85 32       	cpi	r24, 0x25	; 37
    8052:	21 f4       	brne	.+8      	; 0x805c <vfprintf+0x76>
    8054:	b7 01       	movw	r22, r14
    8056:	90 e0       	ldi	r25, 0x00	; 0
    8058:	d4 d1       	rcall	.+936    	; 0x8402 <fputc>
    805a:	e8 cf       	rjmp	.-48     	; 0x802c <vfprintf+0x46>
    805c:	51 2c       	mov	r5, r1
    805e:	31 2c       	mov	r3, r1
    8060:	20 e0       	ldi	r18, 0x00	; 0
    8062:	20 32       	cpi	r18, 0x20	; 32
    8064:	a0 f4       	brcc	.+40     	; 0x808e <vfprintf+0xa8>
    8066:	8b 32       	cpi	r24, 0x2B	; 43
    8068:	69 f0       	breq	.+26     	; 0x8084 <vfprintf+0x9e>
    806a:	30 f4       	brcc	.+12     	; 0x8078 <vfprintf+0x92>
    806c:	80 32       	cpi	r24, 0x20	; 32
    806e:	59 f0       	breq	.+22     	; 0x8086 <vfprintf+0xa0>
    8070:	83 32       	cpi	r24, 0x23	; 35
    8072:	69 f4       	brne	.+26     	; 0x808e <vfprintf+0xa8>
    8074:	20 61       	ori	r18, 0x10	; 16
    8076:	2c c0       	rjmp	.+88     	; 0x80d0 <vfprintf+0xea>
    8078:	8d 32       	cpi	r24, 0x2D	; 45
    807a:	39 f0       	breq	.+14     	; 0x808a <vfprintf+0xa4>
    807c:	80 33       	cpi	r24, 0x30	; 48
    807e:	39 f4       	brne	.+14     	; 0x808e <vfprintf+0xa8>
    8080:	21 60       	ori	r18, 0x01	; 1
    8082:	26 c0       	rjmp	.+76     	; 0x80d0 <vfprintf+0xea>
    8084:	22 60       	ori	r18, 0x02	; 2
    8086:	24 60       	ori	r18, 0x04	; 4
    8088:	23 c0       	rjmp	.+70     	; 0x80d0 <vfprintf+0xea>
    808a:	28 60       	ori	r18, 0x08	; 8
    808c:	21 c0       	rjmp	.+66     	; 0x80d0 <vfprintf+0xea>
    808e:	27 fd       	sbrc	r18, 7
    8090:	27 c0       	rjmp	.+78     	; 0x80e0 <vfprintf+0xfa>
    8092:	30 ed       	ldi	r19, 0xD0	; 208
    8094:	38 0f       	add	r19, r24
    8096:	3a 30       	cpi	r19, 0x0A	; 10
    8098:	78 f4       	brcc	.+30     	; 0x80b8 <vfprintf+0xd2>
    809a:	26 ff       	sbrs	r18, 6
    809c:	06 c0       	rjmp	.+12     	; 0x80aa <vfprintf+0xc4>
    809e:	fa e0       	ldi	r31, 0x0A	; 10
    80a0:	5f 9e       	mul	r5, r31
    80a2:	30 0d       	add	r19, r0
    80a4:	11 24       	eor	r1, r1
    80a6:	53 2e       	mov	r5, r19
    80a8:	13 c0       	rjmp	.+38     	; 0x80d0 <vfprintf+0xea>
    80aa:	8a e0       	ldi	r24, 0x0A	; 10
    80ac:	38 9e       	mul	r3, r24
    80ae:	30 0d       	add	r19, r0
    80b0:	11 24       	eor	r1, r1
    80b2:	33 2e       	mov	r3, r19
    80b4:	20 62       	ori	r18, 0x20	; 32
    80b6:	0c c0       	rjmp	.+24     	; 0x80d0 <vfprintf+0xea>
    80b8:	8e 32       	cpi	r24, 0x2E	; 46
    80ba:	21 f4       	brne	.+8      	; 0x80c4 <vfprintf+0xde>
    80bc:	26 fd       	sbrc	r18, 6
    80be:	5f c1       	rjmp	.+702    	; 0x837e <vfprintf+0x398>
    80c0:	20 64       	ori	r18, 0x40	; 64
    80c2:	06 c0       	rjmp	.+12     	; 0x80d0 <vfprintf+0xea>
    80c4:	8c 36       	cpi	r24, 0x6C	; 108
    80c6:	11 f4       	brne	.+4      	; 0x80cc <vfprintf+0xe6>
    80c8:	20 68       	ori	r18, 0x80	; 128
    80ca:	02 c0       	rjmp	.+4      	; 0x80d0 <vfprintf+0xea>
    80cc:	88 36       	cpi	r24, 0x68	; 104
    80ce:	41 f4       	brne	.+16     	; 0x80e0 <vfprintf+0xfa>
    80d0:	f6 01       	movw	r30, r12
    80d2:	93 fd       	sbrc	r25, 3
    80d4:	85 91       	lpm	r24, Z+
    80d6:	93 ff       	sbrs	r25, 3
    80d8:	81 91       	ld	r24, Z+
    80da:	6f 01       	movw	r12, r30
    80dc:	81 11       	cpse	r24, r1
    80de:	c1 cf       	rjmp	.-126    	; 0x8062 <vfprintf+0x7c>
    80e0:	98 2f       	mov	r25, r24
    80e2:	9f 7d       	andi	r25, 0xDF	; 223
    80e4:	95 54       	subi	r25, 0x45	; 69
    80e6:	93 30       	cpi	r25, 0x03	; 3
    80e8:	28 f4       	brcc	.+10     	; 0x80f4 <vfprintf+0x10e>
    80ea:	0c 5f       	subi	r16, 0xFC	; 252
    80ec:	1f 4f       	sbci	r17, 0xFF	; 255
    80ee:	ff e3       	ldi	r31, 0x3F	; 63
    80f0:	f9 83       	std	Y+1, r31	; 0x01
    80f2:	0d c0       	rjmp	.+26     	; 0x810e <vfprintf+0x128>
    80f4:	83 36       	cpi	r24, 0x63	; 99
    80f6:	31 f0       	breq	.+12     	; 0x8104 <vfprintf+0x11e>
    80f8:	83 37       	cpi	r24, 0x73	; 115
    80fa:	71 f0       	breq	.+28     	; 0x8118 <vfprintf+0x132>
    80fc:	83 35       	cpi	r24, 0x53	; 83
    80fe:	09 f0       	breq	.+2      	; 0x8102 <vfprintf+0x11c>
    8100:	57 c0       	rjmp	.+174    	; 0x81b0 <vfprintf+0x1ca>
    8102:	21 c0       	rjmp	.+66     	; 0x8146 <vfprintf+0x160>
    8104:	f8 01       	movw	r30, r16
    8106:	80 81       	ld	r24, Z
    8108:	89 83       	std	Y+1, r24	; 0x01
    810a:	0e 5f       	subi	r16, 0xFE	; 254
    810c:	1f 4f       	sbci	r17, 0xFF	; 255
    810e:	44 24       	eor	r4, r4
    8110:	43 94       	inc	r4
    8112:	51 2c       	mov	r5, r1
    8114:	54 01       	movw	r10, r8
    8116:	14 c0       	rjmp	.+40     	; 0x8140 <vfprintf+0x15a>
    8118:	38 01       	movw	r6, r16
    811a:	f2 e0       	ldi	r31, 0x02	; 2
    811c:	6f 0e       	add	r6, r31
    811e:	71 1c       	adc	r7, r1
    8120:	f8 01       	movw	r30, r16
    8122:	a0 80       	ld	r10, Z
    8124:	b1 80       	ldd	r11, Z+1	; 0x01
    8126:	26 ff       	sbrs	r18, 6
    8128:	03 c0       	rjmp	.+6      	; 0x8130 <vfprintf+0x14a>
    812a:	65 2d       	mov	r22, r5
    812c:	70 e0       	ldi	r23, 0x00	; 0
    812e:	02 c0       	rjmp	.+4      	; 0x8134 <vfprintf+0x14e>
    8130:	6f ef       	ldi	r22, 0xFF	; 255
    8132:	7f ef       	ldi	r23, 0xFF	; 255
    8134:	c5 01       	movw	r24, r10
    8136:	2c 87       	std	Y+12, r18	; 0x0c
    8138:	49 d1       	rcall	.+658    	; 0x83cc <strnlen>
    813a:	2c 01       	movw	r4, r24
    813c:	83 01       	movw	r16, r6
    813e:	2c 85       	ldd	r18, Y+12	; 0x0c
    8140:	2f 77       	andi	r18, 0x7F	; 127
    8142:	22 2e       	mov	r2, r18
    8144:	16 c0       	rjmp	.+44     	; 0x8172 <vfprintf+0x18c>
    8146:	38 01       	movw	r6, r16
    8148:	f2 e0       	ldi	r31, 0x02	; 2
    814a:	6f 0e       	add	r6, r31
    814c:	71 1c       	adc	r7, r1
    814e:	f8 01       	movw	r30, r16
    8150:	a0 80       	ld	r10, Z
    8152:	b1 80       	ldd	r11, Z+1	; 0x01
    8154:	26 ff       	sbrs	r18, 6
    8156:	03 c0       	rjmp	.+6      	; 0x815e <vfprintf+0x178>
    8158:	65 2d       	mov	r22, r5
    815a:	70 e0       	ldi	r23, 0x00	; 0
    815c:	02 c0       	rjmp	.+4      	; 0x8162 <vfprintf+0x17c>
    815e:	6f ef       	ldi	r22, 0xFF	; 255
    8160:	7f ef       	ldi	r23, 0xFF	; 255
    8162:	c5 01       	movw	r24, r10
    8164:	2c 87       	std	Y+12, r18	; 0x0c
    8166:	27 d1       	rcall	.+590    	; 0x83b6 <strnlen_P>
    8168:	2c 01       	movw	r4, r24
    816a:	2c 85       	ldd	r18, Y+12	; 0x0c
    816c:	20 68       	ori	r18, 0x80	; 128
    816e:	22 2e       	mov	r2, r18
    8170:	83 01       	movw	r16, r6
    8172:	23 fc       	sbrc	r2, 3
    8174:	19 c0       	rjmp	.+50     	; 0x81a8 <vfprintf+0x1c2>
    8176:	83 2d       	mov	r24, r3
    8178:	90 e0       	ldi	r25, 0x00	; 0
    817a:	48 16       	cp	r4, r24
    817c:	59 06       	cpc	r5, r25
    817e:	a0 f4       	brcc	.+40     	; 0x81a8 <vfprintf+0x1c2>
    8180:	b7 01       	movw	r22, r14
    8182:	80 e2       	ldi	r24, 0x20	; 32
    8184:	90 e0       	ldi	r25, 0x00	; 0
    8186:	3d d1       	rcall	.+634    	; 0x8402 <fputc>
    8188:	3a 94       	dec	r3
    818a:	f5 cf       	rjmp	.-22     	; 0x8176 <vfprintf+0x190>
    818c:	f5 01       	movw	r30, r10
    818e:	27 fc       	sbrc	r2, 7
    8190:	85 91       	lpm	r24, Z+
    8192:	27 fe       	sbrs	r2, 7
    8194:	81 91       	ld	r24, Z+
    8196:	5f 01       	movw	r10, r30
    8198:	b7 01       	movw	r22, r14
    819a:	90 e0       	ldi	r25, 0x00	; 0
    819c:	32 d1       	rcall	.+612    	; 0x8402 <fputc>
    819e:	31 10       	cpse	r3, r1
    81a0:	3a 94       	dec	r3
    81a2:	f1 e0       	ldi	r31, 0x01	; 1
    81a4:	4f 1a       	sub	r4, r31
    81a6:	51 08       	sbc	r5, r1
    81a8:	41 14       	cp	r4, r1
    81aa:	51 04       	cpc	r5, r1
    81ac:	79 f7       	brne	.-34     	; 0x818c <vfprintf+0x1a6>
    81ae:	de c0       	rjmp	.+444    	; 0x836c <vfprintf+0x386>
    81b0:	84 36       	cpi	r24, 0x64	; 100
    81b2:	11 f0       	breq	.+4      	; 0x81b8 <vfprintf+0x1d2>
    81b4:	89 36       	cpi	r24, 0x69	; 105
    81b6:	31 f5       	brne	.+76     	; 0x8204 <vfprintf+0x21e>
    81b8:	f8 01       	movw	r30, r16
    81ba:	27 ff       	sbrs	r18, 7
    81bc:	07 c0       	rjmp	.+14     	; 0x81cc <vfprintf+0x1e6>
    81be:	60 81       	ld	r22, Z
    81c0:	71 81       	ldd	r23, Z+1	; 0x01
    81c2:	82 81       	ldd	r24, Z+2	; 0x02
    81c4:	93 81       	ldd	r25, Z+3	; 0x03
    81c6:	0c 5f       	subi	r16, 0xFC	; 252
    81c8:	1f 4f       	sbci	r17, 0xFF	; 255
    81ca:	08 c0       	rjmp	.+16     	; 0x81dc <vfprintf+0x1f6>
    81cc:	60 81       	ld	r22, Z
    81ce:	71 81       	ldd	r23, Z+1	; 0x01
    81d0:	88 27       	eor	r24, r24
    81d2:	77 fd       	sbrc	r23, 7
    81d4:	80 95       	com	r24
    81d6:	98 2f       	mov	r25, r24
    81d8:	0e 5f       	subi	r16, 0xFE	; 254
    81da:	1f 4f       	sbci	r17, 0xFF	; 255
    81dc:	2f 76       	andi	r18, 0x6F	; 111
    81de:	b2 2e       	mov	r11, r18
    81e0:	97 ff       	sbrs	r25, 7
    81e2:	09 c0       	rjmp	.+18     	; 0x81f6 <vfprintf+0x210>
    81e4:	90 95       	com	r25
    81e6:	80 95       	com	r24
    81e8:	70 95       	com	r23
    81ea:	61 95       	neg	r22
    81ec:	7f 4f       	sbci	r23, 0xFF	; 255
    81ee:	8f 4f       	sbci	r24, 0xFF	; 255
    81f0:	9f 4f       	sbci	r25, 0xFF	; 255
    81f2:	20 68       	ori	r18, 0x80	; 128
    81f4:	b2 2e       	mov	r11, r18
    81f6:	2a e0       	ldi	r18, 0x0A	; 10
    81f8:	30 e0       	ldi	r19, 0x00	; 0
    81fa:	a4 01       	movw	r20, r8
    81fc:	34 d1       	rcall	.+616    	; 0x8466 <__ultoa_invert>
    81fe:	a8 2e       	mov	r10, r24
    8200:	a8 18       	sub	r10, r8
    8202:	43 c0       	rjmp	.+134    	; 0x828a <vfprintf+0x2a4>
    8204:	85 37       	cpi	r24, 0x75	; 117
    8206:	29 f4       	brne	.+10     	; 0x8212 <vfprintf+0x22c>
    8208:	2f 7e       	andi	r18, 0xEF	; 239
    820a:	b2 2e       	mov	r11, r18
    820c:	2a e0       	ldi	r18, 0x0A	; 10
    820e:	30 e0       	ldi	r19, 0x00	; 0
    8210:	25 c0       	rjmp	.+74     	; 0x825c <vfprintf+0x276>
    8212:	f2 2f       	mov	r31, r18
    8214:	f9 7f       	andi	r31, 0xF9	; 249
    8216:	bf 2e       	mov	r11, r31
    8218:	8f 36       	cpi	r24, 0x6F	; 111
    821a:	c1 f0       	breq	.+48     	; 0x824c <vfprintf+0x266>
    821c:	18 f4       	brcc	.+6      	; 0x8224 <vfprintf+0x23e>
    821e:	88 35       	cpi	r24, 0x58	; 88
    8220:	79 f0       	breq	.+30     	; 0x8240 <vfprintf+0x25a>
    8222:	ad c0       	rjmp	.+346    	; 0x837e <vfprintf+0x398>
    8224:	80 37       	cpi	r24, 0x70	; 112
    8226:	19 f0       	breq	.+6      	; 0x822e <vfprintf+0x248>
    8228:	88 37       	cpi	r24, 0x78	; 120
    822a:	21 f0       	breq	.+8      	; 0x8234 <vfprintf+0x24e>
    822c:	a8 c0       	rjmp	.+336    	; 0x837e <vfprintf+0x398>
    822e:	2f 2f       	mov	r18, r31
    8230:	20 61       	ori	r18, 0x10	; 16
    8232:	b2 2e       	mov	r11, r18
    8234:	b4 fe       	sbrs	r11, 4
    8236:	0d c0       	rjmp	.+26     	; 0x8252 <vfprintf+0x26c>
    8238:	8b 2d       	mov	r24, r11
    823a:	84 60       	ori	r24, 0x04	; 4
    823c:	b8 2e       	mov	r11, r24
    823e:	09 c0       	rjmp	.+18     	; 0x8252 <vfprintf+0x26c>
    8240:	24 ff       	sbrs	r18, 4
    8242:	0a c0       	rjmp	.+20     	; 0x8258 <vfprintf+0x272>
    8244:	9f 2f       	mov	r25, r31
    8246:	96 60       	ori	r25, 0x06	; 6
    8248:	b9 2e       	mov	r11, r25
    824a:	06 c0       	rjmp	.+12     	; 0x8258 <vfprintf+0x272>
    824c:	28 e0       	ldi	r18, 0x08	; 8
    824e:	30 e0       	ldi	r19, 0x00	; 0
    8250:	05 c0       	rjmp	.+10     	; 0x825c <vfprintf+0x276>
    8252:	20 e1       	ldi	r18, 0x10	; 16
    8254:	30 e0       	ldi	r19, 0x00	; 0
    8256:	02 c0       	rjmp	.+4      	; 0x825c <vfprintf+0x276>
    8258:	20 e1       	ldi	r18, 0x10	; 16
    825a:	32 e0       	ldi	r19, 0x02	; 2
    825c:	f8 01       	movw	r30, r16
    825e:	b7 fe       	sbrs	r11, 7
    8260:	07 c0       	rjmp	.+14     	; 0x8270 <vfprintf+0x28a>
    8262:	60 81       	ld	r22, Z
    8264:	71 81       	ldd	r23, Z+1	; 0x01
    8266:	82 81       	ldd	r24, Z+2	; 0x02
    8268:	93 81       	ldd	r25, Z+3	; 0x03
    826a:	0c 5f       	subi	r16, 0xFC	; 252
    826c:	1f 4f       	sbci	r17, 0xFF	; 255
    826e:	06 c0       	rjmp	.+12     	; 0x827c <vfprintf+0x296>
    8270:	60 81       	ld	r22, Z
    8272:	71 81       	ldd	r23, Z+1	; 0x01
    8274:	80 e0       	ldi	r24, 0x00	; 0
    8276:	90 e0       	ldi	r25, 0x00	; 0
    8278:	0e 5f       	subi	r16, 0xFE	; 254
    827a:	1f 4f       	sbci	r17, 0xFF	; 255
    827c:	a4 01       	movw	r20, r8
    827e:	f3 d0       	rcall	.+486    	; 0x8466 <__ultoa_invert>
    8280:	a8 2e       	mov	r10, r24
    8282:	a8 18       	sub	r10, r8
    8284:	fb 2d       	mov	r31, r11
    8286:	ff 77       	andi	r31, 0x7F	; 127
    8288:	bf 2e       	mov	r11, r31
    828a:	b6 fe       	sbrs	r11, 6
    828c:	0b c0       	rjmp	.+22     	; 0x82a4 <vfprintf+0x2be>
    828e:	2b 2d       	mov	r18, r11
    8290:	2e 7f       	andi	r18, 0xFE	; 254
    8292:	a5 14       	cp	r10, r5
    8294:	50 f4       	brcc	.+20     	; 0x82aa <vfprintf+0x2c4>
    8296:	b4 fe       	sbrs	r11, 4
    8298:	0a c0       	rjmp	.+20     	; 0x82ae <vfprintf+0x2c8>
    829a:	b2 fc       	sbrc	r11, 2
    829c:	08 c0       	rjmp	.+16     	; 0x82ae <vfprintf+0x2c8>
    829e:	2b 2d       	mov	r18, r11
    82a0:	2e 7e       	andi	r18, 0xEE	; 238
    82a2:	05 c0       	rjmp	.+10     	; 0x82ae <vfprintf+0x2c8>
    82a4:	7a 2c       	mov	r7, r10
    82a6:	2b 2d       	mov	r18, r11
    82a8:	03 c0       	rjmp	.+6      	; 0x82b0 <vfprintf+0x2ca>
    82aa:	7a 2c       	mov	r7, r10
    82ac:	01 c0       	rjmp	.+2      	; 0x82b0 <vfprintf+0x2ca>
    82ae:	75 2c       	mov	r7, r5
    82b0:	24 ff       	sbrs	r18, 4
    82b2:	0d c0       	rjmp	.+26     	; 0x82ce <vfprintf+0x2e8>
    82b4:	fe 01       	movw	r30, r28
    82b6:	ea 0d       	add	r30, r10
    82b8:	f1 1d       	adc	r31, r1
    82ba:	80 81       	ld	r24, Z
    82bc:	80 33       	cpi	r24, 0x30	; 48
    82be:	11 f4       	brne	.+4      	; 0x82c4 <vfprintf+0x2de>
    82c0:	29 7e       	andi	r18, 0xE9	; 233
    82c2:	09 c0       	rjmp	.+18     	; 0x82d6 <vfprintf+0x2f0>
    82c4:	22 ff       	sbrs	r18, 2
    82c6:	06 c0       	rjmp	.+12     	; 0x82d4 <vfprintf+0x2ee>
    82c8:	73 94       	inc	r7
    82ca:	73 94       	inc	r7
    82cc:	04 c0       	rjmp	.+8      	; 0x82d6 <vfprintf+0x2f0>
    82ce:	82 2f       	mov	r24, r18
    82d0:	86 78       	andi	r24, 0x86	; 134
    82d2:	09 f0       	breq	.+2      	; 0x82d6 <vfprintf+0x2f0>
    82d4:	73 94       	inc	r7
    82d6:	23 fd       	sbrc	r18, 3
    82d8:	12 c0       	rjmp	.+36     	; 0x82fe <vfprintf+0x318>
    82da:	20 ff       	sbrs	r18, 0
    82dc:	06 c0       	rjmp	.+12     	; 0x82ea <vfprintf+0x304>
    82de:	5a 2c       	mov	r5, r10
    82e0:	73 14       	cp	r7, r3
    82e2:	18 f4       	brcc	.+6      	; 0x82ea <vfprintf+0x304>
    82e4:	53 0c       	add	r5, r3
    82e6:	57 18       	sub	r5, r7
    82e8:	73 2c       	mov	r7, r3
    82ea:	73 14       	cp	r7, r3
    82ec:	60 f4       	brcc	.+24     	; 0x8306 <vfprintf+0x320>
    82ee:	b7 01       	movw	r22, r14
    82f0:	80 e2       	ldi	r24, 0x20	; 32
    82f2:	90 e0       	ldi	r25, 0x00	; 0
    82f4:	2c 87       	std	Y+12, r18	; 0x0c
    82f6:	85 d0       	rcall	.+266    	; 0x8402 <fputc>
    82f8:	73 94       	inc	r7
    82fa:	2c 85       	ldd	r18, Y+12	; 0x0c
    82fc:	f6 cf       	rjmp	.-20     	; 0x82ea <vfprintf+0x304>
    82fe:	73 14       	cp	r7, r3
    8300:	10 f4       	brcc	.+4      	; 0x8306 <vfprintf+0x320>
    8302:	37 18       	sub	r3, r7
    8304:	01 c0       	rjmp	.+2      	; 0x8308 <vfprintf+0x322>
    8306:	31 2c       	mov	r3, r1
    8308:	24 ff       	sbrs	r18, 4
    830a:	11 c0       	rjmp	.+34     	; 0x832e <vfprintf+0x348>
    830c:	b7 01       	movw	r22, r14
    830e:	80 e3       	ldi	r24, 0x30	; 48
    8310:	90 e0       	ldi	r25, 0x00	; 0
    8312:	2c 87       	std	Y+12, r18	; 0x0c
    8314:	76 d0       	rcall	.+236    	; 0x8402 <fputc>
    8316:	2c 85       	ldd	r18, Y+12	; 0x0c
    8318:	22 ff       	sbrs	r18, 2
    831a:	16 c0       	rjmp	.+44     	; 0x8348 <vfprintf+0x362>
    831c:	21 ff       	sbrs	r18, 1
    831e:	03 c0       	rjmp	.+6      	; 0x8326 <vfprintf+0x340>
    8320:	88 e5       	ldi	r24, 0x58	; 88
    8322:	90 e0       	ldi	r25, 0x00	; 0
    8324:	02 c0       	rjmp	.+4      	; 0x832a <vfprintf+0x344>
    8326:	88 e7       	ldi	r24, 0x78	; 120
    8328:	90 e0       	ldi	r25, 0x00	; 0
    832a:	b7 01       	movw	r22, r14
    832c:	0c c0       	rjmp	.+24     	; 0x8346 <vfprintf+0x360>
    832e:	82 2f       	mov	r24, r18
    8330:	86 78       	andi	r24, 0x86	; 134
    8332:	51 f0       	breq	.+20     	; 0x8348 <vfprintf+0x362>
    8334:	21 fd       	sbrc	r18, 1
    8336:	02 c0       	rjmp	.+4      	; 0x833c <vfprintf+0x356>
    8338:	80 e2       	ldi	r24, 0x20	; 32
    833a:	01 c0       	rjmp	.+2      	; 0x833e <vfprintf+0x358>
    833c:	8b e2       	ldi	r24, 0x2B	; 43
    833e:	27 fd       	sbrc	r18, 7
    8340:	8d e2       	ldi	r24, 0x2D	; 45
    8342:	b7 01       	movw	r22, r14
    8344:	90 e0       	ldi	r25, 0x00	; 0
    8346:	5d d0       	rcall	.+186    	; 0x8402 <fputc>
    8348:	a5 14       	cp	r10, r5
    834a:	30 f4       	brcc	.+12     	; 0x8358 <vfprintf+0x372>
    834c:	b7 01       	movw	r22, r14
    834e:	80 e3       	ldi	r24, 0x30	; 48
    8350:	90 e0       	ldi	r25, 0x00	; 0
    8352:	57 d0       	rcall	.+174    	; 0x8402 <fputc>
    8354:	5a 94       	dec	r5
    8356:	f8 cf       	rjmp	.-16     	; 0x8348 <vfprintf+0x362>
    8358:	aa 94       	dec	r10
    835a:	f4 01       	movw	r30, r8
    835c:	ea 0d       	add	r30, r10
    835e:	f1 1d       	adc	r31, r1
    8360:	80 81       	ld	r24, Z
    8362:	b7 01       	movw	r22, r14
    8364:	90 e0       	ldi	r25, 0x00	; 0
    8366:	4d d0       	rcall	.+154    	; 0x8402 <fputc>
    8368:	a1 10       	cpse	r10, r1
    836a:	f6 cf       	rjmp	.-20     	; 0x8358 <vfprintf+0x372>
    836c:	33 20       	and	r3, r3
    836e:	09 f4       	brne	.+2      	; 0x8372 <vfprintf+0x38c>
    8370:	5d ce       	rjmp	.-838    	; 0x802c <vfprintf+0x46>
    8372:	b7 01       	movw	r22, r14
    8374:	80 e2       	ldi	r24, 0x20	; 32
    8376:	90 e0       	ldi	r25, 0x00	; 0
    8378:	44 d0       	rcall	.+136    	; 0x8402 <fputc>
    837a:	3a 94       	dec	r3
    837c:	f7 cf       	rjmp	.-18     	; 0x836c <vfprintf+0x386>
    837e:	f7 01       	movw	r30, r14
    8380:	86 81       	ldd	r24, Z+6	; 0x06
    8382:	97 81       	ldd	r25, Z+7	; 0x07
    8384:	02 c0       	rjmp	.+4      	; 0x838a <vfprintf+0x3a4>
    8386:	8f ef       	ldi	r24, 0xFF	; 255
    8388:	9f ef       	ldi	r25, 0xFF	; 255
    838a:	2c 96       	adiw	r28, 0x0c	; 12
    838c:	cd bf       	out	0x3d, r28	; 61
    838e:	de bf       	out	0x3e, r29	; 62
    8390:	df 91       	pop	r29
    8392:	cf 91       	pop	r28
    8394:	1f 91       	pop	r17
    8396:	0f 91       	pop	r16
    8398:	ff 90       	pop	r15
    839a:	ef 90       	pop	r14
    839c:	df 90       	pop	r13
    839e:	cf 90       	pop	r12
    83a0:	bf 90       	pop	r11
    83a2:	af 90       	pop	r10
    83a4:	9f 90       	pop	r9
    83a6:	8f 90       	pop	r8
    83a8:	7f 90       	pop	r7
    83aa:	6f 90       	pop	r6
    83ac:	5f 90       	pop	r5
    83ae:	4f 90       	pop	r4
    83b0:	3f 90       	pop	r3
    83b2:	2f 90       	pop	r2
    83b4:	08 95       	ret

000083b6 <strnlen_P>:
    83b6:	fc 01       	movw	r30, r24
    83b8:	05 90       	lpm	r0, Z+
    83ba:	61 50       	subi	r22, 0x01	; 1
    83bc:	70 40       	sbci	r23, 0x00	; 0
    83be:	01 10       	cpse	r0, r1
    83c0:	d8 f7       	brcc	.-10     	; 0x83b8 <strnlen_P+0x2>
    83c2:	80 95       	com	r24
    83c4:	90 95       	com	r25
    83c6:	8e 0f       	add	r24, r30
    83c8:	9f 1f       	adc	r25, r31
    83ca:	08 95       	ret

000083cc <strnlen>:
    83cc:	fc 01       	movw	r30, r24
    83ce:	61 50       	subi	r22, 0x01	; 1
    83d0:	70 40       	sbci	r23, 0x00	; 0
    83d2:	01 90       	ld	r0, Z+
    83d4:	01 10       	cpse	r0, r1
    83d6:	d8 f7       	brcc	.-10     	; 0x83ce <strnlen+0x2>
    83d8:	80 95       	com	r24
    83da:	90 95       	com	r25
    83dc:	8e 0f       	add	r24, r30
    83de:	9f 1f       	adc	r25, r31
    83e0:	08 95       	ret

000083e2 <strrev>:
    83e2:	dc 01       	movw	r26, r24
    83e4:	fc 01       	movw	r30, r24
    83e6:	67 2f       	mov	r22, r23
    83e8:	71 91       	ld	r23, Z+
    83ea:	77 23       	and	r23, r23
    83ec:	e1 f7       	brne	.-8      	; 0x83e6 <strrev+0x4>
    83ee:	32 97       	sbiw	r30, 0x02	; 2
    83f0:	04 c0       	rjmp	.+8      	; 0x83fa <strrev+0x18>
    83f2:	7c 91       	ld	r23, X
    83f4:	6d 93       	st	X+, r22
    83f6:	70 83       	st	Z, r23
    83f8:	62 91       	ld	r22, -Z
    83fa:	ae 17       	cp	r26, r30
    83fc:	bf 07       	cpc	r27, r31
    83fe:	c8 f3       	brcs	.-14     	; 0x83f2 <strrev+0x10>
    8400:	08 95       	ret

00008402 <fputc>:
    8402:	0f 93       	push	r16
    8404:	1f 93       	push	r17
    8406:	cf 93       	push	r28
    8408:	df 93       	push	r29
    840a:	18 2f       	mov	r17, r24
    840c:	09 2f       	mov	r16, r25
    840e:	eb 01       	movw	r28, r22
    8410:	8b 81       	ldd	r24, Y+3	; 0x03
    8412:	81 fd       	sbrc	r24, 1
    8414:	03 c0       	rjmp	.+6      	; 0x841c <fputc+0x1a>
    8416:	8f ef       	ldi	r24, 0xFF	; 255
    8418:	9f ef       	ldi	r25, 0xFF	; 255
    841a:	20 c0       	rjmp	.+64     	; 0x845c <fputc+0x5a>
    841c:	82 ff       	sbrs	r24, 2
    841e:	10 c0       	rjmp	.+32     	; 0x8440 <fputc+0x3e>
    8420:	4e 81       	ldd	r20, Y+6	; 0x06
    8422:	5f 81       	ldd	r21, Y+7	; 0x07
    8424:	2c 81       	ldd	r18, Y+4	; 0x04
    8426:	3d 81       	ldd	r19, Y+5	; 0x05
    8428:	42 17       	cp	r20, r18
    842a:	53 07       	cpc	r21, r19
    842c:	7c f4       	brge	.+30     	; 0x844c <fputc+0x4a>
    842e:	e8 81       	ld	r30, Y
    8430:	f9 81       	ldd	r31, Y+1	; 0x01
    8432:	9f 01       	movw	r18, r30
    8434:	2f 5f       	subi	r18, 0xFF	; 255
    8436:	3f 4f       	sbci	r19, 0xFF	; 255
    8438:	28 83       	st	Y, r18
    843a:	39 83       	std	Y+1, r19	; 0x01
    843c:	10 83       	st	Z, r17
    843e:	06 c0       	rjmp	.+12     	; 0x844c <fputc+0x4a>
    8440:	e8 85       	ldd	r30, Y+8	; 0x08
    8442:	f9 85       	ldd	r31, Y+9	; 0x09
    8444:	81 2f       	mov	r24, r17
    8446:	19 95       	eicall
    8448:	89 2b       	or	r24, r25
    844a:	29 f7       	brne	.-54     	; 0x8416 <fputc+0x14>
    844c:	2e 81       	ldd	r18, Y+6	; 0x06
    844e:	3f 81       	ldd	r19, Y+7	; 0x07
    8450:	2f 5f       	subi	r18, 0xFF	; 255
    8452:	3f 4f       	sbci	r19, 0xFF	; 255
    8454:	2e 83       	std	Y+6, r18	; 0x06
    8456:	3f 83       	std	Y+7, r19	; 0x07
    8458:	81 2f       	mov	r24, r17
    845a:	90 2f       	mov	r25, r16
    845c:	df 91       	pop	r29
    845e:	cf 91       	pop	r28
    8460:	1f 91       	pop	r17
    8462:	0f 91       	pop	r16
    8464:	08 95       	ret

00008466 <__ultoa_invert>:
    8466:	fa 01       	movw	r30, r20
    8468:	aa 27       	eor	r26, r26
    846a:	28 30       	cpi	r18, 0x08	; 8
    846c:	51 f1       	breq	.+84     	; 0x84c2 <__ultoa_invert+0x5c>
    846e:	20 31       	cpi	r18, 0x10	; 16
    8470:	81 f1       	breq	.+96     	; 0x84d2 <__ultoa_invert+0x6c>
    8472:	e8 94       	clt
    8474:	6f 93       	push	r22
    8476:	6e 7f       	andi	r22, 0xFE	; 254
    8478:	6e 5f       	subi	r22, 0xFE	; 254
    847a:	7f 4f       	sbci	r23, 0xFF	; 255
    847c:	8f 4f       	sbci	r24, 0xFF	; 255
    847e:	9f 4f       	sbci	r25, 0xFF	; 255
    8480:	af 4f       	sbci	r26, 0xFF	; 255
    8482:	b1 e0       	ldi	r27, 0x01	; 1
    8484:	3e d0       	rcall	.+124    	; 0x8502 <__ultoa_invert+0x9c>
    8486:	b4 e0       	ldi	r27, 0x04	; 4
    8488:	3c d0       	rcall	.+120    	; 0x8502 <__ultoa_invert+0x9c>
    848a:	67 0f       	add	r22, r23
    848c:	78 1f       	adc	r23, r24
    848e:	89 1f       	adc	r24, r25
    8490:	9a 1f       	adc	r25, r26
    8492:	a1 1d       	adc	r26, r1
    8494:	68 0f       	add	r22, r24
    8496:	79 1f       	adc	r23, r25
    8498:	8a 1f       	adc	r24, r26
    849a:	91 1d       	adc	r25, r1
    849c:	a1 1d       	adc	r26, r1
    849e:	6a 0f       	add	r22, r26
    84a0:	71 1d       	adc	r23, r1
    84a2:	81 1d       	adc	r24, r1
    84a4:	91 1d       	adc	r25, r1
    84a6:	a1 1d       	adc	r26, r1
    84a8:	20 d0       	rcall	.+64     	; 0x84ea <__ultoa_invert+0x84>
    84aa:	09 f4       	brne	.+2      	; 0x84ae <__ultoa_invert+0x48>
    84ac:	68 94       	set
    84ae:	3f 91       	pop	r19
    84b0:	2a e0       	ldi	r18, 0x0A	; 10
    84b2:	26 9f       	mul	r18, r22
    84b4:	11 24       	eor	r1, r1
    84b6:	30 19       	sub	r19, r0
    84b8:	30 5d       	subi	r19, 0xD0	; 208
    84ba:	31 93       	st	Z+, r19
    84bc:	de f6       	brtc	.-74     	; 0x8474 <__ultoa_invert+0xe>
    84be:	cf 01       	movw	r24, r30
    84c0:	08 95       	ret
    84c2:	46 2f       	mov	r20, r22
    84c4:	47 70       	andi	r20, 0x07	; 7
    84c6:	40 5d       	subi	r20, 0xD0	; 208
    84c8:	41 93       	st	Z+, r20
    84ca:	b3 e0       	ldi	r27, 0x03	; 3
    84cc:	0f d0       	rcall	.+30     	; 0x84ec <__ultoa_invert+0x86>
    84ce:	c9 f7       	brne	.-14     	; 0x84c2 <__ultoa_invert+0x5c>
    84d0:	f6 cf       	rjmp	.-20     	; 0x84be <__ultoa_invert+0x58>
    84d2:	46 2f       	mov	r20, r22
    84d4:	4f 70       	andi	r20, 0x0F	; 15
    84d6:	40 5d       	subi	r20, 0xD0	; 208
    84d8:	4a 33       	cpi	r20, 0x3A	; 58
    84da:	18 f0       	brcs	.+6      	; 0x84e2 <__ultoa_invert+0x7c>
    84dc:	49 5d       	subi	r20, 0xD9	; 217
    84de:	31 fd       	sbrc	r19, 1
    84e0:	40 52       	subi	r20, 0x20	; 32
    84e2:	41 93       	st	Z+, r20
    84e4:	02 d0       	rcall	.+4      	; 0x84ea <__ultoa_invert+0x84>
    84e6:	a9 f7       	brne	.-22     	; 0x84d2 <__ultoa_invert+0x6c>
    84e8:	ea cf       	rjmp	.-44     	; 0x84be <__ultoa_invert+0x58>
    84ea:	b4 e0       	ldi	r27, 0x04	; 4
    84ec:	a6 95       	lsr	r26
    84ee:	97 95       	ror	r25
    84f0:	87 95       	ror	r24
    84f2:	77 95       	ror	r23
    84f4:	67 95       	ror	r22
    84f6:	ba 95       	dec	r27
    84f8:	c9 f7       	brne	.-14     	; 0x84ec <__ultoa_invert+0x86>
    84fa:	00 97       	sbiw	r24, 0x00	; 0
    84fc:	61 05       	cpc	r22, r1
    84fe:	71 05       	cpc	r23, r1
    8500:	08 95       	ret
    8502:	9b 01       	movw	r18, r22
    8504:	ac 01       	movw	r20, r24
    8506:	0a 2e       	mov	r0, r26
    8508:	06 94       	lsr	r0
    850a:	57 95       	ror	r21
    850c:	47 95       	ror	r20
    850e:	37 95       	ror	r19
    8510:	27 95       	ror	r18
    8512:	ba 95       	dec	r27
    8514:	c9 f7       	brne	.-14     	; 0x8508 <__ultoa_invert+0xa2>
    8516:	62 0f       	add	r22, r18
    8518:	73 1f       	adc	r23, r19
    851a:	84 1f       	adc	r24, r20
    851c:	95 1f       	adc	r25, r21
    851e:	a0 1d       	adc	r26, r0
    8520:	08 95       	ret

00008522 <_exit>:
    8522:	f8 94       	cli

00008524 <__stop_program>:
    8524:	ff cf       	rjmp	.-2      	; 0x8524 <__stop_program>
