
RTVT.elf:     file format elf32-avr

Sections:
Idx Name          Size      VMA       LMA       File off  Algn
  0 .text         00002aca  00000000  00000000  00000094  2**1
                  CONTENTS, ALLOC, LOAD, READONLY, CODE
  1 .data         000000b6  00802000  00002aca  00002b5e  2**0
                  CONTENTS, ALLOC, LOAD, DATA
  2 .bss          00000011  008020b6  008020b6  00002c14  2**0
                  ALLOC
  3 .comment      0000005c  00000000  00000000  00002c14  2**0
                  CONTENTS, READONLY
  4 .debug_aranges 000007a0  00000000  00000000  00002c70  2**0
                  CONTENTS, READONLY, DEBUGGING
  5 .debug_info   0001187e  00000000  00000000  00003410  2**0
                  CONTENTS, READONLY, DEBUGGING
  6 .debug_abbrev 00002cfe  00000000  00000000  00014c8e  2**0
                  CONTENTS, READONLY, DEBUGGING
  7 .debug_line   00006695  00000000  00000000  0001798c  2**0
                  CONTENTS, READONLY, DEBUGGING
  8 .debug_frame  000022c0  00000000  00000000  0001e024  2**2
                  CONTENTS, READONLY, DEBUGGING
  9 .debug_str    0001d9c2  00000000  00000000  000202e4  2**0
                  CONTENTS, READONLY, DEBUGGING
 10 .debug_loc    0000bf63  00000000  00000000  0003dca6  2**0
                  CONTENTS, READONLY, DEBUGGING
 11 .debug_ranges 00000820  00000000  00000000  00049c09  2**0
                  CONTENTS, READONLY, DEBUGGING
 12 .debug_macro  00007673  00000000  00000000  0004a429  2**0
                  CONTENTS, READONLY, DEBUGGING

Disassembly of section .text:

00000000 <__vectors>:
       0:	83 c3       	rjmp	.+1798   	; 0x708 <__ctors_end>
       2:	00 00       	nop
       4:	b2 c3       	rjmp	.+1892   	; 0x76a <__bad_interrupt>
       6:	00 00       	nop
       8:	b0 c3       	rjmp	.+1888   	; 0x76a <__bad_interrupt>
       a:	00 00       	nop
       c:	ae c3       	rjmp	.+1884   	; 0x76a <__bad_interrupt>
       e:	00 00       	nop
      10:	ac c3       	rjmp	.+1880   	; 0x76a <__bad_interrupt>
      12:	00 00       	nop
      14:	aa c3       	rjmp	.+1876   	; 0x76a <__bad_interrupt>
      16:	00 00       	nop
      18:	a8 c3       	rjmp	.+1872   	; 0x76a <__bad_interrupt>
      1a:	00 00       	nop
      1c:	a6 c3       	rjmp	.+1868   	; 0x76a <__bad_interrupt>
      1e:	00 00       	nop
      20:	a4 c3       	rjmp	.+1864   	; 0x76a <__bad_interrupt>
      22:	00 00       	nop
      24:	a2 c3       	rjmp	.+1860   	; 0x76a <__bad_interrupt>
      26:	00 00       	nop
      28:	a0 c3       	rjmp	.+1856   	; 0x76a <__bad_interrupt>
      2a:	00 00       	nop
      2c:	9e c3       	rjmp	.+1852   	; 0x76a <__bad_interrupt>
      2e:	00 00       	nop
      30:	9c c3       	rjmp	.+1848   	; 0x76a <__bad_interrupt>
      32:	00 00       	nop
      34:	9a c3       	rjmp	.+1844   	; 0x76a <__bad_interrupt>
      36:	00 00       	nop
      38:	98 c3       	rjmp	.+1840   	; 0x76a <__bad_interrupt>
      3a:	00 00       	nop
      3c:	96 c3       	rjmp	.+1836   	; 0x76a <__bad_interrupt>
      3e:	00 00       	nop
      40:	0c 94 1c 0e 	jmp	0x1c38	; 0x1c38 <__vector_16>
      44:	92 c3       	rjmp	.+1828   	; 0x76a <__bad_interrupt>
      46:	00 00       	nop
      48:	90 c3       	rjmp	.+1824   	; 0x76a <__bad_interrupt>
      4a:	00 00       	nop
      4c:	8e c3       	rjmp	.+1820   	; 0x76a <__bad_interrupt>
      4e:	00 00       	nop
      50:	8c c3       	rjmp	.+1816   	; 0x76a <__bad_interrupt>
      52:	00 00       	nop
      54:	8a c3       	rjmp	.+1812   	; 0x76a <__bad_interrupt>
      56:	00 00       	nop
      58:	88 c3       	rjmp	.+1808   	; 0x76a <__bad_interrupt>
      5a:	00 00       	nop
      5c:	86 c3       	rjmp	.+1804   	; 0x76a <__bad_interrupt>
      5e:	00 00       	nop
      60:	84 c3       	rjmp	.+1800   	; 0x76a <__bad_interrupt>
      62:	00 00       	nop
      64:	82 c3       	rjmp	.+1796   	; 0x76a <__bad_interrupt>
      66:	00 00       	nop
      68:	80 c3       	rjmp	.+1792   	; 0x76a <__bad_interrupt>
      6a:	00 00       	nop
      6c:	7e c3       	rjmp	.+1788   	; 0x76a <__bad_interrupt>
      6e:	00 00       	nop
      70:	7c c3       	rjmp	.+1784   	; 0x76a <__bad_interrupt>
      72:	00 00       	nop
      74:	7a c3       	rjmp	.+1780   	; 0x76a <__bad_interrupt>
      76:	00 00       	nop
      78:	78 c3       	rjmp	.+1776   	; 0x76a <__bad_interrupt>
      7a:	00 00       	nop
      7c:	76 c3       	rjmp	.+1772   	; 0x76a <__bad_interrupt>
      7e:	00 00       	nop
      80:	74 c3       	rjmp	.+1768   	; 0x76a <__bad_interrupt>
      82:	00 00       	nop
      84:	72 c3       	rjmp	.+1764   	; 0x76a <__bad_interrupt>
      86:	00 00       	nop
      88:	70 c3       	rjmp	.+1760   	; 0x76a <__bad_interrupt>
      8a:	00 00       	nop
      8c:	6e c3       	rjmp	.+1756   	; 0x76a <__bad_interrupt>
      8e:	00 00       	nop
      90:	6c c3       	rjmp	.+1752   	; 0x76a <__bad_interrupt>
      92:	00 00       	nop
      94:	6a c3       	rjmp	.+1748   	; 0x76a <__bad_interrupt>
      96:	00 00       	nop
      98:	68 c3       	rjmp	.+1744   	; 0x76a <__bad_interrupt>
      9a:	00 00       	nop
      9c:	66 c3       	rjmp	.+1740   	; 0x76a <__bad_interrupt>
      9e:	00 00       	nop
      a0:	64 c3       	rjmp	.+1736   	; 0x76a <__bad_interrupt>
      a2:	00 00       	nop
      a4:	62 c3       	rjmp	.+1732   	; 0x76a <__bad_interrupt>
      a6:	00 00       	nop
      a8:	60 c3       	rjmp	.+1728   	; 0x76a <__bad_interrupt>
      aa:	00 00       	nop
      ac:	5e c3       	rjmp	.+1724   	; 0x76a <__bad_interrupt>
      ae:	00 00       	nop
      b0:	5c c3       	rjmp	.+1720   	; 0x76a <__bad_interrupt>
      b2:	00 00       	nop
      b4:	5a c3       	rjmp	.+1716   	; 0x76a <__bad_interrupt>
      b6:	00 00       	nop
      b8:	58 c3       	rjmp	.+1712   	; 0x76a <__bad_interrupt>
      ba:	00 00       	nop
      bc:	56 c3       	rjmp	.+1708   	; 0x76a <__bad_interrupt>
      be:	00 00       	nop
      c0:	54 c3       	rjmp	.+1704   	; 0x76a <__bad_interrupt>
      c2:	00 00       	nop
      c4:	52 c3       	rjmp	.+1700   	; 0x76a <__bad_interrupt>
      c6:	00 00       	nop
      c8:	50 c3       	rjmp	.+1696   	; 0x76a <__bad_interrupt>
      ca:	00 00       	nop
      cc:	4e c3       	rjmp	.+1692   	; 0x76a <__bad_interrupt>
      ce:	00 00       	nop
      d0:	4c c3       	rjmp	.+1688   	; 0x76a <__bad_interrupt>
      d2:	00 00       	nop
      d4:	4a c3       	rjmp	.+1684   	; 0x76a <__bad_interrupt>
      d6:	00 00       	nop
      d8:	48 c3       	rjmp	.+1680   	; 0x76a <__bad_interrupt>
      da:	00 00       	nop
      dc:	46 c3       	rjmp	.+1676   	; 0x76a <__bad_interrupt>
      de:	00 00       	nop
      e0:	44 c3       	rjmp	.+1672   	; 0x76a <__bad_interrupt>
      e2:	00 00       	nop
      e4:	0c 94 12 0e 	jmp	0x1c24	; 0x1c24 <__vector_57>
      e8:	40 c3       	rjmp	.+1664   	; 0x76a <__bad_interrupt>
      ea:	00 00       	nop
      ec:	3e c3       	rjmp	.+1660   	; 0x76a <__bad_interrupt>
      ee:	00 00       	nop
      f0:	3c c3       	rjmp	.+1656   	; 0x76a <__bad_interrupt>
      f2:	00 00       	nop
      f4:	3a c3       	rjmp	.+1652   	; 0x76a <__bad_interrupt>
      f6:	00 00       	nop
      f8:	38 c3       	rjmp	.+1648   	; 0x76a <__bad_interrupt>
      fa:	00 00       	nop
      fc:	36 c3       	rjmp	.+1644   	; 0x76a <__bad_interrupt>
      fe:	00 00       	nop
     100:	34 c3       	rjmp	.+1640   	; 0x76a <__bad_interrupt>
     102:	00 00       	nop
     104:	32 c3       	rjmp	.+1636   	; 0x76a <__bad_interrupt>
     106:	00 00       	nop
     108:	30 c3       	rjmp	.+1632   	; 0x76a <__bad_interrupt>
     10a:	00 00       	nop
     10c:	2e c3       	rjmp	.+1628   	; 0x76a <__bad_interrupt>
     10e:	00 00       	nop
     110:	2c c3       	rjmp	.+1624   	; 0x76a <__bad_interrupt>
     112:	00 00       	nop
     114:	2a c3       	rjmp	.+1620   	; 0x76a <__bad_interrupt>
     116:	00 00       	nop
     118:	28 c3       	rjmp	.+1616   	; 0x76a <__bad_interrupt>
     11a:	00 00       	nop
     11c:	26 c3       	rjmp	.+1612   	; 0x76a <__bad_interrupt>
     11e:	00 00       	nop
     120:	24 c3       	rjmp	.+1608   	; 0x76a <__bad_interrupt>
     122:	00 00       	nop
     124:	22 c3       	rjmp	.+1604   	; 0x76a <__bad_interrupt>
     126:	00 00       	nop
     128:	20 c3       	rjmp	.+1600   	; 0x76a <__bad_interrupt>
     12a:	00 00       	nop
     12c:	1e c3       	rjmp	.+1596   	; 0x76a <__bad_interrupt>
     12e:	00 00       	nop
     130:	1c c3       	rjmp	.+1592   	; 0x76a <__bad_interrupt>
     132:	00 00       	nop
     134:	1a c3       	rjmp	.+1588   	; 0x76a <__bad_interrupt>
     136:	00 00       	nop
     138:	18 c3       	rjmp	.+1584   	; 0x76a <__bad_interrupt>
     13a:	00 00       	nop
     13c:	16 c3       	rjmp	.+1580   	; 0x76a <__bad_interrupt>
     13e:	00 00       	nop
     140:	14 c3       	rjmp	.+1576   	; 0x76a <__bad_interrupt>
     142:	00 00       	nop
     144:	12 c3       	rjmp	.+1572   	; 0x76a <__bad_interrupt>
     146:	00 00       	nop
     148:	10 c3       	rjmp	.+1568   	; 0x76a <__bad_interrupt>
     14a:	00 00       	nop
     14c:	0e c3       	rjmp	.+1564   	; 0x76a <__bad_interrupt>
     14e:	00 00       	nop
     150:	0c c3       	rjmp	.+1560   	; 0x76a <__bad_interrupt>
     152:	00 00       	nop
     154:	0a c3       	rjmp	.+1556   	; 0x76a <__bad_interrupt>
     156:	00 00       	nop
     158:	08 c3       	rjmp	.+1552   	; 0x76a <__bad_interrupt>
     15a:	00 00       	nop
     15c:	06 c3       	rjmp	.+1548   	; 0x76a <__bad_interrupt>
     15e:	00 00       	nop
     160:	0c 94 47 0d 	jmp	0x1a8e	; 0x1a8e <__vector_88>
     164:	0c 94 b1 0d 	jmp	0x1b62	; 0x1b62 <__vector_89>
     168:	0c 94 9d 0d 	jmp	0x1b3a	; 0x1b3a <__vector_90>
     16c:	0c 94 72 0d 	jmp	0x1ae4	; 0x1ae4 <__vector_91>
     170:	0c 94 dc 0d 	jmp	0x1bb8	; 0x1bb8 <__vector_92>
     174:	0c 94 a7 0d 	jmp	0x1b4e	; 0x1b4e <__vector_93>
     178:	f8 c2       	rjmp	.+1520   	; 0x76a <__bad_interrupt>
     17a:	00 00       	nop
     17c:	f6 c2       	rjmp	.+1516   	; 0x76a <__bad_interrupt>
     17e:	00 00       	nop
     180:	f4 c2       	rjmp	.+1512   	; 0x76a <__bad_interrupt>
     182:	00 00       	nop
     184:	f2 c2       	rjmp	.+1508   	; 0x76a <__bad_interrupt>
     186:	00 00       	nop
     188:	f0 c2       	rjmp	.+1504   	; 0x76a <__bad_interrupt>
     18a:	00 00       	nop
     18c:	ee c2       	rjmp	.+1500   	; 0x76a <__bad_interrupt>
     18e:	00 00       	nop
     190:	ec c2       	rjmp	.+1496   	; 0x76a <__bad_interrupt>
     192:	00 00       	nop
     194:	ea c2       	rjmp	.+1492   	; 0x76a <__bad_interrupt>
     196:	00 00       	nop
     198:	e8 c2       	rjmp	.+1488   	; 0x76a <__bad_interrupt>
     19a:	00 00       	nop
     19c:	e6 c2       	rjmp	.+1484   	; 0x76a <__bad_interrupt>
     19e:	00 00       	nop
     1a0:	e4 c2       	rjmp	.+1480   	; 0x76a <__bad_interrupt>
     1a2:	00 00       	nop
     1a4:	e2 c2       	rjmp	.+1476   	; 0x76a <__bad_interrupt>
     1a6:	00 00       	nop
     1a8:	e0 c2       	rjmp	.+1472   	; 0x76a <__bad_interrupt>
     1aa:	00 00       	nop
     1ac:	de c2       	rjmp	.+1468   	; 0x76a <__bad_interrupt>
     1ae:	00 00       	nop
     1b0:	dc c2       	rjmp	.+1464   	; 0x76a <__bad_interrupt>
     1b2:	00 00       	nop
     1b4:	da c2       	rjmp	.+1460   	; 0x76a <__bad_interrupt>
     1b6:	00 00       	nop
     1b8:	d8 c2       	rjmp	.+1456   	; 0x76a <__bad_interrupt>
     1ba:	00 00       	nop
     1bc:	d6 c2       	rjmp	.+1452   	; 0x76a <__bad_interrupt>
     1be:	00 00       	nop
     1c0:	d4 c2       	rjmp	.+1448   	; 0x76a <__bad_interrupt>
     1c2:	00 00       	nop
     1c4:	d2 c2       	rjmp	.+1444   	; 0x76a <__bad_interrupt>
     1c6:	00 00       	nop
     1c8:	d0 c2       	rjmp	.+1440   	; 0x76a <__bad_interrupt>
     1ca:	00 00       	nop
     1cc:	ce c2       	rjmp	.+1436   	; 0x76a <__bad_interrupt>
     1ce:	00 00       	nop
     1d0:	cc c2       	rjmp	.+1432   	; 0x76a <__bad_interrupt>
     1d2:	00 00       	nop
     1d4:	ca c2       	rjmp	.+1428   	; 0x76a <__bad_interrupt>
     1d6:	00 00       	nop
     1d8:	c8 c2       	rjmp	.+1424   	; 0x76a <__bad_interrupt>
     1da:	00 00       	nop
     1dc:	c6 c2       	rjmp	.+1420   	; 0x76a <__bad_interrupt>
     1de:	00 00       	nop
     1e0:	c4 c2       	rjmp	.+1416   	; 0x76a <__bad_interrupt>
     1e2:	00 00       	nop
     1e4:	c2 c2       	rjmp	.+1412   	; 0x76a <__bad_interrupt>
     1e6:	00 00       	nop
     1e8:	c0 c2       	rjmp	.+1408   	; 0x76a <__bad_interrupt>
     1ea:	00 00       	nop
     1ec:	be c2       	rjmp	.+1404   	; 0x76a <__bad_interrupt>
     1ee:	00 00       	nop
     1f0:	bc c2       	rjmp	.+1400   	; 0x76a <__bad_interrupt>
     1f2:	00 00       	nop
     1f4:	ba c2       	rjmp	.+1396   	; 0x76a <__bad_interrupt>
     1f6:	00 00       	nop
     1f8:	b8 c2       	rjmp	.+1392   	; 0x76a <__bad_interrupt>
     1fa:	00 00       	nop
     1fc:	2c 08       	sbc	r2, r12
     1fe:	34 08       	sbc	r3, r4
     200:	38 08       	sbc	r3, r8
     202:	3c 08       	sbc	r3, r12
     204:	40 08       	sbc	r4, r0
     206:	30 08       	sbc	r3, r0
     208:	44 08       	sbc	r4, r4

0000020a <__trampolines_end>:
     20a:	00 00       	nop
     20c:	00 00       	nop
     20e:	00 3e       	cpi	r16, 0xE0	; 224
     210:	5b 4f       	sbci	r21, 0xFB	; 251
     212:	5b 3e       	cpi	r21, 0xEB	; 235
     214:	3e 6b       	ori	r19, 0xBE	; 190
     216:	4f 6b       	ori	r20, 0xBF	; 191
     218:	3e 1c       	adc	r3, r14
     21a:	3e 7c       	andi	r19, 0xCE	; 206
     21c:	3e 1c       	adc	r3, r14
     21e:	18 3c       	cpi	r17, 0xC8	; 200
     220:	7e 3c       	cpi	r23, 0xCE	; 206
     222:	18 1c       	adc	r1, r8
     224:	57 7d       	andi	r21, 0xD7	; 215
     226:	57 1c       	adc	r5, r7
     228:	1c 5e       	subi	r17, 0xEC	; 236
     22a:	7f 5e       	subi	r23, 0xEF	; 239
     22c:	1c 00       	.word	0x001c	; ????
     22e:	18 3c       	cpi	r17, 0xC8	; 200
     230:	18 00       	.word	0x0018	; ????
     232:	ff e7       	ldi	r31, 0x7F	; 127
     234:	c3 e7       	ldi	r28, 0x73	; 115
     236:	ff 00       	.word	0x00ff	; ????
     238:	18 24       	eor	r1, r8
     23a:	18 00       	.word	0x0018	; ????
     23c:	ff e7       	ldi	r31, 0x7F	; 127
     23e:	db e7       	ldi	r29, 0x7B	; 123
     240:	ff 30       	cpi	r31, 0x0F	; 15
     242:	48 3a       	cpi	r20, 0xA8	; 168
     244:	06 0e       	add	r0, r22
     246:	26 29       	or	r18, r6
     248:	79 29       	or	r23, r9
     24a:	26 40       	sbci	r18, 0x06	; 6
     24c:	7f 05       	cpc	r23, r15
     24e:	05 07       	cpc	r16, r21
     250:	40 7f       	andi	r20, 0xF0	; 240
     252:	05 25       	eor	r16, r5
     254:	3f 5a       	subi	r19, 0xAF	; 175
     256:	3c e7       	ldi	r19, 0x7C	; 124
     258:	3c 5a       	subi	r19, 0xAC	; 172
     25a:	7f 3e       	cpi	r23, 0xEF	; 239
     25c:	1c 1c       	adc	r1, r12
     25e:	08 08       	sbc	r0, r8
     260:	1c 1c       	adc	r1, r12
     262:	3e 7f       	andi	r19, 0xFE	; 254
     264:	14 22       	and	r1, r20
     266:	7f 22       	and	r7, r31
     268:	14 5f       	subi	r17, 0xF4	; 244
     26a:	5f 00       	.word	0x005f	; ????
     26c:	5f 5f       	subi	r21, 0xFF	; 255
     26e:	06 09       	sbc	r16, r6
     270:	7f 01       	movw	r14, r30
     272:	7f 00       	.word	0x007f	; ????
     274:	66 89       	ldd	r22, Z+22	; 0x16
     276:	95 6a       	ori	r25, 0xA5	; 165
     278:	60 60       	ori	r22, 0x00	; 0
     27a:	60 60       	ori	r22, 0x00	; 0
     27c:	60 94       	com	r6
     27e:	a2 ff       	sbrs	r26, 2
     280:	a2 94       	swap	r10
     282:	08 04       	cpc	r0, r8
     284:	7e 04       	cpc	r7, r14
     286:	08 10       	cpse	r0, r8
     288:	20 7e       	andi	r18, 0xE0	; 224
     28a:	20 10       	cpse	r2, r0
     28c:	08 08       	sbc	r0, r8
     28e:	2a 1c       	adc	r2, r10
     290:	08 08       	sbc	r0, r8
     292:	1c 2a       	or	r1, r28
     294:	08 08       	sbc	r0, r8
     296:	1e 10       	cpse	r1, r14
     298:	10 10       	cpse	r1, r0
     29a:	10 0c       	add	r1, r0
     29c:	1e 0c       	add	r1, r14
     29e:	1e 0c       	add	r1, r14
     2a0:	30 38       	cpi	r19, 0x80	; 128
     2a2:	3e 38       	cpi	r19, 0x8E	; 142
     2a4:	30 06       	cpc	r3, r16
     2a6:	0e 3e       	cpi	r16, 0xEE	; 238
     2a8:	0e 06       	cpc	r0, r30
     2aa:	00 00       	nop
     2ac:	00 00       	nop
     2ae:	00 00       	nop
     2b0:	00 5f       	subi	r16, 0xF0	; 240
     2b2:	00 00       	nop
     2b4:	00 07       	cpc	r16, r16
     2b6:	00 07       	cpc	r16, r16
     2b8:	00 14       	cp	r0, r0
     2ba:	7f 14       	cp	r7, r15
     2bc:	7f 14       	cp	r7, r15
     2be:	24 2a       	or	r2, r20
     2c0:	7f 2a       	or	r7, r31
     2c2:	12 23       	and	r17, r18
     2c4:	13 08       	sbc	r1, r3
     2c6:	64 62       	ori	r22, 0x24	; 36
     2c8:	36 49       	sbci	r19, 0x96	; 150
     2ca:	56 20       	and	r5, r6
     2cc:	50 00       	.word	0x0050	; ????
     2ce:	08 07       	cpc	r16, r24
     2d0:	03 00       	.word	0x0003	; ????
     2d2:	00 1c       	adc	r0, r0
     2d4:	22 41       	sbci	r18, 0x12	; 18
     2d6:	00 00       	nop
     2d8:	41 22       	and	r4, r17
     2da:	1c 00       	.word	0x001c	; ????
     2dc:	2a 1c       	adc	r2, r10
     2de:	7f 1c       	adc	r7, r15
     2e0:	2a 08       	sbc	r2, r10
     2e2:	08 3e       	cpi	r16, 0xE8	; 232
     2e4:	08 08       	sbc	r0, r8
     2e6:	00 80       	ld	r0, Z
     2e8:	70 30       	cpi	r23, 0x00	; 0
     2ea:	00 08       	sbc	r0, r0
     2ec:	08 08       	sbc	r0, r8
     2ee:	08 08       	sbc	r0, r8
     2f0:	00 00       	nop
     2f2:	60 60       	ori	r22, 0x00	; 0
     2f4:	00 20       	and	r0, r0
     2f6:	10 08       	sbc	r1, r0
     2f8:	04 02       	muls	r16, r20
     2fa:	3e 51       	subi	r19, 0x1E	; 30
     2fc:	49 45       	sbci	r20, 0x59	; 89
     2fe:	3e 00       	.word	0x003e	; ????
     300:	42 7f       	andi	r20, 0xF2	; 242
     302:	40 00       	.word	0x0040	; ????
     304:	72 49       	sbci	r23, 0x92	; 146
     306:	49 49       	sbci	r20, 0x99	; 153
     308:	46 21       	and	r20, r6
     30a:	41 49       	sbci	r20, 0x91	; 145
     30c:	4d 33       	cpi	r20, 0x3D	; 61
     30e:	18 14       	cp	r1, r8
     310:	12 7f       	andi	r17, 0xF2	; 242
     312:	10 27       	eor	r17, r16
     314:	45 45       	sbci	r20, 0x55	; 85
     316:	45 39       	cpi	r20, 0x95	; 149
     318:	3c 4a       	sbci	r19, 0xAC	; 172
     31a:	49 49       	sbci	r20, 0x99	; 153
     31c:	31 41       	sbci	r19, 0x11	; 17
     31e:	21 11       	cpse	r18, r1
     320:	09 07       	cpc	r16, r25
     322:	36 49       	sbci	r19, 0x96	; 150
     324:	49 49       	sbci	r20, 0x99	; 153
     326:	36 46       	sbci	r19, 0x66	; 102
     328:	49 49       	sbci	r20, 0x99	; 153
     32a:	29 1e       	adc	r2, r25
     32c:	00 00       	nop
     32e:	14 00       	.word	0x0014	; ????
     330:	00 00       	nop
     332:	40 34       	cpi	r20, 0x40	; 64
     334:	00 00       	nop
     336:	00 08       	sbc	r0, r0
     338:	14 22       	and	r1, r20
     33a:	41 14       	cp	r4, r1
     33c:	14 14       	cp	r1, r4
     33e:	14 14       	cp	r1, r4
     340:	00 41       	sbci	r16, 0x10	; 16
     342:	22 14       	cp	r2, r2
     344:	08 02       	muls	r16, r24
     346:	01 59       	subi	r16, 0x91	; 145
     348:	09 06       	cpc	r0, r25
     34a:	3e 41       	sbci	r19, 0x1E	; 30
     34c:	5d 59       	subi	r21, 0x9D	; 157
     34e:	4e 7c       	andi	r20, 0xCE	; 206
     350:	12 11       	cpse	r17, r2
     352:	12 7c       	andi	r17, 0xC2	; 194
     354:	7f 49       	sbci	r23, 0x9F	; 159
     356:	49 49       	sbci	r20, 0x99	; 153
     358:	36 3e       	cpi	r19, 0xE6	; 230
     35a:	41 41       	sbci	r20, 0x11	; 17
     35c:	41 22       	and	r4, r17
     35e:	7f 41       	sbci	r23, 0x1F	; 31
     360:	41 41       	sbci	r20, 0x11	; 17
     362:	3e 7f       	andi	r19, 0xFE	; 254
     364:	49 49       	sbci	r20, 0x99	; 153
     366:	49 41       	sbci	r20, 0x19	; 25
     368:	7f 09       	sbc	r23, r15
     36a:	09 09       	sbc	r16, r9
     36c:	01 3e       	cpi	r16, 0xE1	; 225
     36e:	41 41       	sbci	r20, 0x11	; 17
     370:	51 73       	andi	r21, 0x31	; 49
     372:	7f 08       	sbc	r7, r15
     374:	08 08       	sbc	r0, r8
     376:	7f 00       	.word	0x007f	; ????
     378:	41 7f       	andi	r20, 0xF1	; 241
     37a:	41 00       	.word	0x0041	; ????
     37c:	20 40       	sbci	r18, 0x00	; 0
     37e:	41 3f       	cpi	r20, 0xF1	; 241
     380:	01 7f       	andi	r16, 0xF1	; 241
     382:	08 14       	cp	r0, r8
     384:	22 41       	sbci	r18, 0x12	; 18
     386:	7f 40       	sbci	r23, 0x0F	; 15
     388:	40 40       	sbci	r20, 0x00	; 0
     38a:	40 7f       	andi	r20, 0xF0	; 240
     38c:	02 1c       	adc	r0, r2
     38e:	02 7f       	andi	r16, 0xF2	; 242
     390:	7f 04       	cpc	r7, r15
     392:	08 10       	cpse	r0, r8
     394:	7f 3e       	cpi	r23, 0xEF	; 239
     396:	41 41       	sbci	r20, 0x11	; 17
     398:	41 3e       	cpi	r20, 0xE1	; 225
     39a:	7f 09       	sbc	r23, r15
     39c:	09 09       	sbc	r16, r9
     39e:	06 3e       	cpi	r16, 0xE6	; 230
     3a0:	41 51       	subi	r20, 0x11	; 17
     3a2:	21 5e       	subi	r18, 0xE1	; 225
     3a4:	7f 09       	sbc	r23, r15
     3a6:	19 29       	or	r17, r9
     3a8:	46 26       	eor	r4, r22
     3aa:	49 49       	sbci	r20, 0x99	; 153
     3ac:	49 32       	cpi	r20, 0x29	; 41
     3ae:	03 01       	movw	r0, r6
     3b0:	7f 01       	movw	r14, r30
     3b2:	03 3f       	cpi	r16, 0xF3	; 243
     3b4:	40 40       	sbci	r20, 0x00	; 0
     3b6:	40 3f       	cpi	r20, 0xF0	; 240
     3b8:	1f 20       	and	r1, r15
     3ba:	40 20       	and	r4, r0
     3bc:	1f 3f       	cpi	r17, 0xFF	; 255
     3be:	40 38       	cpi	r20, 0x80	; 128
     3c0:	40 3f       	cpi	r20, 0xF0	; 240
     3c2:	63 14       	cp	r6, r3
     3c4:	08 14       	cp	r0, r8
     3c6:	63 03       	mulsu	r22, r19
     3c8:	04 78       	andi	r16, 0x84	; 132
     3ca:	04 03       	mulsu	r16, r20
     3cc:	61 59       	subi	r22, 0x91	; 145
     3ce:	49 4d       	sbci	r20, 0xD9	; 217
     3d0:	43 00       	.word	0x0043	; ????
     3d2:	7f 41       	sbci	r23, 0x1F	; 31
     3d4:	41 41       	sbci	r20, 0x11	; 17
     3d6:	02 04       	cpc	r0, r2
     3d8:	08 10       	cpse	r0, r8
     3da:	20 00       	.word	0x0020	; ????
     3dc:	41 41       	sbci	r20, 0x11	; 17
     3de:	41 7f       	andi	r20, 0xF1	; 241
     3e0:	04 02       	muls	r16, r20
     3e2:	01 02       	muls	r16, r17
     3e4:	04 40       	sbci	r16, 0x04	; 4
     3e6:	40 40       	sbci	r20, 0x00	; 0
     3e8:	40 40       	sbci	r20, 0x00	; 0
     3ea:	00 03       	mulsu	r16, r16
     3ec:	07 08       	sbc	r0, r7
     3ee:	00 20       	and	r0, r0
     3f0:	54 54       	subi	r21, 0x44	; 68
     3f2:	78 40       	sbci	r23, 0x08	; 8
     3f4:	7f 28       	or	r7, r15
     3f6:	44 44       	sbci	r20, 0x44	; 68
     3f8:	38 38       	cpi	r19, 0x88	; 136
     3fa:	44 44       	sbci	r20, 0x44	; 68
     3fc:	44 28       	or	r4, r4
     3fe:	38 44       	sbci	r19, 0x48	; 72
     400:	44 28       	or	r4, r4
     402:	7f 38       	cpi	r23, 0x8F	; 143
     404:	54 54       	subi	r21, 0x44	; 68
     406:	54 18       	sub	r5, r4
     408:	00 08       	sbc	r0, r0
     40a:	7e 09       	sbc	r23, r14
     40c:	02 18       	sub	r0, r2
     40e:	a4 a4       	ldd	r10, Z+44	; 0x2c
     410:	9c 78       	andi	r25, 0x8C	; 140
     412:	7f 08       	sbc	r7, r15
     414:	04 04       	cpc	r0, r4
     416:	78 00       	.word	0x0078	; ????
     418:	44 7d       	andi	r20, 0xD4	; 212
     41a:	40 00       	.word	0x0040	; ????
     41c:	20 40       	sbci	r18, 0x00	; 0
     41e:	40 3d       	cpi	r20, 0xD0	; 208
     420:	00 7f       	andi	r16, 0xF0	; 240
     422:	10 28       	or	r1, r0
     424:	44 00       	.word	0x0044	; ????
     426:	00 41       	sbci	r16, 0x10	; 16
     428:	7f 40       	sbci	r23, 0x0F	; 15
     42a:	00 7c       	andi	r16, 0xC0	; 192
     42c:	04 78       	andi	r16, 0x84	; 132
     42e:	04 78       	andi	r16, 0x84	; 132
     430:	7c 08       	sbc	r7, r12
     432:	04 04       	cpc	r0, r4
     434:	78 38       	cpi	r23, 0x88	; 136
     436:	44 44       	sbci	r20, 0x44	; 68
     438:	44 38       	cpi	r20, 0x84	; 132
     43a:	fc 18       	sub	r15, r12
     43c:	24 24       	eor	r2, r4
     43e:	18 18       	sub	r1, r8
     440:	24 24       	eor	r2, r4
     442:	18 fc       	.word	0xfc18	; ????
     444:	7c 08       	sbc	r7, r12
     446:	04 04       	cpc	r0, r4
     448:	08 48       	sbci	r16, 0x88	; 136
     44a:	54 54       	subi	r21, 0x44	; 68
     44c:	54 24       	eor	r5, r4
     44e:	04 04       	cpc	r0, r4
     450:	3f 44       	sbci	r19, 0x4F	; 79
     452:	24 3c       	cpi	r18, 0xC4	; 196
     454:	40 40       	sbci	r20, 0x00	; 0
     456:	20 7c       	andi	r18, 0xC0	; 192
     458:	1c 20       	and	r1, r12
     45a:	40 20       	and	r4, r0
     45c:	1c 3c       	cpi	r17, 0xCC	; 204
     45e:	40 30       	cpi	r20, 0x00	; 0
     460:	40 3c       	cpi	r20, 0xC0	; 192
     462:	44 28       	or	r4, r4
     464:	10 28       	or	r1, r0
     466:	44 4c       	sbci	r20, 0xC4	; 196
     468:	90 90 90 7c 	lds	r9, 0x7C90
     46c:	44 64       	ori	r20, 0x44	; 68
     46e:	54 4c       	sbci	r21, 0xC4	; 196
     470:	44 00       	.word	0x0044	; ????
     472:	08 36       	cpi	r16, 0x68	; 104
     474:	41 00       	.word	0x0041	; ????
     476:	00 00       	nop
     478:	77 00       	.word	0x0077	; ????
     47a:	00 00       	nop
     47c:	41 36       	cpi	r20, 0x61	; 97
     47e:	08 00       	.word	0x0008	; ????
     480:	02 01       	movw	r0, r4
     482:	02 04       	cpc	r0, r2
     484:	02 3c       	cpi	r16, 0xC2	; 194
     486:	26 23       	and	r18, r22
     488:	26 3c       	cpi	r18, 0xC6	; 198
     48a:	1e a1       	ldd	r17, Y+38	; 0x26
     48c:	a1 61       	ori	r26, 0x11	; 17
     48e:	12 3a       	cpi	r17, 0xA2	; 162
     490:	40 40       	sbci	r20, 0x00	; 0
     492:	20 7a       	andi	r18, 0xA0	; 160
     494:	38 54       	subi	r19, 0x48	; 72
     496:	54 55       	subi	r21, 0x54	; 84
     498:	59 21       	and	r21, r9
     49a:	55 55       	subi	r21, 0x55	; 85
     49c:	79 41       	sbci	r23, 0x19	; 25
     49e:	22 54       	subi	r18, 0x42	; 66
     4a0:	54 78       	andi	r21, 0x84	; 132
     4a2:	42 21       	and	r20, r2
     4a4:	55 54       	subi	r21, 0x45	; 69
     4a6:	78 40       	sbci	r23, 0x08	; 8
     4a8:	20 54       	subi	r18, 0x40	; 64
     4aa:	55 79       	andi	r21, 0x95	; 149
     4ac:	40 0c       	add	r4, r0
     4ae:	1e 52       	subi	r17, 0x2E	; 46
     4b0:	72 12       	cpse	r7, r18
     4b2:	39 55       	subi	r19, 0x59	; 89
     4b4:	55 55       	subi	r21, 0x55	; 85
     4b6:	59 39       	cpi	r21, 0x99	; 153
     4b8:	54 54       	subi	r21, 0x44	; 68
     4ba:	54 59       	subi	r21, 0x94	; 148
     4bc:	39 55       	subi	r19, 0x59	; 89
     4be:	54 54       	subi	r21, 0x44	; 68
     4c0:	58 00       	.word	0x0058	; ????
     4c2:	00 45       	sbci	r16, 0x50	; 80
     4c4:	7c 41       	sbci	r23, 0x1C	; 28
     4c6:	00 02       	muls	r16, r16
     4c8:	45 7d       	andi	r20, 0xD5	; 213
     4ca:	42 00       	.word	0x0042	; ????
     4cc:	01 45       	sbci	r16, 0x51	; 81
     4ce:	7c 40       	sbci	r23, 0x0C	; 12
     4d0:	7d 12       	cpse	r7, r29
     4d2:	11 12       	cpse	r1, r17
     4d4:	7d f0       	brhs	.+30     	; 0x4f4 <__trampolines_end+0x2ea>
     4d6:	28 25       	eor	r18, r8
     4d8:	28 f0       	brcs	.+10     	; 0x4e4 <__trampolines_end+0x2da>
     4da:	7c 54       	subi	r23, 0x4C	; 76
     4dc:	55 45       	sbci	r21, 0x55	; 85
     4de:	00 20       	and	r0, r0
     4e0:	54 54       	subi	r21, 0x44	; 68
     4e2:	7c 54       	subi	r23, 0x4C	; 76
     4e4:	7c 0a       	sbc	r7, r28
     4e6:	09 7f       	andi	r16, 0xF9	; 249
     4e8:	49 32       	cpi	r20, 0x29	; 41
     4ea:	49 49       	sbci	r20, 0x99	; 153
     4ec:	49 32       	cpi	r20, 0x29	; 41
     4ee:	3a 44       	sbci	r19, 0x4A	; 74
     4f0:	44 44       	sbci	r20, 0x44	; 68
     4f2:	3a 32       	cpi	r19, 0x2A	; 42
     4f4:	4a 48       	sbci	r20, 0x8A	; 138
     4f6:	48 30       	cpi	r20, 0x08	; 8
     4f8:	3a 41       	sbci	r19, 0x1A	; 26
     4fa:	41 21       	and	r20, r1
     4fc:	7a 3a       	cpi	r23, 0xAA	; 170
     4fe:	42 40       	sbci	r20, 0x02	; 2
     500:	20 78       	andi	r18, 0x80	; 128
     502:	00 9d       	mul	r16, r0
     504:	a0 a0       	ldd	r10, Z+32	; 0x20
     506:	7d 3d       	cpi	r23, 0xDD	; 221
     508:	42 42       	sbci	r20, 0x22	; 34
     50a:	42 3d       	cpi	r20, 0xD2	; 210
     50c:	3d 40       	sbci	r19, 0x0D	; 13
     50e:	40 40       	sbci	r20, 0x00	; 0
     510:	3d 3c       	cpi	r19, 0xCD	; 205
     512:	24 ff       	sbrs	r18, 4
     514:	24 24       	eor	r2, r4
     516:	48 7e       	andi	r20, 0xE8	; 232
     518:	49 43       	sbci	r20, 0x39	; 57
     51a:	66 2b       	or	r22, r22
     51c:	2f fc       	.word	0xfc2f	; ????
     51e:	2f 2b       	or	r18, r31
     520:	ff 09       	sbc	r31, r15
     522:	29 f6       	brne	.-118    	; 0x4ae <__trampolines_end+0x2a4>
     524:	20 c0       	rjmp	.+64     	; 0x566 <__trampolines_end+0x35c>
     526:	88 7e       	andi	r24, 0xE8	; 232
     528:	09 03       	fmul	r16, r17
     52a:	20 54       	subi	r18, 0x40	; 64
     52c:	54 79       	andi	r21, 0x94	; 148
     52e:	41 00       	.word	0x0041	; ????
     530:	00 44       	sbci	r16, 0x40	; 64
     532:	7d 41       	sbci	r23, 0x1D	; 29
     534:	30 48       	sbci	r19, 0x80	; 128
     536:	48 4a       	sbci	r20, 0xA8	; 168
     538:	32 38       	cpi	r19, 0x82	; 130
     53a:	40 40       	sbci	r20, 0x00	; 0
     53c:	22 7a       	andi	r18, 0xA2	; 162
     53e:	00 7a       	andi	r16, 0xA0	; 160
     540:	0a 0a       	sbc	r0, r26
     542:	72 7d       	andi	r23, 0xD2	; 210
     544:	0d 19       	sub	r16, r13
     546:	31 7d       	andi	r19, 0xD1	; 209
     548:	26 29       	or	r18, r6
     54a:	29 2f       	mov	r18, r25
     54c:	28 26       	eor	r2, r24
     54e:	29 29       	or	r18, r9
     550:	29 26       	eor	r2, r25
     552:	30 48       	sbci	r19, 0x80	; 128
     554:	4d 40       	sbci	r20, 0x0D	; 13
     556:	20 38       	cpi	r18, 0x80	; 128
     558:	08 08       	sbc	r0, r8
     55a:	08 08       	sbc	r0, r8
     55c:	08 08       	sbc	r0, r8
     55e:	08 08       	sbc	r0, r8
     560:	38 2f       	mov	r19, r24
     562:	10 c8       	rjmp	.-4064   	; 0xfffff584 <__eeprom_end+0xff7ef584>
     564:	ac ba       	out	0x1c, r10	; 28
     566:	2f 10       	cpse	r2, r15
     568:	28 34       	cpi	r18, 0x48	; 72
     56a:	fa 00       	.word	0x00fa	; ????
     56c:	00 7b       	andi	r16, 0xB0	; 176
     56e:	00 00       	nop
     570:	08 14       	cp	r0, r8
     572:	2a 14       	cp	r2, r10
     574:	22 22       	and	r2, r18
     576:	14 2a       	or	r1, r20
     578:	14 08       	sbc	r1, r4
     57a:	aa 00       	.word	0x00aa	; ????
     57c:	55 00       	.word	0x0055	; ????
     57e:	aa aa       	std	Y+50, r10	; 0x32
     580:	55 aa       	std	Z+53, r5	; 0x35
     582:	55 aa       	std	Z+53, r5	; 0x35
     584:	00 00       	nop
     586:	00 ff       	sbrs	r16, 0
     588:	00 10       	cpse	r0, r0
     58a:	10 10       	cpse	r1, r0
     58c:	ff 00       	.word	0x00ff	; ????
     58e:	14 14       	cp	r1, r4
     590:	14 ff       	sbrs	r17, 4
     592:	00 10       	cpse	r0, r0
     594:	10 ff       	sbrs	r17, 0
     596:	00 ff       	sbrs	r16, 0
     598:	10 10       	cpse	r1, r0
     59a:	f0 10       	cpse	r15, r0
     59c:	f0 14       	cp	r15, r0
     59e:	14 14       	cp	r1, r4
     5a0:	fc 00       	.word	0x00fc	; ????
     5a2:	14 14       	cp	r1, r4
     5a4:	f7 00       	.word	0x00f7	; ????
     5a6:	ff 00       	.word	0x00ff	; ????
     5a8:	00 ff       	sbrs	r16, 0
     5aa:	00 ff       	sbrs	r16, 0
     5ac:	14 14       	cp	r1, r4
     5ae:	f4 04       	cpc	r15, r4
     5b0:	fc 14       	cp	r15, r12
     5b2:	14 17       	cp	r17, r20
     5b4:	10 1f       	adc	r17, r16
     5b6:	10 10       	cpse	r1, r0
     5b8:	1f 10       	cpse	r1, r15
     5ba:	1f 14       	cp	r1, r15
     5bc:	14 14       	cp	r1, r4
     5be:	1f 00       	.word	0x001f	; ????
     5c0:	10 10       	cpse	r1, r0
     5c2:	10 f0       	brcs	.+4      	; 0x5c8 <__trampolines_end+0x3be>
     5c4:	00 00       	nop
     5c6:	00 00       	nop
     5c8:	1f 10       	cpse	r1, r15
     5ca:	10 10       	cpse	r1, r0
     5cc:	10 1f       	adc	r17, r16
     5ce:	10 10       	cpse	r1, r0
     5d0:	10 10       	cpse	r1, r0
     5d2:	f0 10       	cpse	r15, r0
     5d4:	00 00       	nop
     5d6:	00 ff       	sbrs	r16, 0
     5d8:	10 10       	cpse	r1, r0
     5da:	10 10       	cpse	r1, r0
     5dc:	10 10       	cpse	r1, r0
     5de:	10 10       	cpse	r1, r0
     5e0:	10 ff       	sbrs	r17, 0
     5e2:	10 00       	.word	0x0010	; ????
     5e4:	00 00       	nop
     5e6:	ff 14       	cp	r15, r15
     5e8:	00 00       	nop
     5ea:	ff 00       	.word	0x00ff	; ????
     5ec:	ff 00       	.word	0x00ff	; ????
     5ee:	00 1f       	adc	r16, r16
     5f0:	10 17       	cp	r17, r16
     5f2:	00 00       	nop
     5f4:	fc 04       	cpc	r15, r12
     5f6:	f4 14       	cp	r15, r4
     5f8:	14 17       	cp	r17, r20
     5fa:	10 17       	cp	r17, r16
     5fc:	14 14       	cp	r1, r4
     5fe:	f4 04       	cpc	r15, r4
     600:	f4 00       	.word	0x00f4	; ????
     602:	00 ff       	sbrs	r16, 0
     604:	00 f7       	brcc	.-64     	; 0x5c6 <__trampolines_end+0x3bc>
     606:	14 14       	cp	r1, r4
     608:	14 14       	cp	r1, r4
     60a:	14 14       	cp	r1, r4
     60c:	14 f7       	brge	.-60     	; 0x5d2 <__trampolines_end+0x3c8>
     60e:	00 f7       	brcc	.-64     	; 0x5d0 <__trampolines_end+0x3c6>
     610:	14 14       	cp	r1, r4
     612:	14 17       	cp	r17, r20
     614:	14 10       	cpse	r1, r4
     616:	10 1f       	adc	r17, r16
     618:	10 1f       	adc	r17, r16
     61a:	14 14       	cp	r1, r4
     61c:	14 f4       	brge	.+4      	; 0x622 <__trampolines_end+0x418>
     61e:	14 10       	cpse	r1, r4
     620:	10 f0       	brcs	.+4      	; 0x626 <__trampolines_end+0x41c>
     622:	10 f0       	brcs	.+4      	; 0x628 <__trampolines_end+0x41e>
     624:	00 00       	nop
     626:	1f 10       	cpse	r1, r15
     628:	1f 00       	.word	0x001f	; ????
     62a:	00 00       	nop
     62c:	1f 14       	cp	r1, r15
     62e:	00 00       	nop
     630:	00 fc       	sbrc	r0, 0
     632:	14 00       	.word	0x0014	; ????
     634:	00 f0       	brcs	.+0      	; 0x636 <__trampolines_end+0x42c>
     636:	10 f0       	brcs	.+4      	; 0x63c <__trampolines_end+0x432>
     638:	10 10       	cpse	r1, r0
     63a:	ff 10       	cpse	r15, r15
     63c:	ff 14       	cp	r15, r15
     63e:	14 14       	cp	r1, r4
     640:	ff 14       	cp	r15, r15
     642:	10 10       	cpse	r1, r0
     644:	10 1f       	adc	r17, r16
     646:	00 00       	nop
     648:	00 00       	nop
     64a:	f0 10       	cpse	r15, r0
     64c:	ff ff       	.word	0xffff	; ????
     64e:	ff ff       	.word	0xffff	; ????
     650:	ff f0       	brie	.+62     	; 0x690 <__trampolines_end+0x486>
     652:	f0 f0       	brcs	.+60     	; 0x690 <__trampolines_end+0x486>
     654:	f0 f0       	brcs	.+60     	; 0x692 <__trampolines_end+0x488>
     656:	ff ff       	.word	0xffff	; ????
     658:	ff 00       	.word	0x00ff	; ????
     65a:	00 00       	nop
     65c:	00 00       	nop
     65e:	ff ff       	.word	0xffff	; ????
     660:	0f 0f       	add	r16, r31
     662:	0f 0f       	add	r16, r31
     664:	0f 38       	cpi	r16, 0x8F	; 143
     666:	44 44       	sbci	r20, 0x44	; 68
     668:	38 44       	sbci	r19, 0x48	; 72
     66a:	fc 4a       	sbci	r31, 0xAC	; 172
     66c:	4a 4a       	sbci	r20, 0xAA	; 170
     66e:	34 7e       	andi	r19, 0xE4	; 228
     670:	02 02       	muls	r16, r18
     672:	06 06       	cpc	r0, r22
     674:	02 7e       	andi	r16, 0xE2	; 226
     676:	02 7e       	andi	r16, 0xE2	; 226
     678:	02 63       	ori	r16, 0x32	; 50
     67a:	55 49       	sbci	r21, 0x95	; 149
     67c:	41 63       	ori	r20, 0x31	; 49
     67e:	38 44       	sbci	r19, 0x48	; 72
     680:	44 3c       	cpi	r20, 0xC4	; 196
     682:	04 40       	sbci	r16, 0x04	; 4
     684:	7e 20       	and	r7, r14
     686:	1e 20       	and	r1, r14
     688:	06 02       	muls	r16, r22
     68a:	7e 02       	muls	r23, r30
     68c:	02 99       	sbic	0x00, 2	; 0
     68e:	a5 e7       	ldi	r26, 0x75	; 117
     690:	a5 99       	sbic	0x14, 5	; 20
     692:	1c 2a       	or	r1, r28
     694:	49 2a       	or	r4, r25
     696:	1c 4c       	sbci	r17, 0xCC	; 204
     698:	72 01       	movw	r14, r4
     69a:	72 4c       	sbci	r23, 0xC2	; 194
     69c:	30 4a       	sbci	r19, 0xA0	; 160
     69e:	4d 4d       	sbci	r20, 0xDD	; 221
     6a0:	30 30       	cpi	r19, 0x00	; 0
     6a2:	48 78       	andi	r20, 0x88	; 136
     6a4:	48 30       	cpi	r20, 0x08	; 8
     6a6:	bc 62       	ori	r27, 0x2C	; 44
     6a8:	5a 46       	sbci	r21, 0x6A	; 106
     6aa:	3d 3e       	cpi	r19, 0xED	; 237
     6ac:	49 49       	sbci	r20, 0x99	; 153
     6ae:	49 00       	.word	0x0049	; ????
     6b0:	7e 01       	movw	r14, r28
     6b2:	01 01       	movw	r0, r2
     6b4:	7e 2a       	or	r7, r30
     6b6:	2a 2a       	or	r2, r26
     6b8:	2a 2a       	or	r2, r26
     6ba:	44 44       	sbci	r20, 0x44	; 68
     6bc:	5f 44       	sbci	r21, 0x4F	; 79
     6be:	44 40       	sbci	r20, 0x04	; 4
     6c0:	51 4a       	sbci	r21, 0xA1	; 161
     6c2:	44 40       	sbci	r20, 0x04	; 4
     6c4:	40 44       	sbci	r20, 0x40	; 64
     6c6:	4a 51       	subi	r20, 0x1A	; 26
     6c8:	40 00       	.word	0x0040	; ????
     6ca:	00 ff       	sbrs	r16, 0
     6cc:	01 03       	mulsu	r16, r17
     6ce:	e0 80       	ld	r14, Z
     6d0:	ff 00       	.word	0x00ff	; ????
     6d2:	00 08       	sbc	r0, r0
     6d4:	08 6b       	ori	r16, 0xB8	; 184
     6d6:	6b 08       	sbc	r6, r11
     6d8:	36 12       	cpse	r3, r22
     6da:	36 24       	eor	r3, r6
     6dc:	36 06       	cpc	r3, r22
     6de:	0f 09       	sbc	r16, r15
     6e0:	0f 06       	cpc	r0, r31
     6e2:	00 00       	nop
     6e4:	18 18       	sub	r1, r8
     6e6:	00 00       	nop
     6e8:	00 10       	cpse	r0, r0
     6ea:	10 00       	.word	0x0010	; ????
     6ec:	30 40       	sbci	r19, 0x00	; 0
     6ee:	ff 01       	movw	r30, r30
     6f0:	01 00       	.word	0x0001	; ????
     6f2:	1f 01       	movw	r2, r30
     6f4:	01 1e       	adc	r0, r17
     6f6:	00 19       	sub	r16, r0
     6f8:	1d 17       	cp	r17, r29
     6fa:	12 00       	.word	0x0012	; ????
     6fc:	3c 3c       	cpi	r19, 0xCC	; 204
     6fe:	3c 3c       	cpi	r19, 0xCC	; 204
     700:	00 00       	nop
     702:	00 00       	nop
	...

00000706 <__ctors_start>:
     706:	e8 0e       	add	r14, r24

00000708 <__ctors_end>:
     708:	11 24       	eor	r1, r1
     70a:	1f be       	out	0x3f, r1	; 63
     70c:	cf ef       	ldi	r28, 0xFF	; 255
     70e:	cd bf       	out	0x3d, r28	; 61
     710:	df e3       	ldi	r29, 0x3F	; 63
     712:	de bf       	out	0x3e, r29	; 62
     714:	00 e0       	ldi	r16, 0x00	; 0
     716:	0c bf       	out	0x3c, r16	; 60

00000718 <__do_copy_data>:
     718:	10 e2       	ldi	r17, 0x20	; 32
     71a:	a0 e0       	ldi	r26, 0x00	; 0
     71c:	b0 e2       	ldi	r27, 0x20	; 32
     71e:	ea ec       	ldi	r30, 0xCA	; 202
     720:	fa e2       	ldi	r31, 0x2A	; 42
     722:	00 e0       	ldi	r16, 0x00	; 0
     724:	0b bf       	out	0x3b, r16	; 59
     726:	02 c0       	rjmp	.+4      	; 0x72c <__do_copy_data+0x14>
     728:	07 90       	elpm	r0, Z+
     72a:	0d 92       	st	X+, r0
     72c:	a6 3b       	cpi	r26, 0xB6	; 182
     72e:	b1 07       	cpc	r27, r17
     730:	d9 f7       	brne	.-10     	; 0x728 <__do_copy_data+0x10>

00000732 <__do_clear_bss>:
     732:	20 e2       	ldi	r18, 0x20	; 32
     734:	a6 eb       	ldi	r26, 0xB6	; 182
     736:	b0 e2       	ldi	r27, 0x20	; 32
     738:	01 c0       	rjmp	.+2      	; 0x73c <.do_clear_bss_start>

0000073a <.do_clear_bss_loop>:
     73a:	1d 92       	st	X+, r1

0000073c <.do_clear_bss_start>:
     73c:	a7 3c       	cpi	r26, 0xC7	; 199
     73e:	b2 07       	cpc	r27, r18
     740:	e1 f7       	brne	.-8      	; 0x73a <.do_clear_bss_loop>

00000742 <__do_global_ctors>:
     742:	17 e0       	ldi	r17, 0x07	; 7
     744:	c8 e0       	ldi	r28, 0x08	; 8
     746:	d7 e0       	ldi	r29, 0x07	; 7
     748:	00 e0       	ldi	r16, 0x00	; 0
     74a:	06 c0       	rjmp	.+12     	; 0x758 <__do_global_ctors+0x16>
     74c:	22 97       	sbiw	r28, 0x02	; 2
     74e:	01 09       	sbc	r16, r1
     750:	fe 01       	movw	r30, r28
     752:	0b bf       	out	0x3b, r16	; 59
     754:	0e 94 4f 11 	call	0x229e	; 0x229e <__tablejump_elpm__>
     758:	c6 30       	cpi	r28, 0x06	; 6
     75a:	d1 07       	cpc	r29, r17
     75c:	80 e0       	ldi	r24, 0x00	; 0
     75e:	08 07       	cpc	r16, r24
     760:	a9 f7       	brne	.-22     	; 0x74c <__do_global_ctors+0xa>
     762:	0e 94 74 0e 	call	0x1ce8	; 0x1ce8 <main>
     766:	0c 94 63 15 	jmp	0x2ac6	; 0x2ac6 <_exit>

0000076a <__bad_interrupt>:
     76a:	0c 94 07 0e 	jmp	0x1c0e	; 0x1c0e <__vector_default>

0000076e <_ZN12Adafruit_GFX9drawPixelEiij>:
  wrap = w;
}

uint8_t Adafruit_GFX::getRotation(void) const {
  return rotation;
}
     76e:	08 95       	ret

00000770 <_ZN12Adafruit_GFX8drawLineEiiiij>:
     770:	2f 92       	push	r2
     772:	3f 92       	push	r3
     774:	4f 92       	push	r4
     776:	5f 92       	push	r5
     778:	6f 92       	push	r6
     77a:	7f 92       	push	r7
     77c:	8f 92       	push	r8
     77e:	9f 92       	push	r9
     780:	af 92       	push	r10
     782:	bf 92       	push	r11
     784:	cf 92       	push	r12
     786:	df 92       	push	r13
     788:	ef 92       	push	r14
     78a:	ff 92       	push	r15
     78c:	0f 93       	push	r16
     78e:	1f 93       	push	r17
     790:	cf 93       	push	r28
     792:	df 93       	push	r29
     794:	00 d0       	rcall	.+0      	; 0x796 <_ZN12Adafruit_GFX8drawLineEiiiij+0x26>
     796:	1f 92       	push	r1
     798:	cd b7       	in	r28, 0x3d	; 61
     79a:	de b7       	in	r29, 0x3e	; 62
     79c:	5c 01       	movw	r10, r24
     79e:	6b 83       	std	Y+3, r22	; 0x03
     7a0:	7c 83       	std	Y+4, r23	; 0x04
     7a2:	6a 01       	movw	r12, r20
     7a4:	49 01       	movw	r8, r18
     7a6:	18 01       	movw	r2, r16
     7a8:	b8 01       	movw	r22, r16
     7aa:	64 1b       	sub	r22, r20
     7ac:	75 0b       	sbc	r23, r21
     7ae:	88 27       	eor	r24, r24
     7b0:	77 fd       	sbrc	r23, 7
     7b2:	80 95       	com	r24
     7b4:	98 2f       	mov	r25, r24
     7b6:	0e 94 bd 10 	call	0x217a	; 0x217a <__floatsisf>
     7ba:	2b 01       	movw	r4, r22
     7bc:	3c 01       	movw	r6, r24
     7be:	e8 94       	clt
     7c0:	77 f8       	bld	r7, 7
     7c2:	b4 01       	movw	r22, r8
     7c4:	2b 81       	ldd	r18, Y+3	; 0x03
     7c6:	3c 81       	ldd	r19, Y+4	; 0x04
     7c8:	62 1b       	sub	r22, r18
     7ca:	73 0b       	sbc	r23, r19
     7cc:	88 27       	eor	r24, r24
     7ce:	77 fd       	sbrc	r23, 7
     7d0:	80 95       	com	r24
     7d2:	98 2f       	mov	r25, r24
     7d4:	0e 94 bd 10 	call	0x217a	; 0x217a <__floatsisf>
     7d8:	9b 01       	movw	r18, r22
     7da:	ac 01       	movw	r20, r24
     7dc:	5f 77       	andi	r21, 0x7F	; 127
     7de:	11 e0       	ldi	r17, 0x01	; 1
     7e0:	00 e0       	ldi	r16, 0x00	; 0
     7e2:	c3 01       	movw	r24, r6
     7e4:	b2 01       	movw	r22, r4
     7e6:	0e 94 21 11 	call	0x2242	; 0x2242 <__gesf2>
     7ea:	18 16       	cp	r1, r24
     7ec:	0c f0       	brlt	.+2      	; 0x7f0 <_ZN12Adafruit_GFX8drawLineEiiiij+0x80>
     7ee:	10 e0       	ldi	r17, 0x00	; 0
     7f0:	61 2e       	mov	r6, r17
     7f2:	70 2e       	mov	r7, r16
     7f4:	61 14       	cp	r6, r1
     7f6:	71 04       	cpc	r7, r1
     7f8:	59 f0       	breq	.+22     	; 0x810 <_ZN12Adafruit_GFX8drawLineEiiiij+0xa0>
     7fa:	98 2d       	mov	r25, r8
     7fc:	89 2d       	mov	r24, r9
     7fe:	41 01       	movw	r8, r2
     800:	29 2e       	mov	r2, r25
     802:	38 2e       	mov	r3, r24
     804:	9b 81       	ldd	r25, Y+3	; 0x03
     806:	8c 81       	ldd	r24, Y+4	; 0x04
     808:	cb 82       	std	Y+3, r12	; 0x03
     80a:	dc 82       	std	Y+4, r13	; 0x04
     80c:	c9 2e       	mov	r12, r25
     80e:	d8 2e       	mov	r13, r24
     810:	8b 81       	ldd	r24, Y+3	; 0x03
     812:	9c 81       	ldd	r25, Y+4	; 0x04
     814:	88 16       	cp	r8, r24
     816:	99 06       	cpc	r9, r25
     818:	5c f4       	brge	.+22     	; 0x830 <_ZN12Adafruit_GFX8drawLineEiiiij+0xc0>
     81a:	9c 2d       	mov	r25, r12
     81c:	8d 2d       	mov	r24, r13
     81e:	61 01       	movw	r12, r2
     820:	29 2e       	mov	r2, r25
     822:	38 2e       	mov	r3, r24
     824:	9b 81       	ldd	r25, Y+3	; 0x03
     826:	8c 81       	ldd	r24, Y+4	; 0x04
     828:	8b 82       	std	Y+3, r8	; 0x03
     82a:	9c 82       	std	Y+4, r9	; 0x04
     82c:	89 2e       	mov	r8, r25
     82e:	98 2e       	mov	r9, r24
     830:	d4 01       	movw	r26, r8
     832:	eb 81       	ldd	r30, Y+3	; 0x03
     834:	fc 81       	ldd	r31, Y+4	; 0x04
     836:	ae 1b       	sub	r26, r30
     838:	bf 0b       	sbc	r27, r31
     83a:	a9 83       	std	Y+1, r26	; 0x01
     83c:	ba 83       	std	Y+2, r27	; 0x02
     83e:	b1 01       	movw	r22, r2
     840:	6c 19       	sub	r22, r12
     842:	7d 09       	sbc	r23, r13
     844:	88 27       	eor	r24, r24
     846:	77 fd       	sbrc	r23, 7
     848:	80 95       	com	r24
     84a:	98 2f       	mov	r25, r24
     84c:	0e 94 bd 10 	call	0x217a	; 0x217a <__floatsisf>
     850:	9f 77       	andi	r25, 0x7F	; 127
     852:	0e 94 8a 10 	call	0x2114	; 0x2114 <__fixsfsi>
     856:	2b 01       	movw	r4, r22
     858:	09 81       	ldd	r16, Y+1	; 0x01
     85a:	1a 81       	ldd	r17, Y+2	; 0x02
     85c:	11 23       	and	r17, r17
     85e:	14 f4       	brge	.+4      	; 0x864 <_ZN12Adafruit_GFX8drawLineEiiiij+0xf4>
     860:	0f 5f       	subi	r16, 0xFF	; 255
     862:	1f 4f       	sbci	r17, 0xFF	; 255
     864:	15 95       	asr	r17
     866:	07 95       	ror	r16
     868:	c2 14       	cp	r12, r2
     86a:	d3 04       	cpc	r13, r3
     86c:	24 f4       	brge	.+8      	; 0x876 <_ZN12Adafruit_GFX8drawLineEiiiij+0x106>
     86e:	22 24       	eor	r2, r2
     870:	23 94       	inc	r2
     872:	31 2c       	mov	r3, r1
     874:	03 c0       	rjmp	.+6      	; 0x87c <_ZN12Adafruit_GFX8drawLineEiiiij+0x10c>
     876:	22 24       	eor	r2, r2
     878:	2a 94       	dec	r2
     87a:	32 2c       	mov	r3, r2
     87c:	2b 81       	ldd	r18, Y+3	; 0x03
     87e:	3c 81       	ldd	r19, Y+4	; 0x04
     880:	82 16       	cp	r8, r18
     882:	93 06       	cpc	r9, r19
     884:	74 f1       	brlt	.+92     	; 0x8e2 <_ZN12Adafruit_GFX8drawLineEiiiij+0x172>
     886:	61 14       	cp	r6, r1
     888:	71 04       	cpc	r7, r1
     88a:	69 f0       	breq	.+26     	; 0x8a6 <_ZN12Adafruit_GFX8drawLineEiiiij+0x136>
     88c:	d5 01       	movw	r26, r10
     88e:	ed 91       	ld	r30, X+
     890:	fc 91       	ld	r31, X
     892:	01 90       	ld	r0, Z+
     894:	f0 81       	ld	r31, Z
     896:	e0 2d       	mov	r30, r0
     898:	97 01       	movw	r18, r14
     89a:	4b 81       	ldd	r20, Y+3	; 0x03
     89c:	5c 81       	ldd	r21, Y+4	; 0x04
     89e:	b6 01       	movw	r22, r12
     8a0:	c5 01       	movw	r24, r10
     8a2:	19 95       	eicall
     8a4:	0c c0       	rjmp	.+24     	; 0x8be <_ZN12Adafruit_GFX8drawLineEiiiij+0x14e>
     8a6:	d5 01       	movw	r26, r10
     8a8:	ed 91       	ld	r30, X+
     8aa:	fc 91       	ld	r31, X
     8ac:	01 90       	ld	r0, Z+
     8ae:	f0 81       	ld	r31, Z
     8b0:	e0 2d       	mov	r30, r0
     8b2:	97 01       	movw	r18, r14
     8b4:	a6 01       	movw	r20, r12
     8b6:	6b 81       	ldd	r22, Y+3	; 0x03
     8b8:	7c 81       	ldd	r23, Y+4	; 0x04
     8ba:	c5 01       	movw	r24, r10
     8bc:	19 95       	eicall
     8be:	04 19       	sub	r16, r4
     8c0:	15 09       	sbc	r17, r5
     8c2:	32 f4       	brpl	.+12     	; 0x8d0 <_ZN12Adafruit_GFX8drawLineEiiiij+0x160>
     8c4:	c2 0c       	add	r12, r2
     8c6:	d3 1c       	adc	r13, r3
     8c8:	e9 81       	ldd	r30, Y+1	; 0x01
     8ca:	fa 81       	ldd	r31, Y+2	; 0x02
     8cc:	0e 0f       	add	r16, r30
     8ce:	1f 1f       	adc	r17, r31
     8d0:	2b 81       	ldd	r18, Y+3	; 0x03
     8d2:	3c 81       	ldd	r19, Y+4	; 0x04
     8d4:	2f 5f       	subi	r18, 0xFF	; 255
     8d6:	3f 4f       	sbci	r19, 0xFF	; 255
     8d8:	2b 83       	std	Y+3, r18	; 0x03
     8da:	3c 83       	std	Y+4, r19	; 0x04
     8dc:	82 16       	cp	r8, r18
     8de:	93 06       	cpc	r9, r19
     8e0:	94 f6       	brge	.-92     	; 0x886 <_ZN12Adafruit_GFX8drawLineEiiiij+0x116>
     8e2:	24 96       	adiw	r28, 0x04	; 4
     8e4:	cd bf       	out	0x3d, r28	; 61
     8e6:	de bf       	out	0x3e, r29	; 62
     8e8:	df 91       	pop	r29
     8ea:	cf 91       	pop	r28
     8ec:	1f 91       	pop	r17
     8ee:	0f 91       	pop	r16
     8f0:	ff 90       	pop	r15
     8f2:	ef 90       	pop	r14
     8f4:	df 90       	pop	r13
     8f6:	cf 90       	pop	r12
     8f8:	bf 90       	pop	r11
     8fa:	af 90       	pop	r10
     8fc:	9f 90       	pop	r9
     8fe:	8f 90       	pop	r8
     900:	7f 90       	pop	r7
     902:	6f 90       	pop	r6
     904:	5f 90       	pop	r5
     906:	4f 90       	pop	r4
     908:	3f 90       	pop	r3
     90a:	2f 90       	pop	r2
     90c:	08 95       	ret

0000090e <_ZN12Adafruit_GFX8drawRectEiiiij>:
     90e:	6f 92       	push	r6
     910:	7f 92       	push	r7
     912:	8f 92       	push	r8
     914:	9f 92       	push	r9
     916:	af 92       	push	r10
     918:	bf 92       	push	r11
     91a:	cf 92       	push	r12
     91c:	df 92       	push	r13
     91e:	ef 92       	push	r14
     920:	ff 92       	push	r15
     922:	0f 93       	push	r16
     924:	1f 93       	push	r17
     926:	cf 93       	push	r28
     928:	df 93       	push	r29
     92a:	ec 01       	movw	r28, r24
     92c:	5b 01       	movw	r10, r22
     92e:	6a 01       	movw	r12, r20
     930:	39 01       	movw	r6, r18
     932:	48 01       	movw	r8, r16
     934:	e8 81       	ld	r30, Y
     936:	f9 81       	ldd	r31, Y+1	; 0x01
     938:	06 80       	ldd	r0, Z+6	; 0x06
     93a:	f7 81       	ldd	r31, Z+7	; 0x07
     93c:	e0 2d       	mov	r30, r0
     93e:	87 01       	movw	r16, r14
     940:	19 95       	eicall
     942:	e8 81       	ld	r30, Y
     944:	f9 81       	ldd	r31, Y+1	; 0x01
     946:	a6 01       	movw	r20, r12
     948:	48 0d       	add	r20, r8
     94a:	59 1d       	adc	r21, r9
     94c:	41 50       	subi	r20, 0x01	; 1
     94e:	51 09       	sbc	r21, r1
     950:	06 80       	ldd	r0, Z+6	; 0x06
     952:	f7 81       	ldd	r31, Z+7	; 0x07
     954:	e0 2d       	mov	r30, r0
     956:	93 01       	movw	r18, r6
     958:	b5 01       	movw	r22, r10
     95a:	ce 01       	movw	r24, r28
     95c:	19 95       	eicall
     95e:	e8 81       	ld	r30, Y
     960:	f9 81       	ldd	r31, Y+1	; 0x01
     962:	04 80       	ldd	r0, Z+4	; 0x04
     964:	f5 81       	ldd	r31, Z+5	; 0x05
     966:	e0 2d       	mov	r30, r0
     968:	94 01       	movw	r18, r8
     96a:	a6 01       	movw	r20, r12
     96c:	b5 01       	movw	r22, r10
     96e:	ce 01       	movw	r24, r28
     970:	19 95       	eicall
     972:	e8 81       	ld	r30, Y
     974:	f9 81       	ldd	r31, Y+1	; 0x01
     976:	a6 0c       	add	r10, r6
     978:	b7 1c       	adc	r11, r7
     97a:	b5 01       	movw	r22, r10
     97c:	61 50       	subi	r22, 0x01	; 1
     97e:	71 09       	sbc	r23, r1
     980:	04 80       	ldd	r0, Z+4	; 0x04
     982:	f5 81       	ldd	r31, Z+5	; 0x05
     984:	e0 2d       	mov	r30, r0
     986:	94 01       	movw	r18, r8
     988:	a6 01       	movw	r20, r12
     98a:	ce 01       	movw	r24, r28
     98c:	19 95       	eicall
     98e:	df 91       	pop	r29
     990:	cf 91       	pop	r28
     992:	1f 91       	pop	r17
     994:	0f 91       	pop	r16
     996:	ff 90       	pop	r15
     998:	ef 90       	pop	r14
     99a:	df 90       	pop	r13
     99c:	cf 90       	pop	r12
     99e:	bf 90       	pop	r11
     9a0:	af 90       	pop	r10
     9a2:	9f 90       	pop	r9
     9a4:	8f 90       	pop	r8
     9a6:	7f 90       	pop	r7
     9a8:	6f 90       	pop	r6
     9aa:	08 95       	ret

000009ac <_ZN12Adafruit_GFX13drawFastVLineEiiij>:
     9ac:	ef 92       	push	r14
     9ae:	ff 92       	push	r15
     9b0:	0f 93       	push	r16
     9b2:	1f 93       	push	r17
     9b4:	dc 01       	movw	r26, r24
     9b6:	ed 91       	ld	r30, X+
     9b8:	fc 91       	ld	r31, X
     9ba:	24 0f       	add	r18, r20
     9bc:	35 1f       	adc	r19, r21
     9be:	21 50       	subi	r18, 0x01	; 1
     9c0:	31 09       	sbc	r19, r1
     9c2:	02 80       	ldd	r0, Z+2	; 0x02
     9c4:	f3 81       	ldd	r31, Z+3	; 0x03
     9c6:	e0 2d       	mov	r30, r0
     9c8:	78 01       	movw	r14, r16
     9ca:	89 01       	movw	r16, r18
     9cc:	9b 01       	movw	r18, r22
     9ce:	19 95       	eicall
     9d0:	1f 91       	pop	r17
     9d2:	0f 91       	pop	r16
     9d4:	ff 90       	pop	r15
     9d6:	ef 90       	pop	r14
     9d8:	08 95       	ret

000009da <_ZN12Adafruit_GFX13drawFastHLineEiiij>:
     9da:	ef 92       	push	r14
     9dc:	ff 92       	push	r15
     9de:	0f 93       	push	r16
     9e0:	1f 93       	push	r17
     9e2:	dc 01       	movw	r26, r24
     9e4:	ed 91       	ld	r30, X+
     9e6:	fc 91       	ld	r31, X
     9e8:	26 0f       	add	r18, r22
     9ea:	37 1f       	adc	r19, r23
     9ec:	21 50       	subi	r18, 0x01	; 1
     9ee:	31 09       	sbc	r19, r1
     9f0:	02 80       	ldd	r0, Z+2	; 0x02
     9f2:	f3 81       	ldd	r31, Z+3	; 0x03
     9f4:	e0 2d       	mov	r30, r0
     9f6:	78 01       	movw	r14, r16
     9f8:	8a 01       	movw	r16, r20
     9fa:	19 95       	eicall
     9fc:	1f 91       	pop	r17
     9fe:	0f 91       	pop	r16
     a00:	ff 90       	pop	r15
     a02:	ef 90       	pop	r14
     a04:	08 95       	ret

00000a06 <_ZN12Adafruit_GFX8fillRectEiiiij>:
     a06:	6f 92       	push	r6
     a08:	7f 92       	push	r7
     a0a:	8f 92       	push	r8
     a0c:	9f 92       	push	r9
     a0e:	af 92       	push	r10
     a10:	bf 92       	push	r11
     a12:	cf 92       	push	r12
     a14:	df 92       	push	r13
     a16:	ef 92       	push	r14
     a18:	ff 92       	push	r15
     a1a:	0f 93       	push	r16
     a1c:	1f 93       	push	r17
     a1e:	cf 93       	push	r28
     a20:	df 93       	push	r29
     a22:	6c 01       	movw	r12, r24
     a24:	eb 01       	movw	r28, r22
     a26:	4a 01       	movw	r8, r20
     a28:	58 01       	movw	r10, r16
     a2a:	3b 01       	movw	r6, r22
     a2c:	62 0e       	add	r6, r18
     a2e:	73 1e       	adc	r7, r19
     a30:	66 15       	cp	r22, r6
     a32:	77 05       	cpc	r23, r7
     a34:	84 f4       	brge	.+32     	; 0xa56 <_ZN12Adafruit_GFX8fillRectEiiiij+0x50>
     a36:	d6 01       	movw	r26, r12
     a38:	ed 91       	ld	r30, X+
     a3a:	fc 91       	ld	r31, X
     a3c:	04 80       	ldd	r0, Z+4	; 0x04
     a3e:	f5 81       	ldd	r31, Z+5	; 0x05
     a40:	e0 2d       	mov	r30, r0
     a42:	87 01       	movw	r16, r14
     a44:	95 01       	movw	r18, r10
     a46:	a4 01       	movw	r20, r8
     a48:	be 01       	movw	r22, r28
     a4a:	c6 01       	movw	r24, r12
     a4c:	19 95       	eicall
     a4e:	21 96       	adiw	r28, 0x01	; 1
     a50:	c6 15       	cp	r28, r6
     a52:	d7 05       	cpc	r29, r7
     a54:	84 f3       	brlt	.-32     	; 0xa36 <_ZN12Adafruit_GFX8fillRectEiiiij+0x30>
     a56:	df 91       	pop	r29
     a58:	cf 91       	pop	r28
     a5a:	1f 91       	pop	r17
     a5c:	0f 91       	pop	r16
     a5e:	ff 90       	pop	r15
     a60:	ef 90       	pop	r14
     a62:	df 90       	pop	r13
     a64:	cf 90       	pop	r12
     a66:	bf 90       	pop	r11
     a68:	af 90       	pop	r10
     a6a:	9f 90       	pop	r9
     a6c:	8f 90       	pop	r8
     a6e:	7f 90       	pop	r7
     a70:	6f 90       	pop	r6
     a72:	08 95       	ret

00000a74 <_ZN12Adafruit_GFX10fillScreenEj>:
     a74:	ef 92       	push	r14
     a76:	ff 92       	push	r15
     a78:	0f 93       	push	r16
     a7a:	1f 93       	push	r17
     a7c:	dc 01       	movw	r26, r24
     a7e:	ed 91       	ld	r30, X+
     a80:	fc 91       	ld	r31, X
     a82:	11 97       	sbiw	r26, 0x01	; 1
     a84:	18 96       	adiw	r26, 0x08	; 8
     a86:	0d 91       	ld	r16, X+
     a88:	1c 91       	ld	r17, X
     a8a:	19 97       	sbiw	r26, 0x09	; 9
     a8c:	16 96       	adiw	r26, 0x06	; 6
     a8e:	2d 91       	ld	r18, X+
     a90:	3c 91       	ld	r19, X
     a92:	17 97       	sbiw	r26, 0x07	; 7
     a94:	02 84       	ldd	r0, Z+10	; 0x0a
     a96:	f3 85       	ldd	r31, Z+11	; 0x0b
     a98:	e0 2d       	mov	r30, r0
     a9a:	7b 01       	movw	r14, r22
     a9c:	40 e0       	ldi	r20, 0x00	; 0
     a9e:	50 e0       	ldi	r21, 0x00	; 0
     aa0:	60 e0       	ldi	r22, 0x00	; 0
     aa2:	70 e0       	ldi	r23, 0x00	; 0
     aa4:	19 95       	eicall
     aa6:	1f 91       	pop	r17
     aa8:	0f 91       	pop	r16
     aaa:	ff 90       	pop	r15
     aac:	ef 90       	pop	r14
     aae:	08 95       	ret

00000ab0 <_ZN12Adafruit_GFX13invertDisplayEb>:
     ab0:	08 95       	ret

00000ab2 <_ZN12Adafruit_GFXC1Eii>:
     ab2:	fc 01       	movw	r30, r24
     ab4:	8f e1       	ldi	r24, 0x1F	; 31
     ab6:	90 e2       	ldi	r25, 0x20	; 32
     ab8:	80 83       	st	Z, r24
     aba:	91 83       	std	Z+1, r25	; 0x01
     abc:	62 83       	std	Z+2, r22	; 0x02
     abe:	73 83       	std	Z+3, r23	; 0x03
     ac0:	44 83       	std	Z+4, r20	; 0x04
     ac2:	55 83       	std	Z+5, r21	; 0x05
     ac4:	66 83       	std	Z+6, r22	; 0x06
     ac6:	77 83       	std	Z+7, r23	; 0x07
     ac8:	40 87       	std	Z+8, r20	; 0x08
     aca:	51 87       	std	Z+9, r21	; 0x09
     acc:	15 8a       	std	Z+21, r1	; 0x15
     ace:	12 86       	std	Z+10, r1	; 0x0a
     ad0:	13 86       	std	Z+11, r1	; 0x0b
     ad2:	14 86       	std	Z+12, r1	; 0x0c
     ad4:	15 86       	std	Z+13, r1	; 0x0d
     ad6:	21 e0       	ldi	r18, 0x01	; 1
     ad8:	24 8b       	std	Z+20, r18	; 0x14
     ada:	8f ef       	ldi	r24, 0xFF	; 255
     adc:	9f ef       	ldi	r25, 0xFF	; 255
     ade:	82 8b       	std	Z+18, r24	; 0x12
     ae0:	93 8b       	std	Z+19, r25	; 0x13
     ae2:	80 8b       	std	Z+16, r24	; 0x10
     ae4:	91 8b       	std	Z+17, r25	; 0x11
     ae6:	26 8b       	std	Z+22, r18	; 0x16
     ae8:	08 95       	ret

00000aea <_ZN12Adafruit_GFX8drawCharEiihjjh>:
     aea:	2f 92       	push	r2
     aec:	3f 92       	push	r3
     aee:	4f 92       	push	r4
     af0:	5f 92       	push	r5
     af2:	6f 92       	push	r6
     af4:	7f 92       	push	r7
     af6:	8f 92       	push	r8
     af8:	9f 92       	push	r9
     afa:	af 92       	push	r10
     afc:	bf 92       	push	r11
     afe:	cf 92       	push	r12
     b00:	df 92       	push	r13
     b02:	ef 92       	push	r14
     b04:	ff 92       	push	r15
     b06:	0f 93       	push	r16
     b08:	1f 93       	push	r17
     b0a:	cf 93       	push	r28
     b0c:	df 93       	push	r29
     b0e:	cd b7       	in	r28, 0x3d	; 61
     b10:	de b7       	in	r29, 0x3e	; 62
     b12:	60 97       	sbiw	r28, 0x10	; 16
     b14:	cd bf       	out	0x3d, r28	; 61
     b16:	de bf       	out	0x3e, r29	; 62
     b18:	4c 01       	movw	r8, r24
     b1a:	09 83       	std	Y+1, r16	; 0x01
     b1c:	1a 83       	std	Y+2, r17	; 0x02
     b1e:	ec 82       	std	Y+4, r14	; 0x04
     b20:	fd 82       	std	Y+5, r15	; 0x05
     b22:	cb 82       	std	Y+3, r12	; 0x03
     b24:	dc 01       	movw	r26, r24
     b26:	16 96       	adiw	r26, 0x06	; 6
     b28:	8d 91       	ld	r24, X+
     b2a:	9c 91       	ld	r25, X
     b2c:	17 97       	sbiw	r26, 0x07	; 7
     b2e:	68 17       	cp	r22, r24
     b30:	79 07       	cpc	r23, r25
     b32:	0c f0       	brlt	.+2      	; 0xb36 <_ZN12Adafruit_GFX8drawCharEiihjjh+0x4c>
     b34:	c6 c0       	rjmp	.+396    	; 0xcc2 <_ZN12Adafruit_GFX8drawCharEiihjjh+0x1d8>
     b36:	18 96       	adiw	r26, 0x08	; 8
     b38:	8d 91       	ld	r24, X+
     b3a:	9c 91       	ld	r25, X
     b3c:	19 97       	sbiw	r26, 0x09	; 9
     b3e:	48 17       	cp	r20, r24
     b40:	59 07       	cpc	r21, r25
     b42:	0c f0       	brlt	.+2      	; 0xb46 <_ZN12Adafruit_GFX8drawCharEiihjjh+0x5c>
     b44:	be c0       	rjmp	.+380    	; 0xcc2 <_ZN12Adafruit_GFX8drawCharEiihjjh+0x1d8>
     b46:	6c 2c       	mov	r6, r12
     b48:	71 2c       	mov	r7, r1
     b4a:	c3 01       	movw	r24, r6
     b4c:	88 0f       	add	r24, r24
     b4e:	99 1f       	adc	r25, r25
     b50:	86 0d       	add	r24, r6
     b52:	97 1d       	adc	r25, r7
     b54:	88 0f       	add	r24, r24
     b56:	99 1f       	adc	r25, r25
     b58:	86 0f       	add	r24, r22
     b5a:	97 1f       	adc	r25, r23
     b5c:	01 97       	sbiw	r24, 0x01	; 1
     b5e:	99 23       	and	r25, r25
     b60:	0c f4       	brge	.+2      	; 0xb64 <_ZN12Adafruit_GFX8drawCharEiihjjh+0x7a>
     b62:	af c0       	rjmp	.+350    	; 0xcc2 <_ZN12Adafruit_GFX8drawCharEiihjjh+0x1d8>
     b64:	c3 01       	movw	r24, r6
     b66:	88 0f       	add	r24, r24
     b68:	99 1f       	adc	r25, r25
     b6a:	88 0f       	add	r24, r24
     b6c:	99 1f       	adc	r25, r25
     b6e:	88 0f       	add	r24, r24
     b70:	99 1f       	adc	r25, r25
     b72:	84 0f       	add	r24, r20
     b74:	95 1f       	adc	r25, r21
     b76:	01 97       	sbiw	r24, 0x01	; 1
     b78:	99 23       	and	r25, r25
     b7a:	0c f4       	brge	.+2      	; 0xb7e <_ZN12Adafruit_GFX8drawCharEiihjjh+0x94>
     b7c:	a2 c0       	rjmp	.+324    	; 0xcc2 <_ZN12Adafruit_GFX8drawCharEiihjjh+0x1d8>
     b7e:	30 e0       	ldi	r19, 0x00	; 0
     b80:	c9 01       	movw	r24, r18
     b82:	88 0f       	add	r24, r24
     b84:	99 1f       	adc	r25, r25
     b86:	88 0f       	add	r24, r24
     b88:	99 1f       	adc	r25, r25
     b8a:	28 0f       	add	r18, r24
     b8c:	39 1f       	adc	r19, r25
     b8e:	13 01       	movw	r2, r6
     b90:	6e 83       	std	Y+6, r22	; 0x06
     b92:	7f 83       	std	Y+7, r23	; 0x07
     b94:	68 87       	std	Y+8, r22	; 0x08
     b96:	79 87       	std	Y+9, r23	; 0x09
     b98:	1a 86       	std	Y+10, r1	; 0x0a
     b9a:	26 5f       	subi	r18, 0xF6	; 246
     b9c:	3d 4f       	sbci	r19, 0xFD	; 253
     b9e:	f9 01       	movw	r30, r18
     ba0:	e6 1b       	sub	r30, r22
     ba2:	f7 0b       	sbc	r31, r23
     ba4:	ed 87       	std	Y+13, r30	; 0x0d
     ba6:	fe 87       	std	Y+14, r31	; 0x0e
     ba8:	4b 87       	std	Y+11, r20	; 0x0b
     baa:	5c 87       	std	Y+12, r21	; 0x0c
     bac:	fa 85       	ldd	r31, Y+10	; 0x0a
     bae:	f5 30       	cpi	r31, 0x05	; 5
     bb0:	09 f4       	brne	.+2      	; 0xbb4 <_ZN12Adafruit_GFX8drawCharEiihjjh+0xca>
     bb2:	77 c0       	rjmp	.+238    	; 0xca2 <_ZN12Adafruit_GFX8drawCharEiihjjh+0x1b8>
     bb4:	ed 85       	ldd	r30, Y+13	; 0x0d
     bb6:	fe 85       	ldd	r31, Y+14	; 0x0e
     bb8:	2e 81       	ldd	r18, Y+6	; 0x06
     bba:	3f 81       	ldd	r19, Y+7	; 0x07
     bbc:	e2 0f       	add	r30, r18
     bbe:	f3 1f       	adc	r31, r19
     bc0:	04 91       	lpm	r16, Z
     bc2:	70 c0       	rjmp	.+224    	; 0xca4 <_ZN12Adafruit_GFX8drawCharEiihjjh+0x1ba>
     bc4:	90 fe       	sbrs	r9, 0
     bc6:	25 c0       	rjmp	.+74     	; 0xc12 <_ZN12Adafruit_GFX8drawCharEiihjjh+0x128>
     bc8:	3b 81       	ldd	r19, Y+3	; 0x03
     bca:	31 30       	cpi	r19, 0x01	; 1
     bcc:	81 f4       	brne	.+32     	; 0xbee <_ZN12Adafruit_GFX8drawCharEiihjjh+0x104>
     bce:	af 85       	ldd	r26, Y+15	; 0x0f
     bd0:	b8 89       	ldd	r27, Y+16	; 0x10
     bd2:	ed 91       	ld	r30, X+
     bd4:	fc 91       	ld	r31, X
     bd6:	11 97       	sbiw	r26, 0x01	; 1
     bd8:	01 90       	ld	r0, Z+
     bda:	f0 81       	ld	r31, Z
     bdc:	e0 2d       	mov	r30, r0
     bde:	29 81       	ldd	r18, Y+1	; 0x01
     be0:	3a 81       	ldd	r19, Y+2	; 0x02
     be2:	a5 01       	movw	r20, r10
     be4:	6e 81       	ldd	r22, Y+6	; 0x06
     be6:	7f 81       	ldd	r23, Y+7	; 0x07
     be8:	cd 01       	movw	r24, r26
     bea:	19 95       	eicall
     bec:	3d c0       	rjmp	.+122    	; 0xc68 <_ZN12Adafruit_GFX8drawCharEiihjjh+0x17e>
     bee:	af 85       	ldd	r26, Y+15	; 0x0f
     bf0:	b8 89       	ldd	r27, Y+16	; 0x10
     bf2:	ed 91       	ld	r30, X+
     bf4:	fc 91       	ld	r31, X
     bf6:	11 97       	sbiw	r26, 0x01	; 1
     bf8:	02 84       	ldd	r0, Z+10	; 0x0a
     bfa:	f3 85       	ldd	r31, Z+11	; 0x0b
     bfc:	e0 2d       	mov	r30, r0
     bfe:	e9 80       	ldd	r14, Y+1	; 0x01
     c00:	fa 80       	ldd	r15, Y+2	; 0x02
     c02:	83 01       	movw	r16, r6
     c04:	93 01       	movw	r18, r6
     c06:	a6 01       	movw	r20, r12
     c08:	68 2d       	mov	r22, r8
     c0a:	74 2d       	mov	r23, r4
     c0c:	cd 01       	movw	r24, r26
     c0e:	19 95       	eicall
     c10:	2b c0       	rjmp	.+86     	; 0xc68 <_ZN12Adafruit_GFX8drawCharEiihjjh+0x17e>
     c12:	ec 81       	ldd	r30, Y+4	; 0x04
     c14:	fd 81       	ldd	r31, Y+5	; 0x05
     c16:	29 81       	ldd	r18, Y+1	; 0x01
     c18:	3a 81       	ldd	r19, Y+2	; 0x02
     c1a:	e2 17       	cp	r30, r18
     c1c:	f3 07       	cpc	r31, r19
     c1e:	21 f1       	breq	.+72     	; 0xc68 <_ZN12Adafruit_GFX8drawCharEiihjjh+0x17e>
     c20:	3b 81       	ldd	r19, Y+3	; 0x03
     c22:	31 30       	cpi	r19, 0x01	; 1
     c24:	81 f4       	brne	.+32     	; 0xc46 <_ZN12Adafruit_GFX8drawCharEiihjjh+0x15c>
     c26:	af 85       	ldd	r26, Y+15	; 0x0f
     c28:	b8 89       	ldd	r27, Y+16	; 0x10
     c2a:	ed 91       	ld	r30, X+
     c2c:	fc 91       	ld	r31, X
     c2e:	11 97       	sbiw	r26, 0x01	; 1
     c30:	01 90       	ld	r0, Z+
     c32:	f0 81       	ld	r31, Z
     c34:	e0 2d       	mov	r30, r0
     c36:	2c 81       	ldd	r18, Y+4	; 0x04
     c38:	3d 81       	ldd	r19, Y+5	; 0x05
     c3a:	a5 01       	movw	r20, r10
     c3c:	6e 81       	ldd	r22, Y+6	; 0x06
     c3e:	7f 81       	ldd	r23, Y+7	; 0x07
     c40:	cd 01       	movw	r24, r26
     c42:	19 95       	eicall
     c44:	11 c0       	rjmp	.+34     	; 0xc68 <_ZN12Adafruit_GFX8drawCharEiihjjh+0x17e>
     c46:	af 85       	ldd	r26, Y+15	; 0x0f
     c48:	b8 89       	ldd	r27, Y+16	; 0x10
     c4a:	ed 91       	ld	r30, X+
     c4c:	fc 91       	ld	r31, X
     c4e:	11 97       	sbiw	r26, 0x01	; 1
     c50:	02 84       	ldd	r0, Z+10	; 0x0a
     c52:	f3 85       	ldd	r31, Z+11	; 0x0b
     c54:	e0 2d       	mov	r30, r0
     c56:	ec 80       	ldd	r14, Y+4	; 0x04
     c58:	fd 80       	ldd	r15, Y+5	; 0x05
     c5a:	83 01       	movw	r16, r6
     c5c:	93 01       	movw	r18, r6
     c5e:	a6 01       	movw	r20, r12
     c60:	68 2d       	mov	r22, r8
     c62:	74 2d       	mov	r23, r4
     c64:	cd 01       	movw	r24, r26
     c66:	19 95       	eicall
     c68:	96 94       	lsr	r9
     c6a:	5a 94       	dec	r5
     c6c:	c2 0c       	add	r12, r2
     c6e:	d3 1c       	adc	r13, r3
     c70:	bf ef       	ldi	r27, 0xFF	; 255
     c72:	ab 1a       	sub	r10, r27
     c74:	bb 0a       	sbc	r11, r27
     c76:	51 10       	cpse	r5, r1
     c78:	a5 cf       	rjmp	.-182    	; 0xbc4 <_ZN12Adafruit_GFX8drawCharEiihjjh+0xda>
     c7a:	8f 84       	ldd	r8, Y+15	; 0x0f
     c7c:	98 88       	ldd	r9, Y+16	; 0x10
     c7e:	ea 85       	ldd	r30, Y+10	; 0x0a
     c80:	ef 5f       	subi	r30, 0xFF	; 255
     c82:	ea 87       	std	Y+10, r30	; 0x0a
     c84:	28 85       	ldd	r18, Y+8	; 0x08
     c86:	39 85       	ldd	r19, Y+9	; 0x09
     c88:	22 0d       	add	r18, r2
     c8a:	33 1d       	adc	r19, r3
     c8c:	28 87       	std	Y+8, r18	; 0x08
     c8e:	39 87       	std	Y+9, r19	; 0x09
     c90:	8e 81       	ldd	r24, Y+6	; 0x06
     c92:	9f 81       	ldd	r25, Y+7	; 0x07
     c94:	01 96       	adiw	r24, 0x01	; 1
     c96:	8e 83       	std	Y+6, r24	; 0x06
     c98:	9f 83       	std	Y+7, r25	; 0x07
     c9a:	e6 30       	cpi	r30, 0x06	; 6
     c9c:	09 f0       	breq	.+2      	; 0xca0 <_ZN12Adafruit_GFX8drawCharEiihjjh+0x1b6>
     c9e:	86 cf       	rjmp	.-244    	; 0xbac <_ZN12Adafruit_GFX8drawCharEiihjjh+0xc2>
     ca0:	10 c0       	rjmp	.+32     	; 0xcc2 <_ZN12Adafruit_GFX8drawCharEiihjjh+0x1d8>
     ca2:	00 e0       	ldi	r16, 0x00	; 0
     ca4:	18 85       	ldd	r17, Y+8	; 0x08
     ca6:	49 84       	ldd	r4, Y+9	; 0x09
     ca8:	cb 84       	ldd	r12, Y+11	; 0x0b
     caa:	dc 84       	ldd	r13, Y+12	; 0x0c
     cac:	ac 2c       	mov	r10, r12
     cae:	bd 2c       	mov	r11, r13
     cb0:	68 94       	set
     cb2:	55 24       	eor	r5, r5
     cb4:	53 f8       	bld	r5, 3
     cb6:	c4 01       	movw	r24, r8
     cb8:	90 2e       	mov	r9, r16
     cba:	81 2e       	mov	r8, r17
     cbc:	8f 87       	std	Y+15, r24	; 0x0f
     cbe:	98 8b       	std	Y+16, r25	; 0x10
     cc0:	81 cf       	rjmp	.-254    	; 0xbc4 <_ZN12Adafruit_GFX8drawCharEiihjjh+0xda>
     cc2:	60 96       	adiw	r28, 0x10	; 16
     cc4:	cd bf       	out	0x3d, r28	; 61
     cc6:	de bf       	out	0x3e, r29	; 62
     cc8:	df 91       	pop	r29
     cca:	cf 91       	pop	r28
     ccc:	1f 91       	pop	r17
     cce:	0f 91       	pop	r16
     cd0:	ff 90       	pop	r15
     cd2:	ef 90       	pop	r14
     cd4:	df 90       	pop	r13
     cd6:	cf 90       	pop	r12
     cd8:	bf 90       	pop	r11
     cda:	af 90       	pop	r10
     cdc:	9f 90       	pop	r9
     cde:	8f 90       	pop	r8
     ce0:	7f 90       	pop	r7
     ce2:	6f 90       	pop	r6
     ce4:	5f 90       	pop	r5
     ce6:	4f 90       	pop	r4
     ce8:	3f 90       	pop	r3
     cea:	2f 90       	pop	r2
     cec:	08 95       	ret

00000cee <_ZN12Adafruit_GFX5writeEh>:
     cee:	cf 92       	push	r12
     cf0:	ef 92       	push	r14
     cf2:	ff 92       	push	r15
     cf4:	0f 93       	push	r16
     cf6:	1f 93       	push	r17
     cf8:	cf 93       	push	r28
     cfa:	df 93       	push	r29
     cfc:	ec 01       	movw	r28, r24
     cfe:	6a 30       	cpi	r22, 0x0A	; 10
     d00:	79 f4       	brne	.+30     	; 0xd20 <_ZN12Adafruit_GFX5writeEh+0x32>
     d02:	2c 89       	ldd	r18, Y+20	; 0x14
     d04:	8c 85       	ldd	r24, Y+12	; 0x0c
     d06:	9d 85       	ldd	r25, Y+13	; 0x0d
     d08:	38 e0       	ldi	r19, 0x08	; 8
     d0a:	23 9f       	mul	r18, r19
     d0c:	80 0d       	add	r24, r0
     d0e:	91 1d       	adc	r25, r1
     d10:	11 24       	eor	r1, r1
     d12:	8c 87       	std	Y+12, r24	; 0x0c
     d14:	9d 87       	std	Y+13, r25	; 0x0d
     d16:	8e 85       	ldd	r24, Y+14	; 0x0e
     d18:	9f 85       	ldd	r25, Y+15	; 0x0f
     d1a:	8a 87       	std	Y+10, r24	; 0x0a
     d1c:	9b 87       	std	Y+11, r25	; 0x0b
     d1e:	3c c0       	rjmp	.+120    	; 0xd98 <_ZN12Adafruit_GFX5writeEh+0xaa>
     d20:	6d 30       	cpi	r22, 0x0D	; 13
     d22:	d1 f1       	breq	.+116    	; 0xd98 <_ZN12Adafruit_GFX5writeEh+0xaa>
     d24:	ea 88       	ldd	r14, Y+18	; 0x12
     d26:	fb 88       	ldd	r15, Y+19	; 0x13
     d28:	08 89       	ldd	r16, Y+16	; 0x10
     d2a:	19 89       	ldd	r17, Y+17	; 0x11
     d2c:	4c 85       	ldd	r20, Y+12	; 0x0c
     d2e:	5d 85       	ldd	r21, Y+13	; 0x0d
     d30:	8a 85       	ldd	r24, Y+10	; 0x0a
     d32:	9b 85       	ldd	r25, Y+11	; 0x0b
     d34:	cc 88       	ldd	r12, Y+20	; 0x14
     d36:	26 2f       	mov	r18, r22
     d38:	bc 01       	movw	r22, r24
     d3a:	ce 01       	movw	r24, r28
     d3c:	d6 de       	rcall	.-596    	; 0xaea <_ZN12Adafruit_GFX8drawCharEiihjjh>
     d3e:	2c 89       	ldd	r18, Y+20	; 0x14
     d40:	30 e0       	ldi	r19, 0x00	; 0
     d42:	c9 01       	movw	r24, r18
     d44:	88 0f       	add	r24, r24
     d46:	99 1f       	adc	r25, r25
     d48:	82 0f       	add	r24, r18
     d4a:	93 1f       	adc	r25, r19
     d4c:	88 0f       	add	r24, r24
     d4e:	99 1f       	adc	r25, r25
     d50:	4a 85       	ldd	r20, Y+10	; 0x0a
     d52:	5b 85       	ldd	r21, Y+11	; 0x0b
     d54:	84 0f       	add	r24, r20
     d56:	95 1f       	adc	r25, r21
     d58:	8a 87       	std	Y+10, r24	; 0x0a
     d5a:	9b 87       	std	Y+11, r25	; 0x0b
     d5c:	4e 89       	ldd	r20, Y+22	; 0x16
     d5e:	44 23       	and	r20, r20
     d60:	d9 f0       	breq	.+54     	; 0xd98 <_ZN12Adafruit_GFX5writeEh+0xaa>
     d62:	4a ef       	ldi	r20, 0xFA	; 250
     d64:	42 03       	mulsu	r20, r18
     d66:	b0 01       	movw	r22, r0
     d68:	43 9f       	mul	r20, r19
     d6a:	70 0d       	add	r23, r0
     d6c:	11 24       	eor	r1, r1
     d6e:	4e 81       	ldd	r20, Y+6	; 0x06
     d70:	5f 81       	ldd	r21, Y+7	; 0x07
     d72:	46 0f       	add	r20, r22
     d74:	57 1f       	adc	r21, r23
     d76:	48 17       	cp	r20, r24
     d78:	59 07       	cpc	r21, r25
     d7a:	74 f4       	brge	.+28     	; 0xd98 <_ZN12Adafruit_GFX5writeEh+0xaa>
     d7c:	22 0f       	add	r18, r18
     d7e:	33 1f       	adc	r19, r19
     d80:	22 0f       	add	r18, r18
     d82:	33 1f       	adc	r19, r19
     d84:	22 0f       	add	r18, r18
     d86:	33 1f       	adc	r19, r19
     d88:	8c 85       	ldd	r24, Y+12	; 0x0c
     d8a:	9d 85       	ldd	r25, Y+13	; 0x0d
     d8c:	28 0f       	add	r18, r24
     d8e:	39 1f       	adc	r19, r25
     d90:	2c 87       	std	Y+12, r18	; 0x0c
     d92:	3d 87       	std	Y+13, r19	; 0x0d
     d94:	1a 86       	std	Y+10, r1	; 0x0a
     d96:	1b 86       	std	Y+11, r1	; 0x0b
     d98:	df 91       	pop	r29
     d9a:	cf 91       	pop	r28
     d9c:	1f 91       	pop	r17
     d9e:	0f 91       	pop	r16
     da0:	ff 90       	pop	r15
     da2:	ef 90       	pop	r14
     da4:	cf 90       	pop	r12
     da6:	08 95       	ret

00000da8 <_ZN12Adafruit_GFX9setCursorEii>:
     da8:	fc 01       	movw	r30, r24
     daa:	62 87       	std	Z+10, r22	; 0x0a
     dac:	73 87       	std	Z+11, r23	; 0x0b
     dae:	44 87       	std	Z+12, r20	; 0x0c
     db0:	55 87       	std	Z+13, r21	; 0x0d
     db2:	66 87       	std	Z+14, r22	; 0x0e
     db4:	77 87       	std	Z+15, r23	; 0x0f
     db6:	08 95       	ret

00000db8 <_ZN12Adafruit_GFX11setTextSizeEh>:
     db8:	61 11       	cpse	r22, r1
     dba:	01 c0       	rjmp	.+2      	; 0xdbe <_ZN12Adafruit_GFX11setTextSizeEh+0x6>
     dbc:	61 e0       	ldi	r22, 0x01	; 1
     dbe:	fc 01       	movw	r30, r24
     dc0:	64 8b       	std	Z+20, r22	; 0x14
     dc2:	08 95       	ret

00000dc4 <_ZN12Adafruit_GFX12setTextColorEjj>:
     dc4:	fc 01       	movw	r30, r24
     dc6:	60 8b       	std	Z+16, r22	; 0x10
     dc8:	71 8b       	std	Z+17, r23	; 0x11
     dca:	42 8b       	std	Z+18, r20	; 0x12
     dcc:	53 8b       	std	Z+19, r21	; 0x13
     dce:	08 95       	ret

00000dd0 <_ZN12Adafruit_GFX11setTextWrapEb>:
     dd0:	fc 01       	movw	r30, r24
     dd2:	66 8b       	std	Z+22, r22	; 0x16
     dd4:	08 95       	ret

00000dd6 <_ZN12Adafruit_GFX11setRotationEh>:

void Adafruit_GFX::setRotation(uint8_t x) {
     dd6:	fc 01       	movw	r30, r24
  rotation = (x & 3);
     dd8:	63 70       	andi	r22, 0x03	; 3
     dda:	65 8b       	std	Z+21, r22	; 0x15
  switch(rotation) {
     ddc:	61 30       	cpi	r22, 0x01	; 1
     dde:	79 f0       	breq	.+30     	; 0xdfe <_ZN12Adafruit_GFX11setRotationEh+0x28>
     de0:	28 f0       	brcs	.+10     	; 0xdec <_ZN12Adafruit_GFX11setRotationEh+0x16>
     de2:	62 30       	cpi	r22, 0x02	; 2
     de4:	19 f0       	breq	.+6      	; 0xdec <_ZN12Adafruit_GFX11setRotationEh+0x16>
     de6:	63 30       	cpi	r22, 0x03	; 3
     de8:	91 f4       	brne	.+36     	; 0xe0e <_ZN12Adafruit_GFX11setRotationEh+0x38>
     dea:	09 c0       	rjmp	.+18     	; 0xdfe <_ZN12Adafruit_GFX11setRotationEh+0x28>
   case 0:
   case 2:
    _width  = WIDTH;
     dec:	82 81       	ldd	r24, Z+2	; 0x02
     dee:	93 81       	ldd	r25, Z+3	; 0x03
     df0:	86 83       	std	Z+6, r24	; 0x06
     df2:	97 83       	std	Z+7, r25	; 0x07
    _height = HEIGHT;
     df4:	84 81       	ldd	r24, Z+4	; 0x04
     df6:	95 81       	ldd	r25, Z+5	; 0x05
     df8:	80 87       	std	Z+8, r24	; 0x08
     dfa:	91 87       	std	Z+9, r25	; 0x09
    break;
     dfc:	08 95       	ret
   case 1:
   case 3:
    _width  = HEIGHT;
     dfe:	84 81       	ldd	r24, Z+4	; 0x04
     e00:	95 81       	ldd	r25, Z+5	; 0x05
     e02:	86 83       	std	Z+6, r24	; 0x06
     e04:	97 83       	std	Z+7, r25	; 0x07
    _height = WIDTH;
     e06:	82 81       	ldd	r24, Z+2	; 0x02
     e08:	93 81       	ldd	r25, Z+3	; 0x03
     e0a:	80 87       	std	Z+8, r24	; 0x08
     e0c:	91 87       	std	Z+9, r25	; 0x09
     e0e:	08 95       	ret

00000e10 <_ZN5BTOBD13interceptByteEv>:
	TCC1.CCA = 1000; //Check approximately at 4 Hz
	TCC1.INTCTRLB = 0x00; //Disable CCA interrupts

	TCC1.CTRLA = 0x07; // Prescaler /1024
} //BTOBD
char BTOBD::interceptByte() {
     e10:	1f 93       	push	r17
     e12:	cf 93       	push	r28
     e14:	df 93       	push	r29
     e16:	ec 01       	movw	r28, r24
	char c = driver.getUARTPort()->DATA;
     e18:	0e 94 1f 10 	call	0x203e	; 0x203e <_ZN10UartDriver11getUARTPortEv>
     e1c:	fc 01       	movw	r30, r24
     e1e:	10 81       	ld	r17, Z
	driver.rcvByte(c);
     e20:	61 2f       	mov	r22, r17
     e22:	ce 01       	movw	r24, r28
     e24:	0e 94 0f 10 	call	0x201e	; 0x201e <_ZN10UartDriver7rcvByteEc>
	if (c == '\n') this->responses ++;
     e28:	1a 30       	cpi	r17, 0x0A	; 10
     e2a:	29 f4       	brne	.+10     	; 0xe36 <_ZN5BTOBD13interceptByteEv+0x26>
     e2c:	cd 58       	subi	r28, 0x8D	; 141
     e2e:	df 4f       	sbci	r29, 0xFF	; 255
     e30:	88 81       	ld	r24, Y
     e32:	8f 5f       	subi	r24, 0xFF	; 255
     e34:	88 83       	st	Y, r24
	return c;
}
     e36:	81 2f       	mov	r24, r17
     e38:	df 91       	pop	r29
     e3a:	cf 91       	pop	r28
     e3c:	1f 91       	pop	r17
     e3e:	08 95       	ret

00000e40 <_ZN5BTOBD9handleDREEv>:

void BTOBD::handleDRE() {
     e40:	0f 93       	push	r16
     e42:	1f 93       	push	r17
     e44:	cf 93       	push	r28
     e46:	df 93       	push	r29
     e48:	ec 01       	movw	r28, r24
	if (!driver.txIsEmpty()) {
     e4a:	0e 94 17 10 	call	0x202e	; 0x202e <_ZN10UartDriver9txIsEmptyEv>
     e4e:	81 11       	cpse	r24, r1
     e50:	0a c0       	rjmp	.+20     	; 0xe66 <_ZN5BTOBD9handleDREEv+0x26>
		driver.getUARTPort()->DATA = driver.txDequeue();
     e52:	ce 01       	movw	r24, r28
     e54:	0e 94 1f 10 	call	0x203e	; 0x203e <_ZN10UartDriver11getUARTPortEv>
     e58:	8c 01       	movw	r16, r24
     e5a:	ce 01       	movw	r24, r28
     e5c:	0e 94 1b 10 	call	0x2036	; 0x2036 <_ZN10UartDriver9txDequeueEv>
     e60:	f8 01       	movw	r30, r16
     e62:	80 83       	st	Z, r24
     e64:	07 c0       	rjmp	.+14     	; 0xe74 <_ZN5BTOBD9handleDREEv+0x34>
	} else {
		driver.getUARTPort()->CTRLA &= ~(0x03); //Disable DREint
     e66:	ce 01       	movw	r24, r28
     e68:	0e 94 1f 10 	call	0x203e	; 0x203e <_ZN10UartDriver11getUARTPortEv>
     e6c:	fc 01       	movw	r30, r24
     e6e:	23 81       	ldd	r18, Z+3	; 0x03
     e70:	2c 7f       	andi	r18, 0xFC	; 252
     e72:	23 83       	std	Z+3, r18	; 0x03
	}
}
     e74:	df 91       	pop	r29
     e76:	cf 91       	pop	r28
     e78:	1f 91       	pop	r17
     e7a:	0f 91       	pop	r16
     e7c:	08 95       	ret

00000e7e <_ZN9ByteArrayC1Ei>:
	this->_size = size;
	array = (char *) malloc(sizeof(char) * size);
 }

 ByteArray::~ByteArray() {
	free(array);
     e7e:	cf 93       	push	r28
     e80:	df 93       	push	r29
     e82:	ec 01       	movw	r28, r24
     e84:	cb 01       	movw	r24, r22
     e86:	68 83       	st	Y, r22
     e88:	79 83       	std	Y+1, r23	; 0x01
     e8a:	0e 94 53 11 	call	0x22a6	; 0x22a6 <malloc>
     e8e:	8a 83       	std	Y+2, r24	; 0x02
     e90:	9b 83       	std	Y+3, r25	; 0x03
     e92:	df 91       	pop	r29
     e94:	cf 91       	pop	r28
     e96:	08 95       	ret

00000e98 <_ZN9ByteArray2atEi>:
 }

char ByteArray::at(int i) {
	return array[i];
     e98:	fc 01       	movw	r30, r24
     e9a:	82 81       	ldd	r24, Z+2	; 0x02
     e9c:	93 81       	ldd	r25, Z+3	; 0x03
     e9e:	fc 01       	movw	r30, r24
     ea0:	e6 0f       	add	r30, r22
     ea2:	f7 1f       	adc	r31, r23
 }
     ea4:	80 81       	ld	r24, Z
     ea6:	08 95       	ret

00000ea8 <_ZN9ByteArray3setEic>:
 void ByteArray::set(int i, char c) {
	array[i] = c;
     ea8:	fc 01       	movw	r30, r24
     eaa:	82 81       	ldd	r24, Z+2	; 0x02
     eac:	93 81       	ldd	r25, Z+3	; 0x03
     eae:	fc 01       	movw	r30, r24
     eb0:	e6 0f       	add	r30, r22
     eb2:	f7 1f       	adc	r31, r23
     eb4:	40 83       	st	Z, r20
     eb6:	08 95       	ret

00000eb8 <_ZN9ByteQueueC1Ei>:
 *  Author: ee63pc3-user
 */ 

 #include "ByteQueue.h"

 ByteQueue::ByteQueue(int bufferSize) : queue(bufferSize){
     eb8:	0f 93       	push	r16
     eba:	1f 93       	push	r17
     ebc:	cf 93       	push	r28
     ebe:	df 93       	push	r29
     ec0:	ec 01       	movw	r28, r24
     ec2:	8b 01       	movw	r16, r22
     ec4:	08 96       	adiw	r24, 0x08	; 8
     ec6:	db df       	rcall	.-74     	; 0xe7e <_ZN9ByteArrayC1Ei>
	max_size = bufferSize;
     ec8:	08 83       	st	Y, r16
     eca:	19 83       	std	Y+1, r17	; 0x01
	wptr = 0;
     ecc:	1c 82       	std	Y+4, r1	; 0x04
     ece:	1d 82       	std	Y+5, r1	; 0x05
	rptr = 0;
     ed0:	1e 82       	std	Y+6, r1	; 0x06
     ed2:	1f 82       	std	Y+7, r1	; 0x07
	numitems = 0;
     ed4:	1a 82       	std	Y+2, r1	; 0x02
     ed6:	1b 82       	std	Y+3, r1	; 0x03
 }
     ed8:	df 91       	pop	r29
     eda:	cf 91       	pop	r28
     edc:	1f 91       	pop	r17
     ede:	0f 91       	pop	r16
     ee0:	08 95       	ret

00000ee2 <_ZN9ByteQueue7enqueueEc>:



 void ByteQueue::enqueue(char element){
     ee2:	cf 93       	push	r28
     ee4:	df 93       	push	r29
     ee6:	ec 01       	movw	r28, r24
	 	numitems--;
 	}
	return element;
 }

 bool ByteQueue::isFull() {return numitems == max_size;}
     ee8:	2a 81       	ldd	r18, Y+2	; 0x02
     eea:	3b 81       	ldd	r19, Y+3	; 0x03
 }



 void ByteQueue::enqueue(char element){
	if (!isFull()) {
     eec:	88 81       	ld	r24, Y
     eee:	99 81       	ldd	r25, Y+1	; 0x01
     ef0:	28 17       	cp	r18, r24
     ef2:	39 07       	cpc	r19, r25
     ef4:	e1 f0       	breq	.+56     	; 0xf2e <_ZN9ByteQueue7enqueueEc+0x4c>
		queue.set(wptr, element);
     ef6:	8c 81       	ldd	r24, Y+4	; 0x04
     ef8:	9d 81       	ldd	r25, Y+5	; 0x05
     efa:	46 2f       	mov	r20, r22
     efc:	bc 01       	movw	r22, r24
     efe:	ce 01       	movw	r24, r28
     f00:	08 96       	adiw	r24, 0x08	; 8
     f02:	d2 df       	rcall	.-92     	; 0xea8 <_ZN9ByteArray3setEic>
		//Took this out because modulus is very expensive on micro
		//(Since we're incrementing by one every time, we don't have to deal with any cases where our
		// pointer is over 2*max_size - 1, this should be more efficient)
		//wptr = (wptr + 1) % (max_size-1);
		if ((++wptr) >= max_size) wptr = wptr - max_size;
     f04:	8c 81       	ldd	r24, Y+4	; 0x04
     f06:	9d 81       	ldd	r25, Y+5	; 0x05
     f08:	01 96       	adiw	r24, 0x01	; 1
     f0a:	8c 83       	std	Y+4, r24	; 0x04
     f0c:	9d 83       	std	Y+5, r25	; 0x05
     f0e:	28 81       	ld	r18, Y
     f10:	39 81       	ldd	r19, Y+1	; 0x01
     f12:	82 17       	cp	r24, r18
     f14:	93 07       	cpc	r25, r19
     f16:	34 f0       	brlt	.+12     	; 0xf24 <_ZN9ByteQueue7enqueueEc+0x42>
     f18:	8c 81       	ldd	r24, Y+4	; 0x04
     f1a:	9d 81       	ldd	r25, Y+5	; 0x05
     f1c:	82 1b       	sub	r24, r18
     f1e:	93 0b       	sbc	r25, r19
     f20:	8c 83       	std	Y+4, r24	; 0x04
     f22:	9d 83       	std	Y+5, r25	; 0x05
		numitems++;
     f24:	8a 81       	ldd	r24, Y+2	; 0x02
     f26:	9b 81       	ldd	r25, Y+3	; 0x03
     f28:	01 96       	adiw	r24, 0x01	; 1
     f2a:	8a 83       	std	Y+2, r24	; 0x02
     f2c:	9b 83       	std	Y+3, r25	; 0x03
	}
 }
     f2e:	df 91       	pop	r29
     f30:	cf 91       	pop	r28
     f32:	08 95       	ret

00000f34 <_ZN9ByteQueue7dequeueEv>:

 char ByteQueue::dequeue(){
     f34:	cf 93       	push	r28
     f36:	df 93       	push	r29
     f38:	ec 01       	movw	r28, r24
 	}
	return element;
 }

 bool ByteQueue::isFull() {return numitems == max_size;}
 bool ByteQueue::isEmpty(){return numitems == 0;}
     f3a:	8a 81       	ldd	r24, Y+2	; 0x02
     f3c:	9b 81       	ldd	r25, Y+3	; 0x03
	}
 }

 char ByteQueue::dequeue(){
 	char element = '\0';
	if (!isEmpty()) {
     f3e:	89 2b       	or	r24, r25
     f40:	e9 f0       	breq	.+58     	; 0xf7c <_ZN9ByteQueue7dequeueEv+0x48>
	 	element = queue.at(rptr);
     f42:	6e 81       	ldd	r22, Y+6	; 0x06
     f44:	7f 81       	ldd	r23, Y+7	; 0x07
     f46:	ce 01       	movw	r24, r28
     f48:	08 96       	adiw	r24, 0x08	; 8
     f4a:	a6 df       	rcall	.-180    	; 0xe98 <_ZN9ByteArray2atEi>
		//Read comment in enqueue()
	 	//rptr = (rptr + 1) % (max_size-1)
		if ((++rptr) >= max_size) rptr = rptr - max_size;
     f4c:	2e 81       	ldd	r18, Y+6	; 0x06
     f4e:	3f 81       	ldd	r19, Y+7	; 0x07
     f50:	2f 5f       	subi	r18, 0xFF	; 255
     f52:	3f 4f       	sbci	r19, 0xFF	; 255
     f54:	2e 83       	std	Y+6, r18	; 0x06
     f56:	3f 83       	std	Y+7, r19	; 0x07
     f58:	48 81       	ld	r20, Y
     f5a:	59 81       	ldd	r21, Y+1	; 0x01
     f5c:	24 17       	cp	r18, r20
     f5e:	35 07       	cpc	r19, r21
     f60:	34 f0       	brlt	.+12     	; 0xf6e <_ZN9ByteQueue7dequeueEv+0x3a>
     f62:	2e 81       	ldd	r18, Y+6	; 0x06
     f64:	3f 81       	ldd	r19, Y+7	; 0x07
     f66:	24 1b       	sub	r18, r20
     f68:	35 0b       	sbc	r19, r21
     f6a:	2e 83       	std	Y+6, r18	; 0x06
     f6c:	3f 83       	std	Y+7, r19	; 0x07
	 	numitems--;
     f6e:	2a 81       	ldd	r18, Y+2	; 0x02
     f70:	3b 81       	ldd	r19, Y+3	; 0x03
     f72:	21 50       	subi	r18, 0x01	; 1
     f74:	31 09       	sbc	r19, r1
     f76:	2a 83       	std	Y+2, r18	; 0x02
     f78:	3b 83       	std	Y+3, r19	; 0x03
     f7a:	01 c0       	rjmp	.+2      	; 0xf7e <_ZN9ByteQueue7dequeueEv+0x4a>
		numitems++;
	}
 }

 char ByteQueue::dequeue(){
 	char element = '\0';
     f7c:	80 e0       	ldi	r24, 0x00	; 0
	 	//rptr = (rptr + 1) % (max_size-1)
		if ((++rptr) >= max_size) rptr = rptr - max_size;
	 	numitems--;
 	}
	return element;
 }
     f7e:	df 91       	pop	r29
     f80:	cf 91       	pop	r28
     f82:	08 95       	ret

00000f84 <_ZN9ByteQueue6isFullEv>:

 bool ByteQueue::isFull() {return numitems == max_size;}
     f84:	fc 01       	movw	r30, r24
     f86:	42 81       	ldd	r20, Z+2	; 0x02
     f88:	53 81       	ldd	r21, Z+3	; 0x03
     f8a:	81 e0       	ldi	r24, 0x01	; 1
     f8c:	20 81       	ld	r18, Z
     f8e:	31 81       	ldd	r19, Z+1	; 0x01
     f90:	42 17       	cp	r20, r18
     f92:	53 07       	cpc	r21, r19
     f94:	09 f0       	breq	.+2      	; 0xf98 <_ZN9ByteQueue6isFullEv+0x14>
     f96:	80 e0       	ldi	r24, 0x00	; 0
     f98:	08 95       	ret

00000f9a <_ZN9ByteQueue7isEmptyEv>:
 bool ByteQueue::isEmpty(){return numitems == 0;}
     f9a:	fc 01       	movw	r30, r24
     f9c:	22 81       	ldd	r18, Z+2	; 0x02
     f9e:	33 81       	ldd	r19, Z+3	; 0x03
     fa0:	81 e0       	ldi	r24, 0x01	; 1
     fa2:	23 2b       	or	r18, r19
     fa4:	09 f0       	breq	.+2      	; 0xfa8 <_ZN9ByteQueue7isEmptyEv+0xe>
     fa6:	80 e0       	ldi	r24, 0x00	; 0
     fa8:	08 95       	ret

00000faa <_ZN3GPSC1Ev>:
	dataReady--;
	asm("sei");
}
uint16_t GPS::getStatus() {
	return status_reg;
}
     faa:	af 92       	push	r10
     fac:	bf 92       	push	r11
     fae:	cf 92       	push	r12
     fb0:	ef 92       	push	r14
     fb2:	0f 93       	push	r16
     fb4:	cf 93       	push	r28
     fb6:	df 93       	push	r29
     fb8:	ec 01       	movw	r28, r24
     fba:	8b e0       	ldi	r24, 0x0B	; 11
     fbc:	e6 e0       	ldi	r30, 0x06	; 6
     fbe:	f0 e2       	ldi	r31, 0x20	; 32
     fc0:	de 01       	movw	r26, r28
     fc2:	01 90       	ld	r0, Z+
     fc4:	0d 92       	st	X+, r0
     fc6:	8a 95       	dec	r24
     fc8:	e1 f7       	brne	.-8      	; 0xfc2 <_ZN3GPSC1Ev+0x18>
     fca:	8a e0       	ldi	r24, 0x0A	; 10
     fcc:	e1 e1       	ldi	r30, 0x11	; 17
     fce:	f0 e2       	ldi	r31, 0x20	; 32
     fd0:	de 01       	movw	r26, r28
     fd2:	1b 96       	adiw	r26, 0x0b	; 11
     fd4:	01 90       	ld	r0, Z+
     fd6:	0d 92       	st	X+, r0
     fd8:	8a 95       	dec	r24
     fda:	e1 f7       	brne	.-8      	; 0xfd4 <_ZN3GPSC1Ev+0x2a>
     fdc:	fe 01       	movw	r30, r28
     fde:	ee 5a       	subi	r30, 0xAE	; 174
     fe0:	ff 4f       	sbci	r31, 0xFF	; 255
     fe2:	10 82       	st	Z, r1
     fe4:	5e 01       	movw	r10, r28
     fe6:	83 e5       	ldi	r24, 0x53	; 83
     fe8:	a8 0e       	add	r10, r24
     fea:	b1 1c       	adc	r11, r1
     fec:	40 e5       	ldi	r20, 0x50	; 80
     fee:	50 e0       	ldi	r21, 0x00	; 0
     ff0:	6c ed       	ldi	r22, 0xDC	; 220
     ff2:	70 e0       	ldi	r23, 0x00	; 0
     ff4:	c5 01       	movw	r24, r10
     ff6:	81 d7       	rcall	.+3842   	; 0x1efa <_ZN10UartDriverC1Eii>
     ff8:	0f 2e       	mov	r0, r31
     ffa:	f0 e5       	ldi	r31, 0x50	; 80
     ffc:	cf 2e       	mov	r12, r31
     ffe:	f0 2d       	mov	r31, r0
    1000:	0f 2e       	mov	r0, r31
    1002:	fc e0       	ldi	r31, 0x0C	; 12
    1004:	ef 2e       	mov	r14, r31
    1006:	f0 2d       	mov	r31, r0
    1008:	00 e0       	ldi	r16, 0x00	; 0
    100a:	23 e0       	ldi	r18, 0x03	; 3
    100c:	40 e0       	ldi	r20, 0x00	; 0
    100e:	60 eb       	ldi	r22, 0xB0	; 176
    1010:	79 e0       	ldi	r23, 0x09	; 9
    1012:	c5 01       	movw	r24, r10
    1014:	85 d7       	rcall	.+3850   	; 0x1f20 <_ZN10UartDriver4initEP12USART_structN10ParityMode5PMODEEN8CharSize6CHSIZEEbcc>
    1016:	1d 8a       	std	Y+21, r1	; 0x15
    1018:	1e 8a       	std	Y+22, r1	; 0x16
    101a:	de 01       	movw	r26, r28
    101c:	57 96       	adiw	r26, 0x17	; 23
    101e:	80 e0       	ldi	r24, 0x00	; 0
    1020:	1d 92       	st	X+, r1
    1022:	8f 5f       	subi	r24, 0xFF	; 255
    1024:	8b 33       	cpi	r24, 0x3B	; 59
    1026:	e1 f7       	brne	.-8      	; 0x1020 <_ZN3GPSC1Ev+0x76>
    1028:	df 91       	pop	r29
    102a:	cf 91       	pop	r28
    102c:	0f 91       	pop	r16
    102e:	ef 90       	pop	r14
    1030:	cf 90       	pop	r12
    1032:	bf 90       	pop	r11
    1034:	af 90       	pop	r10
    1036:	08 95       	ret

00001038 <_ZN3GPS11cmdToStringEN4NMEA3CMDEPc>:
    1038:	0f 93       	push	r16
    103a:	1f 93       	push	r17
    103c:	ca 01       	movw	r24, r20
    103e:	20 e3       	ldi	r18, 0x30	; 48
    1040:	fa 01       	movw	r30, r20
    1042:	20 83       	st	Z, r18
    1044:	06 2f       	mov	r16, r22
    1046:	10 e0       	ldi	r17, 0x00	; 0
    1048:	07 30       	cpi	r16, 0x07	; 7
    104a:	11 05       	cpc	r17, r1
    104c:	00 f5       	brcc	.+64     	; 0x108e <_ZN3GPS11cmdToStringEN4NMEA3CMDEPc+0x56>
    104e:	f8 01       	movw	r30, r16
    1050:	e2 50       	subi	r30, 0x02	; 2
    1052:	ff 4f       	sbci	r31, 0xFF	; 255
    1054:	0c 94 49 11 	jmp	0x2292	; 0x2292 <__tablejump2__>
    1058:	20 e3       	ldi	r18, 0x30	; 48
    105a:	fa 01       	movw	r30, r20
    105c:	21 83       	std	Z+1, r18	; 0x01
    105e:	17 c0       	rjmp	.+46     	; 0x108e <_ZN3GPS11cmdToStringEN4NMEA3CMDEPc+0x56>
    1060:	21 e3       	ldi	r18, 0x31	; 49
    1062:	fa 01       	movw	r30, r20
    1064:	21 83       	std	Z+1, r18	; 0x01
    1066:	13 c0       	rjmp	.+38     	; 0x108e <_ZN3GPS11cmdToStringEN4NMEA3CMDEPc+0x56>
    1068:	22 e3       	ldi	r18, 0x32	; 50
    106a:	fa 01       	movw	r30, r20
    106c:	21 83       	std	Z+1, r18	; 0x01
    106e:	0f c0       	rjmp	.+30     	; 0x108e <_ZN3GPS11cmdToStringEN4NMEA3CMDEPc+0x56>
    1070:	23 e3       	ldi	r18, 0x33	; 51
    1072:	fa 01       	movw	r30, r20
    1074:	21 83       	std	Z+1, r18	; 0x01
    1076:	0b c0       	rjmp	.+22     	; 0x108e <_ZN3GPS11cmdToStringEN4NMEA3CMDEPc+0x56>
    1078:	24 e3       	ldi	r18, 0x34	; 52
    107a:	fa 01       	movw	r30, r20
    107c:	21 83       	std	Z+1, r18	; 0x01
    107e:	07 c0       	rjmp	.+14     	; 0x108e <_ZN3GPS11cmdToStringEN4NMEA3CMDEPc+0x56>
    1080:	25 e3       	ldi	r18, 0x35	; 53
    1082:	fa 01       	movw	r30, r20
    1084:	21 83       	std	Z+1, r18	; 0x01
    1086:	03 c0       	rjmp	.+6      	; 0x108e <_ZN3GPS11cmdToStringEN4NMEA3CMDEPc+0x56>
    1088:	28 e3       	ldi	r18, 0x38	; 56
    108a:	fa 01       	movw	r30, r20
    108c:	21 83       	std	Z+1, r18	; 0x01
    108e:	1f 91       	pop	r17
    1090:	0f 91       	pop	r16
    1092:	08 95       	ret

00001094 <_ZN3GPS11setPeriodicEN4NMEA3CMDEh>:
    1094:	af 92       	push	r10
    1096:	bf 92       	push	r11
    1098:	cf 92       	push	r12
    109a:	df 92       	push	r13
    109c:	ef 92       	push	r14
    109e:	ff 92       	push	r15
    10a0:	0f 93       	push	r16
    10a2:	1f 93       	push	r17
    10a4:	cf 93       	push	r28
    10a6:	df 93       	push	r29
    10a8:	00 d0       	rcall	.+0      	; 0x10aa <_ZN3GPS11setPeriodicEN4NMEA3CMDEh+0x16>
    10aa:	00 d0       	rcall	.+0      	; 0x10ac <_ZN3GPS11setPeriodicEN4NMEA3CMDEh+0x18>
    10ac:	cd b7       	in	r28, 0x3d	; 61
    10ae:	de b7       	in	r29, 0x3e	; 62
    10b0:	6c 01       	movw	r12, r24
    10b2:	a6 2e       	mov	r10, r22
    10b4:	4e 83       	std	Y+6, r20	; 0x06
    10b6:	1d 82       	std	Y+5, r1	; 0x05
    10b8:	2d 81       	ldd	r18, Y+5	; 0x05
    10ba:	8c 01       	movw	r16, r24
    10bc:	0d 5a       	subi	r16, 0xAD	; 173
    10be:	1f 4f       	sbci	r17, 0xFF	; 255
    10c0:	49 e0       	ldi	r20, 0x09	; 9
    10c2:	50 e0       	ldi	r21, 0x00	; 0
    10c4:	61 e3       	ldi	r22, 0x31	; 49
    10c6:	70 e2       	ldi	r23, 0x20	; 32
    10c8:	c8 01       	movw	r24, r16
    10ca:	bd d7       	rcall	.+3962   	; 0x2046 <_ZN10UartDriver10sendStringEPKcih>
    10cc:	8d 83       	std	Y+5, r24	; 0x05
    10ce:	bd 80       	ldd	r11, Y+5	; 0x05
    10d0:	ce 01       	movw	r24, r28
    10d2:	01 96       	adiw	r24, 0x01	; 1
    10d4:	7c 01       	movw	r14, r24
    10d6:	ac 01       	movw	r20, r24
    10d8:	6a 2d       	mov	r22, r10
    10da:	c6 01       	movw	r24, r12
    10dc:	ad df       	rcall	.-166    	; 0x1038 <_ZN3GPS11cmdToStringEN4NMEA3CMDEPc>
    10de:	2b 2d       	mov	r18, r11
    10e0:	42 e0       	ldi	r20, 0x02	; 2
    10e2:	50 e0       	ldi	r21, 0x00	; 0
    10e4:	bc 01       	movw	r22, r24
    10e6:	c8 01       	movw	r24, r16
    10e8:	ae d7       	rcall	.+3932   	; 0x2046 <_ZN10UartDriver10sendStringEPKcih>
    10ea:	8d 83       	std	Y+5, r24	; 0x05
    10ec:	2d 81       	ldd	r18, Y+5	; 0x05
    10ee:	44 e0       	ldi	r20, 0x04	; 4
    10f0:	50 e0       	ldi	r21, 0x00	; 0
    10f2:	6b e3       	ldi	r22, 0x3B	; 59
    10f4:	70 e2       	ldi	r23, 0x20	; 32
    10f6:	c8 01       	movw	r24, r16
    10f8:	a6 d7       	rcall	.+3916   	; 0x2046 <_ZN10UartDriver10sendStringEPKcih>
    10fa:	8d 83       	std	Y+5, r24	; 0x05
    10fc:	8e 81       	ldd	r24, Y+6	; 0x06
    10fe:	1f 92       	push	r1
    1100:	8f 93       	push	r24
    1102:	80 e4       	ldi	r24, 0x40	; 64
    1104:	90 e2       	ldi	r25, 0x20	; 32
    1106:	9f 93       	push	r25
    1108:	8f 93       	push	r24
    110a:	ff 92       	push	r15
    110c:	ef 92       	push	r14
    110e:	0e 94 9d 12 	call	0x253a	; 0x253a <sprintf>
    1112:	2d 81       	ldd	r18, Y+5	; 0x05
    1114:	43 e0       	ldi	r20, 0x03	; 3
    1116:	50 e0       	ldi	r21, 0x00	; 0
    1118:	b7 01       	movw	r22, r14
    111a:	c8 01       	movw	r24, r16
    111c:	94 d7       	rcall	.+3880   	; 0x2046 <_ZN10UartDriver10sendStringEPKcih>
    111e:	8d 83       	std	Y+5, r24	; 0x05
    1120:	2d 81       	ldd	r18, Y+5	; 0x05
    1122:	44 e0       	ldi	r20, 0x04	; 4
    1124:	50 e0       	ldi	r21, 0x00	; 0
    1126:	65 e4       	ldi	r22, 0x45	; 69
    1128:	70 e2       	ldi	r23, 0x20	; 32
    112a:	c8 01       	movw	r24, r16
    112c:	8c d7       	rcall	.+3864   	; 0x2046 <_ZN10UartDriver10sendStringEPKcih>
    112e:	8d 83       	std	Y+5, r24	; 0x05
    1130:	dd 80       	ldd	r13, Y+5	; 0x05
    1132:	8d 81       	ldd	r24, Y+5	; 0x05
    1134:	40 e1       	ldi	r20, 0x10	; 16
    1136:	b7 01       	movw	r22, r14
    1138:	90 e0       	ldi	r25, 0x00	; 0
    113a:	0e 94 7a 12 	call	0x24f4	; 0x24f4 <__itoa_ncheck>
    113e:	2d 2d       	mov	r18, r13
    1140:	42 e0       	ldi	r20, 0x02	; 2
    1142:	50 e0       	ldi	r21, 0x00	; 0
    1144:	bc 01       	movw	r22, r24
    1146:	c8 01       	movw	r24, r16
    1148:	7e d7       	rcall	.+3836   	; 0x2046 <_ZN10UartDriver10sendStringEPKcih>
    114a:	2d 81       	ldd	r18, Y+5	; 0x05
    114c:	42 e0       	ldi	r20, 0x02	; 2
    114e:	50 e0       	ldi	r21, 0x00	; 0
    1150:	67 e5       	ldi	r22, 0x57	; 87
    1152:	70 e2       	ldi	r23, 0x20	; 32
    1154:	c8 01       	movw	r24, r16
    1156:	77 d7       	rcall	.+3822   	; 0x2046 <_ZN10UartDriver10sendStringEPKcih>
    1158:	0f 90       	pop	r0
    115a:	0f 90       	pop	r0
    115c:	0f 90       	pop	r0
    115e:	0f 90       	pop	r0
    1160:	0f 90       	pop	r0
    1162:	0f 90       	pop	r0
    1164:	26 96       	adiw	r28, 0x06	; 6
    1166:	cd bf       	out	0x3d, r28	; 61
    1168:	de bf       	out	0x3e, r29	; 62
    116a:	df 91       	pop	r29
    116c:	cf 91       	pop	r28
    116e:	1f 91       	pop	r17
    1170:	0f 91       	pop	r16
    1172:	ff 90       	pop	r15
    1174:	ef 90       	pop	r14
    1176:	df 90       	pop	r13
    1178:	cf 90       	pop	r12
    117a:	bf 90       	pop	r11
    117c:	af 90       	pop	r10
    117e:	08 95       	ret

00001180 <_ZN3GPS4initEv>:
    1180:	cf 93       	push	r28
    1182:	df 93       	push	r29
    1184:	ec 01       	movw	r28, r24
    1186:	20 e0       	ldi	r18, 0x00	; 0
    1188:	4f e0       	ldi	r20, 0x0F	; 15
    118a:	50 e0       	ldi	r21, 0x00	; 0
    118c:	6a e4       	ldi	r22, 0x4A	; 74
    118e:	70 e2       	ldi	r23, 0x20	; 32
    1190:	8d 5a       	subi	r24, 0xAD	; 173
    1192:	9f 4f       	sbci	r25, 0xFF	; 255
    1194:	58 d7       	rcall	.+3760   	; 0x2046 <_ZN10UartDriver10sendStringEPKcih>
    1196:	2f ef       	ldi	r18, 0xFF	; 255
    1198:	83 ec       	ldi	r24, 0xC3	; 195
    119a:	99 e0       	ldi	r25, 0x09	; 9
    119c:	21 50       	subi	r18, 0x01	; 1
    119e:	80 40       	sbci	r24, 0x00	; 0
    11a0:	90 40       	sbci	r25, 0x00	; 0
    11a2:	e1 f7       	brne	.-8      	; 0x119c <_ZN3GPS4initEv+0x1c>
    11a4:	00 c0       	rjmp	.+0      	; 0x11a6 <_ZN3GPS4initEv+0x26>
    11a6:	00 00       	nop
    11a8:	40 e0       	ldi	r20, 0x00	; 0
    11aa:	60 e0       	ldi	r22, 0x00	; 0
    11ac:	ce 01       	movw	r24, r28
    11ae:	72 df       	rcall	.-284    	; 0x1094 <_ZN3GPS11setPeriodicEN4NMEA3CMDEh>
    11b0:	2f ef       	ldi	r18, 0xFF	; 255
    11b2:	83 ec       	ldi	r24, 0xC3	; 195
    11b4:	99 e0       	ldi	r25, 0x09	; 9
    11b6:	21 50       	subi	r18, 0x01	; 1
    11b8:	80 40       	sbci	r24, 0x00	; 0
    11ba:	90 40       	sbci	r25, 0x00	; 0
    11bc:	e1 f7       	brne	.-8      	; 0x11b6 <_ZN3GPS4initEv+0x36>
    11be:	00 c0       	rjmp	.+0      	; 0x11c0 <_ZN3GPS4initEv+0x40>
    11c0:	00 00       	nop
    11c2:	40 e0       	ldi	r20, 0x00	; 0
    11c4:	65 e0       	ldi	r22, 0x05	; 5
    11c6:	ce 01       	movw	r24, r28
    11c8:	65 df       	rcall	.-310    	; 0x1094 <_ZN3GPS11setPeriodicEN4NMEA3CMDEh>
    11ca:	2f ef       	ldi	r18, 0xFF	; 255
    11cc:	83 ec       	ldi	r24, 0xC3	; 195
    11ce:	99 e0       	ldi	r25, 0x09	; 9
    11d0:	21 50       	subi	r18, 0x01	; 1
    11d2:	80 40       	sbci	r24, 0x00	; 0
    11d4:	90 40       	sbci	r25, 0x00	; 0
    11d6:	e1 f7       	brne	.-8      	; 0x11d0 <_ZN3GPS4initEv+0x50>
    11d8:	00 c0       	rjmp	.+0      	; 0x11da <_ZN3GPS4initEv+0x5a>
    11da:	00 00       	nop
    11dc:	40 e0       	ldi	r20, 0x00	; 0
    11de:	62 e0       	ldi	r22, 0x02	; 2
    11e0:	ce 01       	movw	r24, r28
    11e2:	58 df       	rcall	.-336    	; 0x1094 <_ZN3GPS11setPeriodicEN4NMEA3CMDEh>
    11e4:	2f ef       	ldi	r18, 0xFF	; 255
    11e6:	83 ec       	ldi	r24, 0xC3	; 195
    11e8:	99 e0       	ldi	r25, 0x09	; 9
    11ea:	21 50       	subi	r18, 0x01	; 1
    11ec:	80 40       	sbci	r24, 0x00	; 0
    11ee:	90 40       	sbci	r25, 0x00	; 0
    11f0:	e1 f7       	brne	.-8      	; 0x11ea <_ZN3GPS4initEv+0x6a>
    11f2:	00 c0       	rjmp	.+0      	; 0x11f4 <_ZN3GPS4initEv+0x74>
    11f4:	00 00       	nop
    11f6:	40 e0       	ldi	r20, 0x00	; 0
    11f8:	61 e0       	ldi	r22, 0x01	; 1
    11fa:	ce 01       	movw	r24, r28
    11fc:	4b df       	rcall	.-362    	; 0x1094 <_ZN3GPS11setPeriodicEN4NMEA3CMDEh>
    11fe:	2f ef       	ldi	r18, 0xFF	; 255
    1200:	83 ec       	ldi	r24, 0xC3	; 195
    1202:	99 e0       	ldi	r25, 0x09	; 9
    1204:	21 50       	subi	r18, 0x01	; 1
    1206:	80 40       	sbci	r24, 0x00	; 0
    1208:	90 40       	sbci	r25, 0x00	; 0
    120a:	e1 f7       	brne	.-8      	; 0x1204 <_ZN3GPS4initEv+0x84>
    120c:	00 c0       	rjmp	.+0      	; 0x120e <_ZN3GPS4initEv+0x8e>
    120e:	00 00       	nop
    1210:	42 e0       	ldi	r20, 0x02	; 2
    1212:	63 e0       	ldi	r22, 0x03	; 3
    1214:	ce 01       	movw	r24, r28
    1216:	3e df       	rcall	.-388    	; 0x1094 <_ZN3GPS11setPeriodicEN4NMEA3CMDEh>
    1218:	2f ef       	ldi	r18, 0xFF	; 255
    121a:	83 ec       	ldi	r24, 0xC3	; 195
    121c:	99 e0       	ldi	r25, 0x09	; 9
    121e:	21 50       	subi	r18, 0x01	; 1
    1220:	80 40       	sbci	r24, 0x00	; 0
    1222:	90 40       	sbci	r25, 0x00	; 0
    1224:	e1 f7       	brne	.-8      	; 0x121e <_ZN3GPS4initEv+0x9e>
    1226:	00 c0       	rjmp	.+0      	; 0x1228 <_ZN3GPS4initEv+0xa8>
    1228:	00 00       	nop
    122a:	40 e0       	ldi	r20, 0x00	; 0
    122c:	64 e0       	ldi	r22, 0x04	; 4
    122e:	ce 01       	movw	r24, r28
    1230:	31 df       	rcall	.-414    	; 0x1094 <_ZN3GPS11setPeriodicEN4NMEA3CMDEh>
    1232:	2f ef       	ldi	r18, 0xFF	; 255
    1234:	83 ec       	ldi	r24, 0xC3	; 195
    1236:	99 e0       	ldi	r25, 0x09	; 9
    1238:	21 50       	subi	r18, 0x01	; 1
    123a:	80 40       	sbci	r24, 0x00	; 0
    123c:	90 40       	sbci	r25, 0x00	; 0
    123e:	e1 f7       	brne	.-8      	; 0x1238 <_ZN3GPS4initEv+0xb8>
    1240:	00 c0       	rjmp	.+0      	; 0x1242 <_ZN3GPS4initEv+0xc2>
    1242:	00 00       	nop
    1244:	40 e0       	ldi	r20, 0x00	; 0
    1246:	66 e0       	ldi	r22, 0x06	; 6
    1248:	ce 01       	movw	r24, r28
    124a:	24 df       	rcall	.-440    	; 0x1094 <_ZN3GPS11setPeriodicEN4NMEA3CMDEh>
    124c:	df 91       	pop	r29
    124e:	cf 91       	pop	r28
    1250:	08 95       	ret

00001252 <_ZN3GPS13interceptByteEv>:
    1252:	ff 92       	push	r15
    1254:	0f 93       	push	r16
    1256:	1f 93       	push	r17
    1258:	cf 93       	push	r28
    125a:	df 93       	push	r29
    125c:	8c 01       	movw	r16, r24
    125e:	ec 01       	movw	r28, r24
    1260:	cd 5a       	subi	r28, 0xAD	; 173
    1262:	df 4f       	sbci	r29, 0xFF	; 255
    1264:	ce 01       	movw	r24, r28
    1266:	eb d6       	rcall	.+3542   	; 0x203e <_ZN10UartDriver11getUARTPortEv>
    1268:	fc 01       	movw	r30, r24
    126a:	f0 80       	ld	r15, Z
    126c:	6f 2d       	mov	r22, r15
    126e:	ce 01       	movw	r24, r28
    1270:	d6 d6       	rcall	.+3500   	; 0x201e <_ZN10UartDriver7rcvByteEc>
    1272:	fa e0       	ldi	r31, 0x0A	; 10
    1274:	ff 12       	cpse	r15, r31
    1276:	06 c0       	rjmp	.+12     	; 0x1284 <_ZN3GPS13interceptByteEv+0x32>
    1278:	f8 01       	movw	r30, r16
    127a:	ee 5a       	subi	r30, 0xAE	; 174
    127c:	ff 4f       	sbci	r31, 0xFF	; 255
    127e:	80 81       	ld	r24, Z
    1280:	8f 5f       	subi	r24, 0xFF	; 255
    1282:	80 83       	st	Z, r24
    1284:	df 91       	pop	r29
    1286:	cf 91       	pop	r28
    1288:	1f 91       	pop	r17
    128a:	0f 91       	pop	r16
    128c:	ff 90       	pop	r15
    128e:	08 95       	ret

00001290 <_ZN3GPS15updateRegistersEv>:
    1290:	3f 92       	push	r3
    1292:	4f 92       	push	r4
    1294:	5f 92       	push	r5
    1296:	6f 92       	push	r6
    1298:	7f 92       	push	r7
    129a:	8f 92       	push	r8
    129c:	9f 92       	push	r9
    129e:	af 92       	push	r10
    12a0:	bf 92       	push	r11
    12a2:	cf 92       	push	r12
    12a4:	df 92       	push	r13
    12a6:	ef 92       	push	r14
    12a8:	ff 92       	push	r15
    12aa:	0f 93       	push	r16
    12ac:	1f 93       	push	r17
    12ae:	cf 93       	push	r28
    12b0:	df 93       	push	r29
    12b2:	4c 01       	movw	r8, r24
    12b4:	fc 01       	movw	r30, r24
    12b6:	ee 5a       	subi	r30, 0xAE	; 174
    12b8:	ff 4f       	sbci	r31, 0xFF	; 255
    12ba:	80 81       	ld	r24, Z
    12bc:	88 23       	and	r24, r24
    12be:	09 f4       	brne	.+2      	; 0x12c2 <_ZN3GPS15updateRegistersEv+0x32>
    12c0:	75 c0       	rjmp	.+234    	; 0x13ac <_ZN3GPS15updateRegistersEv+0x11c>
    12c2:	82 30       	cpi	r24, 0x02	; 2
    12c4:	08 f4       	brcc	.+2      	; 0x12c8 <_ZN3GPS15updateRegistersEv+0x38>
    12c6:	65 c0       	rjmp	.+202    	; 0x1392 <_ZN3GPS15updateRegistersEv+0x102>
    12c8:	e4 01       	movw	r28, r8
    12ca:	cd 5a       	subi	r28, 0xAD	; 173
    12cc:	df 4f       	sbci	r29, 0xFF	; 255
    12ce:	8f 01       	movw	r16, r30
    12d0:	ce 01       	movw	r24, r28
    12d2:	a9 d6       	rcall	.+3410   	; 0x2026 <_ZN10UartDriver9rxDequeueEv>
    12d4:	8a 30       	cpi	r24, 0x0A	; 10
    12d6:	e1 f7       	brne	.-8      	; 0x12d0 <_ZN3GPS15updateRegistersEv+0x40>
    12d8:	f8 94       	cli
    12da:	f8 01       	movw	r30, r16
    12dc:	80 81       	ld	r24, Z
    12de:	81 50       	subi	r24, 0x01	; 1
    12e0:	80 83       	st	Z, r24
    12e2:	78 94       	sei
    12e4:	82 30       	cpi	r24, 0x02	; 2
    12e6:	a0 f7       	brcc	.-24     	; 0x12d0 <_ZN3GPS15updateRegistersEv+0x40>
    12e8:	54 c0       	rjmp	.+168    	; 0x1392 <_ZN3GPS15updateRegistersEv+0x102>
    12ea:	87 01       	movw	r16, r14
    12ec:	0a 19       	sub	r16, r10
    12ee:	1b 09       	sbc	r17, r11
    12f0:	f7 01       	movw	r30, r14
    12f2:	51 90       	ld	r5, Z+
    12f4:	7f 01       	movw	r14, r30
    12f6:	c6 01       	movw	r24, r12
    12f8:	02 c0       	rjmp	.+4      	; 0x12fe <_ZN3GPS15updateRegistersEv+0x6e>
    12fa:	88 0f       	add	r24, r24
    12fc:	99 1f       	adc	r25, r25
    12fe:	0a 95       	dec	r16
    1300:	e2 f7       	brpl	.-8      	; 0x12fa <_ZN3GPS15updateRegistersEv+0x6a>
    1302:	8c 01       	movw	r16, r24
    1304:	14 c0       	rjmp	.+40     	; 0x132e <_ZN3GPS15updateRegistersEv+0x9e>
    1306:	25 2d       	mov	r18, r5
    1308:	30 e0       	ldi	r19, 0x00	; 0
    130a:	f4 01       	movw	r30, r8
    130c:	e2 0f       	add	r30, r18
    130e:	f3 1f       	adc	r31, r19
    1310:	97 89       	ldd	r25, Z+23	; 0x17
    1312:	98 17       	cp	r25, r24
    1314:	39 f0       	breq	.+14     	; 0x1324 <_ZN3GPS15updateRegistersEv+0x94>
    1316:	f4 01       	movw	r30, r8
    1318:	45 89       	ldd	r20, Z+21	; 0x15
    131a:	56 89       	ldd	r21, Z+22	; 0x16
    131c:	40 2b       	or	r20, r16
    131e:	51 2b       	or	r21, r17
    1320:	45 8b       	std	Z+21, r20	; 0x15
    1322:	56 8b       	std	Z+22, r21	; 0x16
    1324:	53 94       	inc	r5
    1326:	f4 01       	movw	r30, r8
    1328:	e2 0f       	add	r30, r18
    132a:	f3 1f       	adc	r31, r19
    132c:	87 8b       	std	Z+23, r24	; 0x17
    132e:	4c 2e       	mov	r4, r28
    1330:	3d 2e       	mov	r3, r29
    1332:	ce 01       	movw	r24, r28
    1334:	78 d6       	rcall	.+3312   	; 0x2026 <_ZN10UartDriver9rxDequeueEv>
    1336:	8c 32       	cpi	r24, 0x2C	; 44
    1338:	31 f7       	brne	.-52     	; 0x1306 <_ZN3GPS15updateRegistersEv+0x76>
    133a:	f7 01       	movw	r30, r14
    133c:	40 81       	ld	r20, Z
    133e:	54 16       	cp	r5, r20
    1340:	b0 f4       	brcc	.+44     	; 0x136e <_ZN3GPS15updateRegistersEv+0xde>
    1342:	85 2d       	mov	r24, r5
    1344:	90 e0       	ldi	r25, 0x00	; 0
    1346:	f4 01       	movw	r30, r8
    1348:	e8 0f       	add	r30, r24
    134a:	f9 1f       	adc	r31, r25
    134c:	27 89       	ldd	r18, Z+23	; 0x17
    134e:	22 23       	and	r18, r18
    1350:	39 f0       	breq	.+14     	; 0x1360 <_ZN3GPS15updateRegistersEv+0xd0>
    1352:	f4 01       	movw	r30, r8
    1354:	25 89       	ldd	r18, Z+21	; 0x15
    1356:	36 89       	ldd	r19, Z+22	; 0x16
    1358:	20 2b       	or	r18, r16
    135a:	31 2b       	or	r19, r17
    135c:	25 8b       	std	Z+21, r18	; 0x15
    135e:	36 8b       	std	Z+22, r19	; 0x16
    1360:	53 94       	inc	r5
    1362:	f4 01       	movw	r30, r8
    1364:	e8 0f       	add	r30, r24
    1366:	f9 1f       	adc	r31, r25
    1368:	17 8a       	std	Z+23, r1	; 0x17
    136a:	54 16       	cp	r5, r20
    136c:	50 f3       	brcs	.-44     	; 0x1342 <_ZN3GPS15updateRegistersEv+0xb2>
    136e:	e6 14       	cp	r14, r6
    1370:	f7 04       	cpc	r15, r7
    1372:	09 f0       	breq	.+2      	; 0x1376 <_ZN3GPS15updateRegistersEv+0xe6>
    1374:	ba cf       	rjmp	.-140    	; 0x12ea <_ZN3GPS15updateRegistersEv+0x5a>
    1376:	84 2d       	mov	r24, r4
    1378:	93 2d       	mov	r25, r3
    137a:	55 d6       	rcall	.+3242   	; 0x2026 <_ZN10UartDriver9rxDequeueEv>
    137c:	8a 30       	cpi	r24, 0x0A	; 10
    137e:	d9 f7       	brne	.-10     	; 0x1376 <_ZN3GPS15updateRegistersEv+0xe6>
    1380:	f8 94       	cli
    1382:	f4 01       	movw	r30, r8
    1384:	ee 5a       	subi	r30, 0xAE	; 174
    1386:	ff 4f       	sbci	r31, 0xFF	; 255
    1388:	80 81       	ld	r24, Z
    138a:	81 50       	subi	r24, 0x01	; 1
    138c:	80 83       	st	Z, r24
    138e:	78 94       	sei
    1390:	0d c0       	rjmp	.+26     	; 0x13ac <_ZN3GPS15updateRegistersEv+0x11c>
    1392:	54 01       	movw	r10, r8
    1394:	34 01       	movw	r6, r8
    1396:	fa e0       	ldi	r31, 0x0A	; 10
    1398:	6f 0e       	add	r6, r31
    139a:	71 1c       	adc	r7, r1
    139c:	74 01       	movw	r14, r8
    139e:	cc 24       	eor	r12, r12
    13a0:	c3 94       	inc	r12
    13a2:	d1 2c       	mov	r13, r1
    13a4:	e4 01       	movw	r28, r8
    13a6:	cd 5a       	subi	r28, 0xAD	; 173
    13a8:	df 4f       	sbci	r29, 0xFF	; 255
    13aa:	9f cf       	rjmp	.-194    	; 0x12ea <_ZN3GPS15updateRegistersEv+0x5a>
    13ac:	df 91       	pop	r29
    13ae:	cf 91       	pop	r28
    13b0:	1f 91       	pop	r17
    13b2:	0f 91       	pop	r16
    13b4:	ff 90       	pop	r15
    13b6:	ef 90       	pop	r14
    13b8:	df 90       	pop	r13
    13ba:	cf 90       	pop	r12
    13bc:	bf 90       	pop	r11
    13be:	af 90       	pop	r10
    13c0:	9f 90       	pop	r9
    13c2:	8f 90       	pop	r8
    13c4:	7f 90       	pop	r7
    13c6:	6f 90       	pop	r6
    13c8:	5f 90       	pop	r5
    13ca:	4f 90       	pop	r4
    13cc:	3f 90       	pop	r3
    13ce:	08 95       	ret

000013d0 <_ZN3GPS5vomitEP10LCD_Driver>:

void GPS::vomit(LCD_Driver * lcd) {
    13d0:	ff 92       	push	r15
    13d2:	0f 93       	push	r16
    13d4:	1f 93       	push	r17
    13d6:	cf 93       	push	r28
    13d8:	df 93       	push	r29
    13da:	eb 01       	movw	r28, r22
	if (!status_reg) return;
    13dc:	fc 01       	movw	r30, r24
    13de:	25 89       	ldd	r18, Z+21	; 0x15
    13e0:	36 89       	ldd	r19, Z+22	; 0x16
    13e2:	23 2b       	or	r18, r19
    13e4:	e1 f0       	breq	.+56     	; 0x141e <_ZN3GPS5vomitEP10LCD_Driver+0x4e>
	status_reg = 0;
    13e6:	15 8a       	std	Z+21, r1	; 0x15
    13e8:	16 8a       	std	Z+22, r1	; 0x16
    13ea:	8c 01       	movw	r16, r24
    13ec:	09 5e       	subi	r16, 0xE9	; 233
    13ee:	1f 4f       	sbci	r17, 0xFF	; 255
	for (uint8_t i = 0; i<59; i++) {
    13f0:	f1 2c       	mov	r15, r1
		lcd->write(buffer[i]);
    13f2:	f8 01       	movw	r30, r16
    13f4:	61 91       	ld	r22, Z+
    13f6:	8f 01       	movw	r16, r30
    13f8:	e8 81       	ld	r30, Y
    13fa:	f9 81       	ldd	r31, Y+1	; 0x01
    13fc:	00 88       	ldd	r0, Z+16	; 0x10
    13fe:	f1 89       	ldd	r31, Z+17	; 0x11
    1400:	e0 2d       	mov	r30, r0
    1402:	ce 01       	movw	r24, r28
    1404:	19 95       	eicall
}

void GPS::vomit(LCD_Driver * lcd) {
	if (!status_reg) return;
	status_reg = 0;
	for (uint8_t i = 0; i<59; i++) {
    1406:	f3 94       	inc	r15
    1408:	fb e3       	ldi	r31, 0x3B	; 59
    140a:	ff 12       	cpse	r15, r31
    140c:	f2 cf       	rjmp	.-28     	; 0x13f2 <_ZN3GPS5vomitEP10LCD_Driver+0x22>
		lcd->write(buffer[i]);
	}
	lcd->write('\n');
    140e:	e8 81       	ld	r30, Y
    1410:	f9 81       	ldd	r31, Y+1	; 0x01
    1412:	00 88       	ldd	r0, Z+16	; 0x10
    1414:	f1 89       	ldd	r31, Z+17	; 0x11
    1416:	e0 2d       	mov	r30, r0
    1418:	6a e0       	ldi	r22, 0x0A	; 10
    141a:	ce 01       	movw	r24, r28
    141c:	19 95       	eicall

}
    141e:	df 91       	pop	r29
    1420:	cf 91       	pop	r28
    1422:	1f 91       	pop	r17
    1424:	0f 91       	pop	r16
    1426:	ff 90       	pop	r15
    1428:	08 95       	ret

0000142a <_ZN3GPS9handleDREEv>:

 void GPS::handleDRE() {
    142a:	0f 93       	push	r16
    142c:	1f 93       	push	r17
    142e:	cf 93       	push	r28
    1430:	df 93       	push	r29
	 if (!uart.txIsEmpty()) {
    1432:	ec 01       	movw	r28, r24
    1434:	cd 5a       	subi	r28, 0xAD	; 173
    1436:	df 4f       	sbci	r29, 0xFF	; 255
    1438:	ce 01       	movw	r24, r28
    143a:	f9 d5       	rcall	.+3058   	; 0x202e <_ZN10UartDriver9txIsEmptyEv>
    143c:	81 11       	cpse	r24, r1
    143e:	08 c0       	rjmp	.+16     	; 0x1450 <_ZN3GPS9handleDREEv+0x26>
		 uart.getUARTPort()->DATA = uart.txDequeue();
    1440:	ce 01       	movw	r24, r28
    1442:	fd d5       	rcall	.+3066   	; 0x203e <_ZN10UartDriver11getUARTPortEv>
    1444:	8c 01       	movw	r16, r24
    1446:	ce 01       	movw	r24, r28
    1448:	f6 d5       	rcall	.+3052   	; 0x2036 <_ZN10UartDriver9txDequeueEv>
    144a:	f8 01       	movw	r30, r16
    144c:	80 83       	st	Z, r24
    144e:	06 c0       	rjmp	.+12     	; 0x145c <_ZN3GPS9handleDREEv+0x32>
	 } else {
		 uart.getUARTPort()->CTRLA &= ~(0x03); //Disable DREint
    1450:	ce 01       	movw	r24, r28
    1452:	f5 d5       	rcall	.+3050   	; 0x203e <_ZN10UartDriver11getUARTPortEv>
    1454:	fc 01       	movw	r30, r24
    1456:	23 81       	ldd	r18, Z+3	; 0x03
    1458:	2c 7f       	andi	r18, 0xFC	; 252
    145a:	23 83       	std	Z+3, r18	; 0x03
	 }
    145c:	df 91       	pop	r29
    145e:	cf 91       	pop	r28
    1460:	1f 91       	pop	r17
    1462:	0f 91       	pop	r16
    1464:	08 95       	ret

00001466 <_ZN10LCD_Driver4initEv>:
		asm("NOP");
		_delay_ms(10);
		asm("NOP");
	}
	LCD_DATA_PORT.DIR= 0xFF;
}
    1466:	dc 01       	movw	r26, r24
    1468:	e0 e6       	ldi	r30, 0x60	; 96
    146a:	f6 e0       	ldi	r31, 0x06	; 6
    146c:	81 81       	ldd	r24, Z+1	; 0x01
    146e:	81 60       	ori	r24, 0x01	; 1
    1470:	81 83       	std	Z+1, r24	; 0x01
    1472:	84 81       	ldd	r24, Z+4	; 0x04
    1474:	81 60       	ori	r24, 0x01	; 1
    1476:	84 83       	std	Z+4, r24	; 0x04
    1478:	8f ef       	ldi	r24, 0xFF	; 255
    147a:	e0 e4       	ldi	r30, 0x40	; 64
    147c:	f6 e0       	ldi	r31, 0x06	; 6
    147e:	81 83       	std	Z+1, r24	; 0x01
    1480:	e0 e0       	ldi	r30, 0x00	; 0
    1482:	f6 e0       	ldi	r31, 0x06	; 6
    1484:	81 81       	ldd	r24, Z+1	; 0x01
    1486:	88 60       	ori	r24, 0x08	; 8
    1488:	81 83       	std	Z+1, r24	; 0x01
    148a:	81 81       	ldd	r24, Z+1	; 0x01
    148c:	84 60       	ori	r24, 0x04	; 4
    148e:	81 83       	std	Z+1, r24	; 0x01
    1490:	81 81       	ldd	r24, Z+1	; 0x01
    1492:	82 60       	ori	r24, 0x02	; 2
    1494:	81 83       	std	Z+1, r24	; 0x01
    1496:	81 81       	ldd	r24, Z+1	; 0x01
    1498:	81 60       	ori	r24, 0x01	; 1
    149a:	81 83       	std	Z+1, r24	; 0x01
    149c:	84 81       	ldd	r24, Z+4	; 0x04
    149e:	81 60       	ori	r24, 0x01	; 1
    14a0:	84 83       	std	Z+4, r24	; 0x04
    14a2:	84 81       	ldd	r24, Z+4	; 0x04
    14a4:	84 60       	ori	r24, 0x04	; 4
    14a6:	84 83       	std	Z+4, r24	; 0x04
    14a8:	84 81       	ldd	r24, Z+4	; 0x04
    14aa:	88 60       	ori	r24, 0x08	; 8
    14ac:	84 83       	std	Z+4, r24	; 0x04
    14ae:	84 81       	ldd	r24, Z+4	; 0x04
    14b0:	82 60       	ori	r24, 0x02	; 2
    14b2:	84 83       	std	Z+4, r24	; 0x04
    14b4:	55 96       	adiw	r26, 0x15	; 21
    14b6:	1c 92       	st	X, r1
    14b8:	55 97       	sbiw	r26, 0x15	; 21
    14ba:	1a 96       	adiw	r26, 0x0a	; 10
    14bc:	1d 92       	st	X+, r1
    14be:	1c 92       	st	X, r1
    14c0:	1b 97       	sbiw	r26, 0x0b	; 11
    14c2:	1c 96       	adiw	r26, 0x0c	; 12
    14c4:	1d 92       	st	X+, r1
    14c6:	1c 92       	st	X, r1
    14c8:	1d 97       	sbiw	r26, 0x0d	; 13
    14ca:	81 e0       	ldi	r24, 0x01	; 1
    14cc:	54 96       	adiw	r26, 0x14	; 20
    14ce:	8c 93       	st	X, r24
    14d0:	54 97       	sbiw	r26, 0x14	; 20
    14d2:	50 96       	adiw	r26, 0x10	; 16
    14d4:	1d 92       	st	X+, r1
    14d6:	1c 92       	st	X, r1
    14d8:	51 97       	sbiw	r26, 0x11	; 17
    14da:	80 e4       	ldi	r24, 0x40	; 64
    14dc:	91 e0       	ldi	r25, 0x01	; 1
    14de:	16 96       	adiw	r26, 0x06	; 6
    14e0:	8d 93       	st	X+, r24
    14e2:	9c 93       	st	X, r25
    14e4:	17 97       	sbiw	r26, 0x07	; 7
    14e6:	80 ee       	ldi	r24, 0xE0	; 224
    14e8:	91 e0       	ldi	r25, 0x01	; 1
    14ea:	18 96       	adiw	r26, 0x08	; 8
    14ec:	8d 93       	st	X+, r24
    14ee:	9c 93       	st	X, r25
    14f0:	19 97       	sbiw	r26, 0x09	; 9
    14f2:	08 95       	ret

000014f4 <_ZN10LCD_DriverC1Ev>:
    14f4:	cf 93       	push	r28
    14f6:	df 93       	push	r29
    14f8:	ec 01       	movw	r28, r24
    14fa:	40 ee       	ldi	r20, 0xE0	; 224
    14fc:	51 e0       	ldi	r21, 0x01	; 1
    14fe:	60 e4       	ldi	r22, 0x40	; 64
    1500:	71 e0       	ldi	r23, 0x01	; 1
    1502:	d7 da       	rcall	.-2642   	; 0xab2 <_ZN12Adafruit_GFXC1Eii>
    1504:	84 ea       	ldi	r24, 0xA4	; 164
    1506:	90 e2       	ldi	r25, 0x20	; 32
    1508:	88 83       	st	Y, r24
    150a:	99 83       	std	Y+1, r25	; 0x01
    150c:	ce 01       	movw	r24, r28
    150e:	ab df       	rcall	.-170    	; 0x1466 <_ZN10LCD_Driver4initEv>
    1510:	df 91       	pop	r29
    1512:	cf 91       	pop	r28
    1514:	08 95       	ret

00001516 <_ZN10LCD_Driver9writeDataEh>:
    1516:	e0 e4       	ldi	r30, 0x40	; 64
    1518:	f6 e0       	ldi	r31, 0x06	; 6
    151a:	64 83       	std	Z+4, r22	; 0x04
    151c:	e0 e0       	ldi	r30, 0x00	; 0
    151e:	f6 e0       	ldi	r31, 0x06	; 6
    1520:	84 81       	ldd	r24, Z+4	; 0x04
    1522:	8b 7f       	andi	r24, 0xFB	; 251
    1524:	84 83       	std	Z+4, r24	; 0x04
    1526:	84 81       	ldd	r24, Z+4	; 0x04
    1528:	84 60       	ori	r24, 0x04	; 4
    152a:	84 83       	std	Z+4, r24	; 0x04
    152c:	08 95       	ret

0000152e <_ZN10LCD_Driver5resetEv>:
    152e:	cf 93       	push	r28
    1530:	df 93       	push	r29
    1532:	e0 e0       	ldi	r30, 0x00	; 0
    1534:	f6 e0       	ldi	r31, 0x06	; 6
    1536:	24 81       	ldd	r18, Z+4	; 0x04
    1538:	21 60       	ori	r18, 0x01	; 1
    153a:	24 83       	std	Z+4, r18	; 0x04
    153c:	24 81       	ldd	r18, Z+4	; 0x04
    153e:	24 60       	ori	r18, 0x04	; 4
    1540:	24 83       	std	Z+4, r18	; 0x04
    1542:	24 81       	ldd	r18, Z+4	; 0x04
    1544:	28 60       	ori	r18, 0x08	; 8
    1546:	24 83       	std	Z+4, r18	; 0x04
    1548:	e0 e6       	ldi	r30, 0x60	; 96
    154a:	f6 e0       	ldi	r31, 0x06	; 6
    154c:	24 81       	ldd	r18, Z+4	; 0x04
    154e:	2e 7f       	andi	r18, 0xFE	; 254
    1550:	24 83       	std	Z+4, r18	; 0x04
    1552:	e7 ee       	ldi	r30, 0xE7	; 231
    1554:	f3 e0       	ldi	r31, 0x03	; 3
    1556:	31 97       	sbiw	r30, 0x01	; 1
    1558:	f1 f7       	brne	.-4      	; 0x1556 <_ZN10LCD_Driver5resetEv+0x28>
    155a:	00 c0       	rjmp	.+0      	; 0x155c <_ZN10LCD_Driver5resetEv+0x2e>
    155c:	00 00       	nop
    155e:	e0 e6       	ldi	r30, 0x60	; 96
    1560:	f6 e0       	ldi	r31, 0x06	; 6
    1562:	24 81       	ldd	r18, Z+4	; 0x04
    1564:	21 60       	ori	r18, 0x01	; 1
    1566:	24 83       	std	Z+4, r18	; 0x04
    1568:	c0 e0       	ldi	r28, 0x00	; 0
    156a:	d6 e0       	ldi	r29, 0x06	; 6
    156c:	2c 81       	ldd	r18, Y+4	; 0x04
    156e:	2e 7f       	andi	r18, 0xFE	; 254
    1570:	2c 83       	std	Y+4, r18	; 0x04
    1572:	2c 81       	ldd	r18, Y+4	; 0x04
    1574:	2d 7f       	andi	r18, 0xFD	; 253
    1576:	2c 83       	std	Y+4, r18	; 0x04
    1578:	60 e0       	ldi	r22, 0x00	; 0
    157a:	cd df       	rcall	.-102    	; 0x1516 <_ZN10LCD_Driver9writeDataEh>
    157c:	8c 81       	ldd	r24, Y+4	; 0x04
    157e:	8b 7f       	andi	r24, 0xFB	; 251
    1580:	8c 83       	std	Y+4, r24	; 0x04
    1582:	8c 81       	ldd	r24, Y+4	; 0x04
    1584:	84 60       	ori	r24, 0x04	; 4
    1586:	8c 83       	std	Y+4, r24	; 0x04
    1588:	8c 81       	ldd	r24, Y+4	; 0x04
    158a:	8b 7f       	andi	r24, 0xFB	; 251
    158c:	8c 83       	std	Y+4, r24	; 0x04
    158e:	8c 81       	ldd	r24, Y+4	; 0x04
    1590:	84 60       	ori	r24, 0x04	; 4
    1592:	8c 83       	std	Y+4, r24	; 0x04
    1594:	8c 81       	ldd	r24, Y+4	; 0x04
    1596:	8b 7f       	andi	r24, 0xFB	; 251
    1598:	8c 83       	std	Y+4, r24	; 0x04
    159a:	8c 81       	ldd	r24, Y+4	; 0x04
    159c:	84 60       	ori	r24, 0x04	; 4
    159e:	8c 83       	std	Y+4, r24	; 0x04
    15a0:	8c 81       	ldd	r24, Y+4	; 0x04
    15a2:	81 60       	ori	r24, 0x01	; 1
    15a4:	8c 83       	std	Y+4, r24	; 0x04
    15a6:	df 91       	pop	r29
    15a8:	cf 91       	pop	r28
    15aa:	08 95       	ret

000015ac <_ZN10LCD_Driver5beginEv>:
    15ac:	ef 92       	push	r14
    15ae:	ff 92       	push	r15
    15b0:	0f 93       	push	r16
    15b2:	1f 93       	push	r17
    15b4:	cf 93       	push	r28
    15b6:	df 93       	push	r29
    15b8:	cd b7       	in	r28, 0x3d	; 61
    15ba:	de b7       	in	r29, 0x3e	; 62
    15bc:	25 97       	sbiw	r28, 0x05	; 5
    15be:	cd bf       	out	0x3d, r28	; 61
    15c0:	de bf       	out	0x3e, r29	; 62
    15c2:	8c 01       	movw	r16, r24
    15c4:	1d 82       	std	Y+5, r1	; 0x05
    15c6:	b3 df       	rcall	.-154    	; 0x152e <_ZN10LCD_Driver5resetEv>
    15c8:	2f e7       	ldi	r18, 0x7F	; 127
    15ca:	88 e3       	ldi	r24, 0x38	; 56
    15cc:	91 e0       	ldi	r25, 0x01	; 1
    15ce:	21 50       	subi	r18, 0x01	; 1
    15d0:	80 40       	sbci	r24, 0x00	; 0
    15d2:	90 40       	sbci	r25, 0x00	; 0
    15d4:	e1 f7       	brne	.-8      	; 0x15ce <_ZN10LCD_Driver5beginEv+0x22>
    15d6:	00 c0       	rjmp	.+0      	; 0x15d8 <_ZN10LCD_Driver5beginEv+0x2c>
    15d8:	00 00       	nop
    15da:	e0 e0       	ldi	r30, 0x00	; 0
    15dc:	f6 e0       	ldi	r31, 0x06	; 6
    15de:	84 81       	ldd	r24, Z+4	; 0x04
    15e0:	8e 7f       	andi	r24, 0xFE	; 254
    15e2:	84 83       	std	Z+4, r24	; 0x04
    15e4:	0f 2e       	mov	r0, r31
    15e6:	e1 2c       	mov	r14, r1
    15e8:	f6 e0       	ldi	r31, 0x06	; 6
    15ea:	ff 2e       	mov	r15, r31
    15ec:	f0 2d       	mov	r31, r0
    15ee:	49 c0       	rjmp	.+146    	; 0x1682 <_ZN10LCD_Driver5beginEv+0xd6>
    15f0:	ed 81       	ldd	r30, Y+5	; 0x05
    15f2:	81 e0       	ldi	r24, 0x01	; 1
    15f4:	8e 0f       	add	r24, r30
    15f6:	8d 83       	std	Y+5, r24	; 0x05
    15f8:	f0 e0       	ldi	r31, 0x00	; 0
    15fa:	e6 5a       	subi	r30, 0xA6	; 166
    15fc:	ff 4d       	sbci	r31, 0xDF	; 223
    15fe:	80 81       	ld	r24, Z
    1600:	8c 83       	std	Y+4, r24	; 0x04
    1602:	ed 81       	ldd	r30, Y+5	; 0x05
    1604:	81 e0       	ldi	r24, 0x01	; 1
    1606:	8e 0f       	add	r24, r30
    1608:	8d 83       	std	Y+5, r24	; 0x05
    160a:	f0 e0       	ldi	r31, 0x00	; 0
    160c:	e6 5a       	subi	r30, 0xA6	; 166
    160e:	ff 4d       	sbci	r31, 0xDF	; 223
    1610:	80 81       	ld	r24, Z
    1612:	8b 83       	std	Y+3, r24	; 0x03
    1614:	8c 81       	ldd	r24, Y+4	; 0x04
    1616:	81 11       	cpse	r24, r1
    1618:	0a c0       	rjmp	.+20     	; 0x162e <_ZN10LCD_Driver5beginEv+0x82>
    161a:	ef eb       	ldi	r30, 0xBF	; 191
    161c:	f4 ed       	ldi	r31, 0xD4	; 212
    161e:	21 e0       	ldi	r18, 0x01	; 1
    1620:	e1 50       	subi	r30, 0x01	; 1
    1622:	f0 40       	sbci	r31, 0x00	; 0
    1624:	20 40       	sbci	r18, 0x00	; 0
    1626:	e1 f7       	brne	.-8      	; 0x1620 <_ZN10LCD_Driver5beginEv+0x74>
    1628:	00 c0       	rjmp	.+0      	; 0x162a <_ZN10LCD_Driver5beginEv+0x7e>
    162a:	00 00       	nop
    162c:	2a c0       	rjmp	.+84     	; 0x1682 <_ZN10LCD_Driver5beginEv+0xd6>
    162e:	f7 01       	movw	r30, r14
    1630:	84 81       	ldd	r24, Z+4	; 0x04
    1632:	8e 7f       	andi	r24, 0xFE	; 254
    1634:	84 83       	std	Z+4, r24	; 0x04
    1636:	84 81       	ldd	r24, Z+4	; 0x04
    1638:	8d 7f       	andi	r24, 0xFD	; 253
    163a:	84 83       	std	Z+4, r24	; 0x04
    163c:	6c 81       	ldd	r22, Y+4	; 0x04
    163e:	c8 01       	movw	r24, r16
    1640:	6a df       	rcall	.-300    	; 0x1516 <_ZN10LCD_Driver9writeDataEh>
    1642:	f7 01       	movw	r30, r14
    1644:	84 81       	ldd	r24, Z+4	; 0x04
    1646:	82 60       	ori	r24, 0x02	; 2
    1648:	84 83       	std	Z+4, r24	; 0x04
    164a:	1a 82       	std	Y+2, r1	; 0x02
    164c:	9a 81       	ldd	r25, Y+2	; 0x02
    164e:	8b 81       	ldd	r24, Y+3	; 0x03
    1650:	98 17       	cp	r25, r24
    1652:	98 f4       	brcc	.+38     	; 0x167a <_ZN10LCD_Driver5beginEv+0xce>
    1654:	ed 81       	ldd	r30, Y+5	; 0x05
    1656:	81 e0       	ldi	r24, 0x01	; 1
    1658:	8e 0f       	add	r24, r30
    165a:	8d 83       	std	Y+5, r24	; 0x05
    165c:	f0 e0       	ldi	r31, 0x00	; 0
    165e:	e6 5a       	subi	r30, 0xA6	; 166
    1660:	ff 4d       	sbci	r31, 0xDF	; 223
    1662:	80 81       	ld	r24, Z
    1664:	89 83       	std	Y+1, r24	; 0x01
    1666:	69 81       	ldd	r22, Y+1	; 0x01
    1668:	c8 01       	movw	r24, r16
    166a:	55 df       	rcall	.-342    	; 0x1516 <_ZN10LCD_Driver9writeDataEh>
    166c:	8a 81       	ldd	r24, Y+2	; 0x02
    166e:	8f 5f       	subi	r24, 0xFF	; 255
    1670:	8a 83       	std	Y+2, r24	; 0x02
    1672:	9a 81       	ldd	r25, Y+2	; 0x02
    1674:	8b 81       	ldd	r24, Y+3	; 0x03
    1676:	98 17       	cp	r25, r24
    1678:	68 f3       	brcs	.-38     	; 0x1654 <_ZN10LCD_Driver5beginEv+0xa8>
    167a:	f7 01       	movw	r30, r14
    167c:	84 81       	ldd	r24, Z+4	; 0x04
    167e:	81 60       	ori	r24, 0x01	; 1
    1680:	84 83       	std	Z+4, r24	; 0x04
    1682:	8d 81       	ldd	r24, Y+5	; 0x05
    1684:	86 34       	cpi	r24, 0x46	; 70
    1686:	08 f4       	brcc	.+2      	; 0x168a <_ZN10LCD_Driver5beginEv+0xde>
    1688:	b3 cf       	rjmp	.-154    	; 0x15f0 <_ZN10LCD_Driver5beginEv+0x44>
    168a:	25 96       	adiw	r28, 0x05	; 5
    168c:	cd bf       	out	0x3d, r28	; 61
    168e:	de bf       	out	0x3e, r29	; 62
    1690:	df 91       	pop	r29
    1692:	cf 91       	pop	r28
    1694:	1f 91       	pop	r17
    1696:	0f 91       	pop	r16
    1698:	ff 90       	pop	r15
    169a:	ef 90       	pop	r14
    169c:	08 95       	ret

0000169e <_ZN10LCD_Driver5floodEjm>:
    169e:	4f 92       	push	r4
    16a0:	5f 92       	push	r5
    16a2:	6f 92       	push	r6
    16a4:	7f 92       	push	r7
    16a6:	af 92       	push	r10
    16a8:	bf 92       	push	r11
    16aa:	cf 92       	push	r12
    16ac:	df 92       	push	r13
    16ae:	ef 92       	push	r14
    16b0:	ff 92       	push	r15
    16b2:	0f 93       	push	r16
    16b4:	1f 93       	push	r17
    16b6:	cf 93       	push	r28
    16b8:	df 93       	push	r29
    16ba:	cd b7       	in	r28, 0x3d	; 61
    16bc:	de b7       	in	r29, 0x3e	; 62
    16be:	28 97       	sbiw	r28, 0x08	; 8
    16c0:	cd bf       	out	0x3d, r28	; 61
    16c2:	de bf       	out	0x3e, r29	; 62
    16c4:	8c 01       	movw	r16, r24
    16c6:	d6 2e       	mov	r13, r22
    16c8:	c7 2e       	mov	r12, r23
    16ca:	29 01       	movw	r4, r18
    16cc:	3a 01       	movw	r6, r20
    16ce:	b7 2e       	mov	r11, r23
    16d0:	a6 2e       	mov	r10, r22
    16d2:	0f 2e       	mov	r0, r31
    16d4:	e1 2c       	mov	r14, r1
    16d6:	f6 e0       	ldi	r31, 0x06	; 6
    16d8:	ff 2e       	mov	r15, r31
    16da:	f0 2d       	mov	r31, r0
    16dc:	f7 01       	movw	r30, r14
    16de:	84 81       	ldd	r24, Z+4	; 0x04
    16e0:	8e 7f       	andi	r24, 0xFE	; 254
    16e2:	84 83       	std	Z+4, r24	; 0x04
    16e4:	84 81       	ldd	r24, Z+4	; 0x04
    16e6:	8d 7f       	andi	r24, 0xFD	; 253
    16e8:	84 83       	std	Z+4, r24	; 0x04
    16ea:	6c e2       	ldi	r22, 0x2C	; 44
    16ec:	c8 01       	movw	r24, r16
    16ee:	13 df       	rcall	.-474    	; 0x1516 <_ZN10LCD_Driver9writeDataEh>
    16f0:	f7 01       	movw	r30, r14
    16f2:	84 81       	ldd	r24, Z+4	; 0x04
    16f4:	82 60       	ori	r24, 0x02	; 2
    16f6:	84 83       	std	Z+4, r24	; 0x04
    16f8:	6c 2d       	mov	r22, r12
    16fa:	c8 01       	movw	r24, r16
    16fc:	0c df       	rcall	.-488    	; 0x1516 <_ZN10LCD_Driver9writeDataEh>
    16fe:	6d 2d       	mov	r22, r13
    1700:	c8 01       	movw	r24, r16
    1702:	09 df       	rcall	.-494    	; 0x1516 <_ZN10LCD_Driver9writeDataEh>
    1704:	cd 10       	cpse	r12, r13
    1706:	38 c0       	rjmp	.+112    	; 0x1778 <_ZN10LCD_Driver5floodEjm+0xda>
    1708:	1d 82       	std	Y+5, r1	; 0x05
    170a:	1e 82       	std	Y+6, r1	; 0x06
    170c:	1f 82       	std	Y+7, r1	; 0x07
    170e:	18 86       	std	Y+8, r1	; 0x08
    1710:	73 01       	movw	r14, r6
    1712:	62 01       	movw	r12, r4
    1714:	f1 e0       	ldi	r31, 0x01	; 1
    1716:	cf 1a       	sub	r12, r31
    1718:	d1 08       	sbc	r13, r1
    171a:	e1 08       	sbc	r14, r1
    171c:	f1 08       	sbc	r15, r1
    171e:	8d 81       	ldd	r24, Y+5	; 0x05
    1720:	9e 81       	ldd	r25, Y+6	; 0x06
    1722:	af 81       	ldd	r26, Y+7	; 0x07
    1724:	b8 85       	ldd	r27, Y+8	; 0x08
    1726:	8c 15       	cp	r24, r12
    1728:	9d 05       	cpc	r25, r13
    172a:	ae 05       	cpc	r26, r14
    172c:	bf 05       	cpc	r27, r15
    172e:	08 f0       	brcs	.+2      	; 0x1732 <_ZN10LCD_Driver5floodEjm+0x94>
    1730:	51 c0       	rjmp	.+162    	; 0x17d4 <_ZN10LCD_Driver5floodEjm+0x136>
    1732:	e0 e0       	ldi	r30, 0x00	; 0
    1734:	f6 e0       	ldi	r31, 0x06	; 6
    1736:	84 81       	ldd	r24, Z+4	; 0x04
    1738:	8b 7f       	andi	r24, 0xFB	; 251
    173a:	84 83       	std	Z+4, r24	; 0x04
    173c:	84 81       	ldd	r24, Z+4	; 0x04
    173e:	84 60       	ori	r24, 0x04	; 4
    1740:	84 83       	std	Z+4, r24	; 0x04
    1742:	84 81       	ldd	r24, Z+4	; 0x04
    1744:	8b 7f       	andi	r24, 0xFB	; 251
    1746:	84 83       	std	Z+4, r24	; 0x04
    1748:	84 81       	ldd	r24, Z+4	; 0x04
    174a:	84 60       	ori	r24, 0x04	; 4
    174c:	84 83       	std	Z+4, r24	; 0x04
    174e:	8d 81       	ldd	r24, Y+5	; 0x05
    1750:	9e 81       	ldd	r25, Y+6	; 0x06
    1752:	af 81       	ldd	r26, Y+7	; 0x07
    1754:	b8 85       	ldd	r27, Y+8	; 0x08
    1756:	01 96       	adiw	r24, 0x01	; 1
    1758:	a1 1d       	adc	r26, r1
    175a:	b1 1d       	adc	r27, r1
    175c:	8d 83       	std	Y+5, r24	; 0x05
    175e:	9e 83       	std	Y+6, r25	; 0x06
    1760:	af 83       	std	Y+7, r26	; 0x07
    1762:	b8 87       	std	Y+8, r27	; 0x08
    1764:	8d 81       	ldd	r24, Y+5	; 0x05
    1766:	9e 81       	ldd	r25, Y+6	; 0x06
    1768:	af 81       	ldd	r26, Y+7	; 0x07
    176a:	b8 85       	ldd	r27, Y+8	; 0x08
    176c:	8c 15       	cp	r24, r12
    176e:	9d 05       	cpc	r25, r13
    1770:	ae 05       	cpc	r26, r14
    1772:	bf 05       	cpc	r27, r15
    1774:	00 f3       	brcs	.-64     	; 0x1736 <_ZN10LCD_Driver5floodEjm+0x98>
    1776:	2e c0       	rjmp	.+92     	; 0x17d4 <_ZN10LCD_Driver5floodEjm+0x136>
    1778:	19 82       	std	Y+1, r1	; 0x01
    177a:	1a 82       	std	Y+2, r1	; 0x02
    177c:	1b 82       	std	Y+3, r1	; 0x03
    177e:	1c 82       	std	Y+4, r1	; 0x04
    1780:	73 01       	movw	r14, r6
    1782:	62 01       	movw	r12, r4
    1784:	81 e0       	ldi	r24, 0x01	; 1
    1786:	c8 1a       	sub	r12, r24
    1788:	d1 08       	sbc	r13, r1
    178a:	e1 08       	sbc	r14, r1
    178c:	f1 08       	sbc	r15, r1
    178e:	89 81       	ldd	r24, Y+1	; 0x01
    1790:	9a 81       	ldd	r25, Y+2	; 0x02
    1792:	ab 81       	ldd	r26, Y+3	; 0x03
    1794:	bc 81       	ldd	r27, Y+4	; 0x04
    1796:	8c 15       	cp	r24, r12
    1798:	9d 05       	cpc	r25, r13
    179a:	ae 05       	cpc	r26, r14
    179c:	bf 05       	cpc	r27, r15
    179e:	d0 f4       	brcc	.+52     	; 0x17d4 <_ZN10LCD_Driver5floodEjm+0x136>
    17a0:	6b 2d       	mov	r22, r11
    17a2:	c8 01       	movw	r24, r16
    17a4:	b8 de       	rcall	.-656    	; 0x1516 <_ZN10LCD_Driver9writeDataEh>
    17a6:	6a 2d       	mov	r22, r10
    17a8:	c8 01       	movw	r24, r16
    17aa:	b5 de       	rcall	.-662    	; 0x1516 <_ZN10LCD_Driver9writeDataEh>
    17ac:	89 81       	ldd	r24, Y+1	; 0x01
    17ae:	9a 81       	ldd	r25, Y+2	; 0x02
    17b0:	ab 81       	ldd	r26, Y+3	; 0x03
    17b2:	bc 81       	ldd	r27, Y+4	; 0x04
    17b4:	01 96       	adiw	r24, 0x01	; 1
    17b6:	a1 1d       	adc	r26, r1
    17b8:	b1 1d       	adc	r27, r1
    17ba:	89 83       	std	Y+1, r24	; 0x01
    17bc:	9a 83       	std	Y+2, r25	; 0x02
    17be:	ab 83       	std	Y+3, r26	; 0x03
    17c0:	bc 83       	std	Y+4, r27	; 0x04
    17c2:	49 81       	ldd	r20, Y+1	; 0x01
    17c4:	5a 81       	ldd	r21, Y+2	; 0x02
    17c6:	6b 81       	ldd	r22, Y+3	; 0x03
    17c8:	7c 81       	ldd	r23, Y+4	; 0x04
    17ca:	4c 15       	cp	r20, r12
    17cc:	5d 05       	cpc	r21, r13
    17ce:	6e 05       	cpc	r22, r14
    17d0:	7f 05       	cpc	r23, r15
    17d2:	30 f3       	brcs	.-52     	; 0x17a0 <_ZN10LCD_Driver5floodEjm+0x102>
    17d4:	e0 e0       	ldi	r30, 0x00	; 0
    17d6:	f6 e0       	ldi	r31, 0x06	; 6
    17d8:	84 81       	ldd	r24, Z+4	; 0x04
    17da:	81 60       	ori	r24, 0x01	; 1
    17dc:	84 83       	std	Z+4, r24	; 0x04
    17de:	28 96       	adiw	r28, 0x08	; 8
    17e0:	cd bf       	out	0x3d, r28	; 61
    17e2:	de bf       	out	0x3e, r29	; 62
    17e4:	df 91       	pop	r29
    17e6:	cf 91       	pop	r28
    17e8:	1f 91       	pop	r17
    17ea:	0f 91       	pop	r16
    17ec:	ff 90       	pop	r15
    17ee:	ef 90       	pop	r14
    17f0:	df 90       	pop	r13
    17f2:	cf 90       	pop	r12
    17f4:	bf 90       	pop	r11
    17f6:	af 90       	pop	r10
    17f8:	7f 90       	pop	r7
    17fa:	6f 90       	pop	r6
    17fc:	5f 90       	pop	r5
    17fe:	4f 90       	pop	r4
    1800:	08 95       	ret

00001802 <_ZN10LCD_Driver15writeRegister32Ehm>:
	writeRegister32(HX8357_PASET, t);
	CS_IDLE;
}

void LCD_Driver::writeRegister32(uint8_t r, uint32_t d) 
{
    1802:	cf 92       	push	r12
    1804:	df 92       	push	r13
    1806:	ef 92       	push	r14
    1808:	ff 92       	push	r15
    180a:	0f 93       	push	r16
    180c:	1f 93       	push	r17
    180e:	cf 93       	push	r28
    1810:	df 93       	push	r29
    1812:	ec 01       	movw	r28, r24
    1814:	69 01       	movw	r12, r18
    1816:	7a 01       	movw	r14, r20
    CS_ACTIVE;
    1818:	00 e0       	ldi	r16, 0x00	; 0
    181a:	16 e0       	ldi	r17, 0x06	; 6
    181c:	f8 01       	movw	r30, r16
    181e:	84 81       	ldd	r24, Z+4	; 0x04
    1820:	8e 7f       	andi	r24, 0xFE	; 254
    1822:	84 83       	std	Z+4, r24	; 0x04
    CD_COMMAND;
    1824:	84 81       	ldd	r24, Z+4	; 0x04
    1826:	8d 7f       	andi	r24, 0xFD	; 253
    1828:	84 83       	std	Z+4, r24	; 0x04
    writeData(r);
    182a:	ce 01       	movw	r24, r28
    182c:	74 de       	rcall	.-792    	; 0x1516 <_ZN10LCD_Driver9writeDataEh>
    CD_DATA;
    182e:	f8 01       	movw	r30, r16
    1830:	84 81       	ldd	r24, Z+4	; 0x04
    1832:	82 60       	ori	r24, 0x02	; 2
    1834:	84 83       	std	Z+4, r24	; 0x04
	#else
		//round up by default
		__ticks_dc = (uint32_t)(ceil(fabs(__tmp)));
	#endif

	__builtin_avr_delay_cycles(__ticks_dc);
    1836:	f6 e0       	ldi	r31, 0x06	; 6
    1838:	fa 95       	dec	r31
    183a:	f1 f7       	brne	.-4      	; 0x1838 <_ZN10LCD_Driver15writeRegister32Ehm+0x36>
    183c:	00 c0       	rjmp	.+0      	; 0x183e <_ZN10LCD_Driver15writeRegister32Ehm+0x3c>
    _delay_us(10);
    writeData(d >> 24);
    183e:	6f 2d       	mov	r22, r15
    1840:	77 27       	eor	r23, r23
    1842:	88 27       	eor	r24, r24
    1844:	99 27       	eor	r25, r25
    1846:	ce 01       	movw	r24, r28
    1848:	66 de       	rcall	.-820    	; 0x1516 <_ZN10LCD_Driver9writeDataEh>
    184a:	86 e0       	ldi	r24, 0x06	; 6
    184c:	8a 95       	dec	r24
    184e:	f1 f7       	brne	.-4      	; 0x184c <_ZN10LCD_Driver15writeRegister32Ehm+0x4a>
    1850:	00 c0       	rjmp	.+0      	; 0x1852 <_ZN10LCD_Driver15writeRegister32Ehm+0x50>
    _delay_us(10);
    writeData(d >> 16);
    1852:	b7 01       	movw	r22, r14
    1854:	88 27       	eor	r24, r24
    1856:	99 27       	eor	r25, r25
    1858:	ce 01       	movw	r24, r28
    185a:	5d de       	rcall	.-838    	; 0x1516 <_ZN10LCD_Driver9writeDataEh>
    185c:	e6 e0       	ldi	r30, 0x06	; 6
    185e:	ea 95       	dec	r30
    1860:	f1 f7       	brne	.-4      	; 0x185e <_ZN10LCD_Driver15writeRegister32Ehm+0x5c>
    1862:	00 c0       	rjmp	.+0      	; 0x1864 <_ZN10LCD_Driver15writeRegister32Ehm+0x62>
    _delay_us(10);
    writeData(d >> 8);
    1864:	99 27       	eor	r25, r25
    1866:	8f 2d       	mov	r24, r15
    1868:	7e 2d       	mov	r23, r14
    186a:	6d 2d       	mov	r22, r13
    186c:	ce 01       	movw	r24, r28
    186e:	53 de       	rcall	.-858    	; 0x1516 <_ZN10LCD_Driver9writeDataEh>
    1870:	f6 e0       	ldi	r31, 0x06	; 6
    1872:	fa 95       	dec	r31
    1874:	f1 f7       	brne	.-4      	; 0x1872 <_ZN10LCD_Driver15writeRegister32Ehm+0x70>
    1876:	00 c0       	rjmp	.+0      	; 0x1878 <_ZN10LCD_Driver15writeRegister32Ehm+0x76>
    _delay_us(10);
    writeData(d);
    1878:	6c 2d       	mov	r22, r12
    187a:	ce 01       	movw	r24, r28
    187c:	4c de       	rcall	.-872    	; 0x1516 <_ZN10LCD_Driver9writeDataEh>
    CS_IDLE;
    187e:	e0 e0       	ldi	r30, 0x00	; 0
    1880:	f6 e0       	ldi	r31, 0x06	; 6
    1882:	84 81       	ldd	r24, Z+4	; 0x04
    1884:	81 60       	ori	r24, 0x01	; 1
    1886:	84 83       	std	Z+4, r24	; 0x04
}
    1888:	df 91       	pop	r29
    188a:	cf 91       	pop	r28
    188c:	1f 91       	pop	r17
    188e:	0f 91       	pop	r16
    1890:	ff 90       	pop	r15
    1892:	ef 90       	pop	r14
    1894:	df 90       	pop	r13
    1896:	cf 90       	pop	r12
    1898:	08 95       	ret

0000189a <_ZN10LCD_Driver13setAddrWindowEjjjj>:
	LCD_DATA_PORT.DIR= 0xFF;
}


void LCD_Driver::setAddrWindow(uint16_t x1, uint16_t y1, uint16_t x2, uint16_t y2)
{
    189a:	cf 92       	push	r12
    189c:	df 92       	push	r13
    189e:	ef 92       	push	r14
    18a0:	ff 92       	push	r15
    18a2:	0f 93       	push	r16
    18a4:	1f 93       	push	r17
    18a6:	cf 93       	push	r28
    18a8:	df 93       	push	r29
    18aa:	7c 01       	movw	r14, r24
    18ac:	6a 01       	movw	r12, r20
    18ae:	c9 01       	movw	r24, r18
	CS_ACTIVE;
    18b0:	c0 e0       	ldi	r28, 0x00	; 0
    18b2:	d6 e0       	ldi	r29, 0x06	; 6
    18b4:	2c 81       	ldd	r18, Y+4	; 0x04
    18b6:	2e 7f       	andi	r18, 0xFE	; 254
    18b8:	2c 83       	std	Y+4, r18	; 0x04
	uint32_t t;

	t = x1;
    18ba:	ab 01       	movw	r20, r22
    18bc:	60 e0       	ldi	r22, 0x00	; 0
    18be:	70 e0       	ldi	r23, 0x00	; 0
	t <<= 16;
    18c0:	ba 01       	movw	r22, r20
    18c2:	55 27       	eor	r21, r21
    18c4:	44 27       	eor	r20, r20
	t |= x2;
    18c6:	a0 e0       	ldi	r26, 0x00	; 0
    18c8:	b0 e0       	ldi	r27, 0x00	; 0
    18ca:	9a 01       	movw	r18, r20
    18cc:	ab 01       	movw	r20, r22
    18ce:	28 2b       	or	r18, r24
    18d0:	39 2b       	or	r19, r25
    18d2:	4a 2b       	or	r20, r26
    18d4:	5b 2b       	or	r21, r27
	//TODO move register
	//writeRegister32(ILI9341_COLADDRSET, t);  // HX8357D uses same registers!
	writeRegister32(HX8357_CASET, t);
    18d6:	6a e2       	ldi	r22, 0x2A	; 42
    18d8:	c7 01       	movw	r24, r14
    18da:	93 df       	rcall	.-218    	; 0x1802 <_ZN10LCD_Driver15writeRegister32Ehm>
	t = y1;
    18dc:	a6 01       	movw	r20, r12
    18de:	60 e0       	ldi	r22, 0x00	; 0
    18e0:	70 e0       	ldi	r23, 0x00	; 0
	t <<= 16;
    18e2:	ba 01       	movw	r22, r20
    18e4:	55 27       	eor	r21, r21
    18e6:	44 27       	eor	r20, r20
	t |= y2;
    18e8:	20 e0       	ldi	r18, 0x00	; 0
    18ea:	30 e0       	ldi	r19, 0x00	; 0
    18ec:	db 01       	movw	r26, r22
    18ee:	ca 01       	movw	r24, r20
    18f0:	80 2b       	or	r24, r16
    18f2:	91 2b       	or	r25, r17
    18f4:	a2 2b       	or	r26, r18
    18f6:	b3 2b       	or	r27, r19
    18f8:	9c 01       	movw	r18, r24
    18fa:	ad 01       	movw	r20, r26
	//TODO move register
	//writeRegister32(ILI9341_PAGEADDRSET, t); // HX8357D uses same registers!
	writeRegister32(HX8357_PASET, t);
    18fc:	6b e2       	ldi	r22, 0x2B	; 43
    18fe:	c7 01       	movw	r24, r14
    1900:	80 df       	rcall	.-256    	; 0x1802 <_ZN10LCD_Driver15writeRegister32Ehm>
	CS_IDLE;
    1902:	8c 81       	ldd	r24, Y+4	; 0x04
    1904:	81 60       	ori	r24, 0x01	; 1
    1906:	8c 83       	std	Y+4, r24	; 0x04
}
    1908:	df 91       	pop	r29
    190a:	cf 91       	pop	r28
    190c:	1f 91       	pop	r17
    190e:	0f 91       	pop	r16
    1910:	ff 90       	pop	r15
    1912:	ef 90       	pop	r14
    1914:	df 90       	pop	r13
    1916:	cf 90       	pop	r12
    1918:	08 95       	ret

0000191a <_ZN10LCD_Driver11setRotationEh>:

  CS_IDLE;
}

void LCD_Driver::setRotation(uint8_t x)
{
    191a:	ff 92       	push	r15
    191c:	0f 93       	push	r16
    191e:	1f 93       	push	r17
    1920:	cf 93       	push	r28
    1922:	df 93       	push	r29
    1924:	ec 01       	movw	r28, r24
    Adafruit_GFX::setRotation(x);
    1926:	57 da       	rcall	.-2898   	; 0xdd6 <_ZN12Adafruit_GFX11setRotationEh>
	CS_ACTIVE;
    1928:	e0 e0       	ldi	r30, 0x00	; 0
    192a:	f6 e0       	ldi	r31, 0x06	; 6
    192c:	84 81       	ldd	r24, Z+4	; 0x04
    192e:	8e 7f       	andi	r24, 0xFE	; 254
    1930:	84 83       	std	Z+4, r24	; 0x04

	uint8_t t;
	switch (rotation)
    1932:	8d 89       	ldd	r24, Y+21	; 0x15
    1934:	81 30       	cpi	r24, 0x01	; 1
    1936:	31 f0       	breq	.+12     	; 0x1944 <_ZN10LCD_Driver11setRotationEh+0x2a>
    1938:	88 f0       	brcs	.+34     	; 0x195c <_ZN10LCD_Driver11setRotationEh+0x42>
    193a:	82 30       	cpi	r24, 0x02	; 2
    193c:	41 f0       	breq	.+16     	; 0x194e <_ZN10LCD_Driver11setRotationEh+0x34>
    193e:	83 30       	cpi	r24, 0x03	; 3
    1940:	41 f0       	breq	.+16     	; 0x1952 <_ZN10LCD_Driver11setRotationEh+0x38>
    1942:	10 c0       	rjmp	.+32     	; 0x1964 <_ZN10LCD_Driver11setRotationEh+0x4a>
	{
	    case 0: t = HX8357B_MADCTL_MX | HX8357B_MADCTL_MY | HX8357B_MADCTL_RGB; break;
		case 1: t = HX8357B_MADCTL_MY | HX8357B_MADCTL_MV | HX8357B_MADCTL_RGB; break;
    1944:	0f 2e       	mov	r0, r31
    1946:	f0 ea       	ldi	r31, 0xA0	; 160
    1948:	ff 2e       	mov	r15, r31
    194a:	f0 2d       	mov	r31, r0
    194c:	0b c0       	rjmp	.+22     	; 0x1964 <_ZN10LCD_Driver11setRotationEh+0x4a>
		case 2: t = HX8357B_MADCTL_RGB; break;
    194e:	f1 2c       	mov	r15, r1
    1950:	09 c0       	rjmp	.+18     	; 0x1964 <_ZN10LCD_Driver11setRotationEh+0x4a>
		case 3: t = HX8357B_MADCTL_MX | HX8357B_MADCTL_MV | HX8357B_MADCTL_RGB; break;
    1952:	0f 2e       	mov	r0, r31
    1954:	f0 e6       	ldi	r31, 0x60	; 96
    1956:	ff 2e       	mov	r15, r31
    1958:	f0 2d       	mov	r31, r0
    195a:	04 c0       	rjmp	.+8      	; 0x1964 <_ZN10LCD_Driver11setRotationEh+0x4a>
	CS_ACTIVE;

	uint8_t t;
	switch (rotation)
	{
	    case 0: t = HX8357B_MADCTL_MX | HX8357B_MADCTL_MY | HX8357B_MADCTL_RGB; break;
    195c:	0f 2e       	mov	r0, r31
    195e:	f0 ec       	ldi	r31, 0xC0	; 192
    1960:	ff 2e       	mov	r15, r31
    1962:	f0 2d       	mov	r31, r0
		case 1: t = HX8357B_MADCTL_MY | HX8357B_MADCTL_MV | HX8357B_MADCTL_RGB; break;
		case 2: t = HX8357B_MADCTL_RGB; break;
		case 3: t = HX8357B_MADCTL_MX | HX8357B_MADCTL_MV | HX8357B_MADCTL_RGB; break;
	}

	CD_COMMAND;
    1964:	00 e0       	ldi	r16, 0x00	; 0
    1966:	16 e0       	ldi	r17, 0x06	; 6
    1968:	f8 01       	movw	r30, r16
    196a:	84 81       	ldd	r24, Z+4	; 0x04
    196c:	8d 7f       	andi	r24, 0xFD	; 253
    196e:	84 83       	std	Z+4, r24	; 0x04
	writeData(ILI9341_MADCTL);
    1970:	66 e3       	ldi	r22, 0x36	; 54
    1972:	ce 01       	movw	r24, r28
    1974:	d0 dd       	rcall	.-1120   	; 0x1516 <_ZN10LCD_Driver9writeDataEh>
	CD_DATA;
    1976:	f8 01       	movw	r30, r16
    1978:	84 81       	ldd	r24, Z+4	; 0x04
    197a:	82 60       	ori	r24, 0x02	; 2
    197c:	84 83       	std	Z+4, r24	; 0x04
	writeData(t);
    197e:	6f 2d       	mov	r22, r15
    1980:	ce 01       	movw	r24, r28
    1982:	c9 dd       	rcall	.-1134   	; 0x1516 <_ZN10LCD_Driver9writeDataEh>
	setAddrWindow(0, 0, _width-1, _height-1);
    1984:	08 85       	ldd	r16, Y+8	; 0x08
    1986:	19 85       	ldd	r17, Y+9	; 0x09
    1988:	01 50       	subi	r16, 0x01	; 1
    198a:	11 09       	sbc	r17, r1
    198c:	2e 81       	ldd	r18, Y+6	; 0x06
    198e:	3f 81       	ldd	r19, Y+7	; 0x07
    1990:	21 50       	subi	r18, 0x01	; 1
    1992:	31 09       	sbc	r19, r1
    1994:	40 e0       	ldi	r20, 0x00	; 0
    1996:	50 e0       	ldi	r21, 0x00	; 0
    1998:	60 e0       	ldi	r22, 0x00	; 0
    199a:	70 e0       	ldi	r23, 0x00	; 0
    199c:	ce 01       	movw	r24, r28
    199e:	7d df       	rcall	.-262    	; 0x189a <_ZN10LCD_Driver13setAddrWindowEjjjj>
}
    19a0:	df 91       	pop	r29
    19a2:	cf 91       	pop	r28
    19a4:	1f 91       	pop	r17
    19a6:	0f 91       	pop	r16
    19a8:	ff 90       	pop	r15
    19aa:	08 95       	ret

000019ac <_ZN10LCD_Driver9drawPixelEiij>:

void LCD_Driver::drawPixel(int16_t x, int16_t y, uint16_t color)
{
    19ac:	cf 92       	push	r12
    19ae:	df 92       	push	r13
    19b0:	ef 92       	push	r14
    19b2:	ff 92       	push	r15
    19b4:	0f 93       	push	r16
    19b6:	1f 93       	push	r17
    19b8:	cf 93       	push	r28
    19ba:	df 93       	push	r29
    19bc:	ec 01       	movw	r28, r24
    19be:	d2 2e       	mov	r13, r18
    19c0:	c3 2e       	mov	r12, r19
	if((x < 0) || (y < 0) || (x >= _width) || (y >= _height)) return;
    19c2:	77 23       	and	r23, r23
    19c4:	c4 f1       	brlt	.+112    	; 0x1a36 <_ZN10LCD_Driver9drawPixelEiij+0x8a>
    19c6:	55 23       	and	r21, r21
    19c8:	b4 f1       	brlt	.+108    	; 0x1a36 <_ZN10LCD_Driver9drawPixelEiij+0x8a>
    19ca:	8e 81       	ldd	r24, Y+6	; 0x06
    19cc:	9f 81       	ldd	r25, Y+7	; 0x07
    19ce:	68 17       	cp	r22, r24
    19d0:	79 07       	cpc	r23, r25
    19d2:	8c f5       	brge	.+98     	; 0x1a36 <_ZN10LCD_Driver9drawPixelEiij+0x8a>
    19d4:	88 85       	ldd	r24, Y+8	; 0x08
    19d6:	99 85       	ldd	r25, Y+9	; 0x09
    19d8:	48 17       	cp	r20, r24
    19da:	59 07       	cpc	r21, r25
    19dc:	64 f5       	brge	.+88     	; 0x1a36 <_ZN10LCD_Driver9drawPixelEiij+0x8a>
	CS_ACTIVE;
    19de:	0f 2e       	mov	r0, r31
    19e0:	e1 2c       	mov	r14, r1
    19e2:	f6 e0       	ldi	r31, 0x06	; 6
    19e4:	ff 2e       	mov	r15, r31
    19e6:	f0 2d       	mov	r31, r0
    19e8:	f7 01       	movw	r30, r14
    19ea:	84 81       	ldd	r24, Z+4	; 0x04
    19ec:	8e 7f       	andi	r24, 0xFE	; 254
    19ee:	84 83       	std	Z+4, r24	; 0x04
	setAddrWindow(x, y, _width-1, _height-1);
    19f0:	08 85       	ldd	r16, Y+8	; 0x08
    19f2:	19 85       	ldd	r17, Y+9	; 0x09
    19f4:	01 50       	subi	r16, 0x01	; 1
    19f6:	11 09       	sbc	r17, r1
    19f8:	8e 81       	ldd	r24, Y+6	; 0x06
    19fa:	9f 81       	ldd	r25, Y+7	; 0x07
    19fc:	9c 01       	movw	r18, r24
    19fe:	21 50       	subi	r18, 0x01	; 1
    1a00:	31 09       	sbc	r19, r1
    1a02:	ce 01       	movw	r24, r28
    1a04:	4a df       	rcall	.-364    	; 0x189a <_ZN10LCD_Driver13setAddrWindowEjjjj>
	CS_ACTIVE;
    1a06:	f7 01       	movw	r30, r14
    1a08:	84 81       	ldd	r24, Z+4	; 0x04
    1a0a:	8e 7f       	andi	r24, 0xFE	; 254
    1a0c:	84 83       	std	Z+4, r24	; 0x04
	CD_COMMAND;
    1a0e:	84 81       	ldd	r24, Z+4	; 0x04
    1a10:	8d 7f       	andi	r24, 0xFD	; 253
    1a12:	84 83       	std	Z+4, r24	; 0x04
	writeData(0x2C);
    1a14:	6c e2       	ldi	r22, 0x2C	; 44
    1a16:	ce 01       	movw	r24, r28
    1a18:	7e dd       	rcall	.-1284   	; 0x1516 <_ZN10LCD_Driver9writeDataEh>
	CD_DATA;
    1a1a:	f7 01       	movw	r30, r14
    1a1c:	84 81       	ldd	r24, Z+4	; 0x04
    1a1e:	82 60       	ori	r24, 0x02	; 2
    1a20:	84 83       	std	Z+4, r24	; 0x04
	writeData(color >> 8);
    1a22:	6c 2d       	mov	r22, r12
    1a24:	ce 01       	movw	r24, r28
    1a26:	77 dd       	rcall	.-1298   	; 0x1516 <_ZN10LCD_Driver9writeDataEh>
	writeData(color);
    1a28:	6d 2d       	mov	r22, r13
    1a2a:	ce 01       	movw	r24, r28
    1a2c:	74 dd       	rcall	.-1304   	; 0x1516 <_ZN10LCD_Driver9writeDataEh>
	CS_IDLE;
    1a2e:	f7 01       	movw	r30, r14
    1a30:	84 81       	ldd	r24, Z+4	; 0x04
    1a32:	81 60       	ori	r24, 0x01	; 1
    1a34:	84 83       	std	Z+4, r24	; 0x04
}
    1a36:	df 91       	pop	r29
    1a38:	cf 91       	pop	r28
    1a3a:	1f 91       	pop	r17
    1a3c:	0f 91       	pop	r16
    1a3e:	ff 90       	pop	r15
    1a40:	ef 90       	pop	r14
    1a42:	df 90       	pop	r13
    1a44:	cf 90       	pop	r12
    1a46:	08 95       	ret

00001a48 <_ZN10LCD_Driver10fillScreenEj>:
{
	LCD_DATA_PORT.OUT = data;
	WR_STROBE;
}

void LCD_Driver::fillScreen(uint16_t color) {
    1a48:	ef 92       	push	r14
    1a4a:	ff 92       	push	r15
    1a4c:	0f 93       	push	r16
    1a4e:	1f 93       	push	r17
    1a50:	cf 93       	push	r28
    1a52:	df 93       	push	r29
    1a54:	ec 01       	movw	r28, r24
    1a56:	7b 01       	movw	r14, r22
	setAddrWindow(0,0, _width-1, _height - 1);
    1a58:	08 85       	ldd	r16, Y+8	; 0x08
    1a5a:	19 85       	ldd	r17, Y+9	; 0x09
    1a5c:	01 50       	subi	r16, 0x01	; 1
    1a5e:	11 09       	sbc	r17, r1
    1a60:	2e 81       	ldd	r18, Y+6	; 0x06
    1a62:	3f 81       	ldd	r19, Y+7	; 0x07
    1a64:	21 50       	subi	r18, 0x01	; 1
    1a66:	31 09       	sbc	r19, r1
    1a68:	40 e0       	ldi	r20, 0x00	; 0
    1a6a:	50 e0       	ldi	r21, 0x00	; 0
    1a6c:	60 e0       	ldi	r22, 0x00	; 0
    1a6e:	70 e0       	ldi	r23, 0x00	; 0
    1a70:	14 df       	rcall	.-472    	; 0x189a <_ZN10LCD_Driver13setAddrWindowEjjjj>
	flood(color, (long)TFTWIDTH * (long) TFTHEIGHT);
    1a72:	20 e0       	ldi	r18, 0x00	; 0
    1a74:	38 e5       	ldi	r19, 0x58	; 88
    1a76:	42 e0       	ldi	r20, 0x02	; 2
    1a78:	50 e0       	ldi	r21, 0x00	; 0
    1a7a:	b7 01       	movw	r22, r14
    1a7c:	ce 01       	movw	r24, r28
    1a7e:	0f de       	rcall	.-994    	; 0x169e <_ZN10LCD_Driver5floodEjm>
}
    1a80:	df 91       	pop	r29
    1a82:	cf 91       	pop	r28
    1a84:	1f 91       	pop	r17
    1a86:	0f 91       	pop	r16
    1a88:	ff 90       	pop	r15
    1a8a:	ef 90       	pop	r14
    1a8c:	08 95       	ret

00001a8e <__vector_88>:
	if (fr == FR_OK) {
		fr = f_lseek(fp, f_size(fp));
		if (fr != FR_OK) f_close(fp);
	}
	return fr;
}
    1a8e:	1f 92       	push	r1
    1a90:	0f 92       	push	r0
    1a92:	0f b6       	in	r0, 0x3f	; 63
    1a94:	0f 92       	push	r0
    1a96:	11 24       	eor	r1, r1
    1a98:	0b b6       	in	r0, 0x3b	; 59
    1a9a:	0f 92       	push	r0
    1a9c:	2f 93       	push	r18
    1a9e:	3f 93       	push	r19
    1aa0:	4f 93       	push	r20
    1aa2:	5f 93       	push	r21
    1aa4:	6f 93       	push	r22
    1aa6:	7f 93       	push	r23
    1aa8:	8f 93       	push	r24
    1aaa:	9f 93       	push	r25
    1aac:	af 93       	push	r26
    1aae:	bf 93       	push	r27
    1ab0:	ef 93       	push	r30
    1ab2:	ff 93       	push	r31
    1ab4:	80 91 bc 20 	lds	r24, 0x20BC
    1ab8:	90 91 bd 20 	lds	r25, 0x20BD
    1abc:	a9 d9       	rcall	.-3246   	; 0xe10 <_ZN5BTOBD13interceptByteEv>
    1abe:	ff 91       	pop	r31
    1ac0:	ef 91       	pop	r30
    1ac2:	bf 91       	pop	r27
    1ac4:	af 91       	pop	r26
    1ac6:	9f 91       	pop	r25
    1ac8:	8f 91       	pop	r24
    1aca:	7f 91       	pop	r23
    1acc:	6f 91       	pop	r22
    1ace:	5f 91       	pop	r21
    1ad0:	4f 91       	pop	r20
    1ad2:	3f 91       	pop	r19
    1ad4:	2f 91       	pop	r18
    1ad6:	0f 90       	pop	r0
    1ad8:	0b be       	out	0x3b, r0	; 59
    1ada:	0f 90       	pop	r0
    1adc:	0f be       	out	0x3f, r0	; 63
    1ade:	0f 90       	pop	r0
    1ae0:	1f 90       	pop	r1
    1ae2:	18 95       	reti

00001ae4 <__vector_91>:
    1ae4:	1f 92       	push	r1
    1ae6:	0f 92       	push	r0
    1ae8:	0f b6       	in	r0, 0x3f	; 63
    1aea:	0f 92       	push	r0
    1aec:	11 24       	eor	r1, r1
    1aee:	0b b6       	in	r0, 0x3b	; 59
    1af0:	0f 92       	push	r0
    1af2:	2f 93       	push	r18
    1af4:	3f 93       	push	r19
    1af6:	4f 93       	push	r20
    1af8:	5f 93       	push	r21
    1afa:	6f 93       	push	r22
    1afc:	7f 93       	push	r23
    1afe:	8f 93       	push	r24
    1b00:	9f 93       	push	r25
    1b02:	af 93       	push	r26
    1b04:	bf 93       	push	r27
    1b06:	ef 93       	push	r30
    1b08:	ff 93       	push	r31
    1b0a:	80 91 b8 20 	lds	r24, 0x20B8
    1b0e:	90 91 b9 20 	lds	r25, 0x20B9
    1b12:	9f db       	rcall	.-2242   	; 0x1252 <_ZN3GPS13interceptByteEv>
    1b14:	ff 91       	pop	r31
    1b16:	ef 91       	pop	r30
    1b18:	bf 91       	pop	r27
    1b1a:	af 91       	pop	r26
    1b1c:	9f 91       	pop	r25
    1b1e:	8f 91       	pop	r24
    1b20:	7f 91       	pop	r23
    1b22:	6f 91       	pop	r22
    1b24:	5f 91       	pop	r21
    1b26:	4f 91       	pop	r20
    1b28:	3f 91       	pop	r19
    1b2a:	2f 91       	pop	r18
    1b2c:	0f 90       	pop	r0
    1b2e:	0b be       	out	0x3b, r0	; 59
    1b30:	0f 90       	pop	r0
    1b32:	0f be       	out	0x3f, r0	; 63
    1b34:	0f 90       	pop	r0
    1b36:	1f 90       	pop	r1
    1b38:	18 95       	reti

00001b3a <__vector_90>:
    1b3a:	1f 92       	push	r1
    1b3c:	0f 92       	push	r0
    1b3e:	0f b6       	in	r0, 0x3f	; 63
    1b40:	0f 92       	push	r0
    1b42:	11 24       	eor	r1, r1
    1b44:	0f 90       	pop	r0
    1b46:	0f be       	out	0x3f, r0	; 63
    1b48:	0f 90       	pop	r0
    1b4a:	1f 90       	pop	r1
    1b4c:	18 95       	reti

00001b4e <__vector_93>:
    1b4e:	1f 92       	push	r1
    1b50:	0f 92       	push	r0
    1b52:	0f b6       	in	r0, 0x3f	; 63
    1b54:	0f 92       	push	r0
    1b56:	11 24       	eor	r1, r1
    1b58:	0f 90       	pop	r0
    1b5a:	0f be       	out	0x3f, r0	; 63
    1b5c:	0f 90       	pop	r0
    1b5e:	1f 90       	pop	r1
    1b60:	18 95       	reti

00001b62 <__vector_89>:
    1b62:	1f 92       	push	r1
    1b64:	0f 92       	push	r0
    1b66:	0f b6       	in	r0, 0x3f	; 63
    1b68:	0f 92       	push	r0
    1b6a:	11 24       	eor	r1, r1
    1b6c:	0b b6       	in	r0, 0x3b	; 59
    1b6e:	0f 92       	push	r0
    1b70:	2f 93       	push	r18
    1b72:	3f 93       	push	r19
    1b74:	4f 93       	push	r20
    1b76:	5f 93       	push	r21
    1b78:	6f 93       	push	r22
    1b7a:	7f 93       	push	r23
    1b7c:	8f 93       	push	r24
    1b7e:	9f 93       	push	r25
    1b80:	af 93       	push	r26
    1b82:	bf 93       	push	r27
    1b84:	ef 93       	push	r30
    1b86:	ff 93       	push	r31
    1b88:	80 91 bc 20 	lds	r24, 0x20BC
    1b8c:	90 91 bd 20 	lds	r25, 0x20BD
    1b90:	57 d9       	rcall	.-3410   	; 0xe40 <_ZN5BTOBD9handleDREEv>
    1b92:	ff 91       	pop	r31
    1b94:	ef 91       	pop	r30
    1b96:	bf 91       	pop	r27
    1b98:	af 91       	pop	r26
    1b9a:	9f 91       	pop	r25
    1b9c:	8f 91       	pop	r24
    1b9e:	7f 91       	pop	r23
    1ba0:	6f 91       	pop	r22
    1ba2:	5f 91       	pop	r21
    1ba4:	4f 91       	pop	r20
    1ba6:	3f 91       	pop	r19
    1ba8:	2f 91       	pop	r18
    1baa:	0f 90       	pop	r0
    1bac:	0b be       	out	0x3b, r0	; 59
    1bae:	0f 90       	pop	r0
    1bb0:	0f be       	out	0x3f, r0	; 63
    1bb2:	0f 90       	pop	r0
    1bb4:	1f 90       	pop	r1
    1bb6:	18 95       	reti

00001bb8 <__vector_92>:
    1bb8:	1f 92       	push	r1
    1bba:	0f 92       	push	r0
    1bbc:	0f b6       	in	r0, 0x3f	; 63
    1bbe:	0f 92       	push	r0
    1bc0:	11 24       	eor	r1, r1
    1bc2:	0b b6       	in	r0, 0x3b	; 59
    1bc4:	0f 92       	push	r0
    1bc6:	2f 93       	push	r18
    1bc8:	3f 93       	push	r19
    1bca:	4f 93       	push	r20
    1bcc:	5f 93       	push	r21
    1bce:	6f 93       	push	r22
    1bd0:	7f 93       	push	r23
    1bd2:	8f 93       	push	r24
    1bd4:	9f 93       	push	r25
    1bd6:	af 93       	push	r26
    1bd8:	bf 93       	push	r27
    1bda:	ef 93       	push	r30
    1bdc:	ff 93       	push	r31
    1bde:	80 91 b8 20 	lds	r24, 0x20B8
    1be2:	90 91 b9 20 	lds	r25, 0x20B9
    1be6:	21 dc       	rcall	.-1982   	; 0x142a <_ZN3GPS9handleDREEv>
    1be8:	ff 91       	pop	r31
    1bea:	ef 91       	pop	r30
    1bec:	bf 91       	pop	r27
    1bee:	af 91       	pop	r26
    1bf0:	9f 91       	pop	r25
    1bf2:	8f 91       	pop	r24
    1bf4:	7f 91       	pop	r23
    1bf6:	6f 91       	pop	r22
    1bf8:	5f 91       	pop	r21
    1bfa:	4f 91       	pop	r20
    1bfc:	3f 91       	pop	r19
    1bfe:	2f 91       	pop	r18
    1c00:	0f 90       	pop	r0
    1c02:	0b be       	out	0x3b, r0	; 59
    1c04:	0f 90       	pop	r0
    1c06:	0f be       	out	0x3f, r0	; 63
    1c08:	0f 90       	pop	r0
    1c0a:	1f 90       	pop	r1
    1c0c:	18 95       	reti

00001c0e <__vector_default>:
    1c0e:	1f 92       	push	r1
    1c10:	0f 92       	push	r0
    1c12:	0f b6       	in	r0, 0x3f	; 63
    1c14:	0f 92       	push	r0
    1c16:	11 24       	eor	r1, r1
    1c18:	00 00       	nop
    1c1a:	0f 90       	pop	r0
    1c1c:	0f be       	out	0x3f, r0	; 63
    1c1e:	0f 90       	pop	r0
    1c20:	1f 90       	pop	r1
    1c22:	18 95       	reti

00001c24 <__vector_57>:
    1c24:	1f 92       	push	r1
    1c26:	0f 92       	push	r0
    1c28:	0f b6       	in	r0, 0x3f	; 63
    1c2a:	0f 92       	push	r0
    1c2c:	11 24       	eor	r1, r1
    1c2e:	0f 90       	pop	r0
    1c30:	0f be       	out	0x3f, r0	; 63
    1c32:	0f 90       	pop	r0
    1c34:	1f 90       	pop	r1
    1c36:	18 95       	reti

00001c38 <__vector_16>:
    1c38:	1f 92       	push	r1
    1c3a:	0f 92       	push	r0
    1c3c:	0f b6       	in	r0, 0x3f	; 63
    1c3e:	0f 92       	push	r0
    1c40:	11 24       	eor	r1, r1
    1c42:	0b b6       	in	r0, 0x3b	; 59
    1c44:	0f 92       	push	r0
    1c46:	2f 93       	push	r18
    1c48:	3f 93       	push	r19
    1c4a:	4f 93       	push	r20
    1c4c:	5f 93       	push	r21
    1c4e:	6f 93       	push	r22
    1c50:	7f 93       	push	r23
    1c52:	8f 93       	push	r24
    1c54:	9f 93       	push	r25
    1c56:	af 93       	push	r26
    1c58:	bf 93       	push	r27
    1c5a:	ef 93       	push	r30
    1c5c:	ff 93       	push	r31
    1c5e:	e0 e0       	ldi	r30, 0x00	; 0
    1c60:	f8 e0       	ldi	r31, 0x08	; 8
    1c62:	10 a2       	std	Z+32, r1	; 0x20
    1c64:	11 a2       	std	Z+33, r1	; 0x21
    1c66:	80 91 b6 20 	lds	r24, 0x20B6
    1c6a:	90 91 b7 20 	lds	r25, 0x20B7
    1c6e:	14 d1       	rcall	.+552    	; 0x1e98 <_ZN5Touch7processEv>
    1c70:	80 91 b6 20 	lds	r24, 0x20B6
    1c74:	90 91 b7 20 	lds	r25, 0x20B7
    1c78:	38 d1       	rcall	.+624    	; 0x1eea <_ZN5Touch4getXEv>
    1c7a:	81 30       	cpi	r24, 0x01	; 1
    1c7c:	94 40       	sbci	r25, 0x04	; 4
    1c7e:	44 f4       	brge	.+16     	; 0x1c90 <__vector_16+0x58>
    1c80:	80 91 b6 20 	lds	r24, 0x20B6
    1c84:	90 91 b7 20 	lds	r25, 0x20B7
    1c88:	34 d1       	rcall	.+616    	; 0x1ef2 <_ZN5Touch4getYEv>
    1c8a:	81 30       	cpi	r24, 0x01	; 1
    1c8c:	94 40       	sbci	r25, 0x04	; 4
    1c8e:	2c f0       	brlt	.+10     	; 0x1c9a <__vector_16+0x62>
    1c90:	81 e0       	ldi	r24, 0x01	; 1
    1c92:	e0 ea       	ldi	r30, 0xA0	; 160
    1c94:	f6 e0       	ldi	r31, 0x06	; 6
    1c96:	85 83       	std	Z+5, r24	; 0x05
    1c98:	04 c0       	rjmp	.+8      	; 0x1ca2 <__vector_16+0x6a>
    1c9a:	81 e0       	ldi	r24, 0x01	; 1
    1c9c:	e0 ea       	ldi	r30, 0xA0	; 160
    1c9e:	f6 e0       	ldi	r31, 0x06	; 6
    1ca0:	86 83       	std	Z+6, r24	; 0x06
    1ca2:	ff 91       	pop	r31
    1ca4:	ef 91       	pop	r30
    1ca6:	bf 91       	pop	r27
    1ca8:	af 91       	pop	r26
    1caa:	9f 91       	pop	r25
    1cac:	8f 91       	pop	r24
    1cae:	7f 91       	pop	r23
    1cb0:	6f 91       	pop	r22
    1cb2:	5f 91       	pop	r21
    1cb4:	4f 91       	pop	r20
    1cb6:	3f 91       	pop	r19
    1cb8:	2f 91       	pop	r18
    1cba:	0f 90       	pop	r0
    1cbc:	0b be       	out	0x3b, r0	; 59
    1cbe:	0f 90       	pop	r0
    1cc0:	0f be       	out	0x3f, r0	; 63
    1cc2:	0f 90       	pop	r0
    1cc4:	1f 90       	pop	r1
    1cc6:	18 95       	reti

00001cc8 <_Z15setClockTo32MHzv>:
    1cc8:	88 ed       	ldi	r24, 0xD8	; 216
    1cca:	84 bf       	out	0x34, r24	; 52
    1ccc:	82 e0       	ldi	r24, 0x02	; 2
    1cce:	80 93 50 00 	sts	0x0050, r24
    1cd2:	e0 e5       	ldi	r30, 0x50	; 80
    1cd4:	f0 e0       	ldi	r31, 0x00	; 0
    1cd6:	81 81       	ldd	r24, Z+1	; 0x01
    1cd8:	81 ff       	sbrs	r24, 1
    1cda:	fd cf       	rjmp	.-6      	; 0x1cd6 <_Z15setClockTo32MHzv+0xe>
    1cdc:	88 ed       	ldi	r24, 0xD8	; 216
    1cde:	84 bf       	out	0x34, r24	; 52
    1ce0:	81 e0       	ldi	r24, 0x01	; 1
    1ce2:	80 93 40 00 	sts	0x0040, r24
    1ce6:	08 95       	ret

00001ce8 <main>:


int main(void)
{
    1ce8:	cf 93       	push	r28
    1cea:	df 93       	push	r29
    1cec:	cd b7       	in	r28, 0x3d	; 61
    1cee:	de b7       	in	r29, 0x3e	; 62
    1cf0:	c4 58       	subi	r28, 0x84	; 132
    1cf2:	d1 09       	sbc	r29, r1
    1cf4:	cd bf       	out	0x3d, r28	; 61
    1cf6:	de bf       	out	0x3e, r29	; 62
	asm("cli");
    1cf8:	f8 94       	cli
	setClockTo32MHz();
    1cfa:	e6 df       	rcall	.-52     	; 0x1cc8 <_Z15setClockTo32MHzv>
	#else
		//round up by default
		__ticks_dc = (uint32_t)(ceil(fabs(__tmp)));
	#endif

	__builtin_avr_delay_cycles(__ticks_dc);
    1cfc:	2f ef       	ldi	r18, 0xFF	; 255
    1cfe:	87 ea       	ldi	r24, 0xA7	; 167
    1d00:	91 e6       	ldi	r25, 0x61	; 97
    1d02:	21 50       	subi	r18, 0x01	; 1
    1d04:	80 40       	sbci	r24, 0x00	; 0
    1d06:	90 40       	sbci	r25, 0x00	; 0
    1d08:	e1 f7       	brne	.-8      	; 0x1d02 <main+0x1a>
    1d0a:	00 c0       	rjmp	.+0      	; 0x1d0c <main+0x24>
    1d0c:	00 00       	nop
	_delay_ms(1000);

	// Set pins as outputs
	PORTD.OUT = 0x88;
    1d0e:	e0 e6       	ldi	r30, 0x60	; 96
    1d10:	f6 e0       	ldi	r31, 0x06	; 6
    1d12:	88 e8       	ldi	r24, 0x88	; 136
    1d14:	84 83       	std	Z+4, r24	; 0x04
	PORTD.DIR = 0x88;
    1d16:	80 83       	st	Z, r24
	PORTE.DIR = 0xB0;
    1d18:	80 eb       	ldi	r24, 0xB0	; 176
    1d1a:	80 93 80 06 	sts	0x0680, r24
	PORTF.DIR = 0x01;
    1d1e:	81 e0       	ldi	r24, 0x01	; 1
    1d20:	80 93 a0 06 	sts	0x06A0, r24

	// LCD setup
	LCD_Driver LCD;
    1d24:	8e 01       	movw	r16, r28
    1d26:	02 59       	subi	r16, 0x92	; 146
    1d28:	1f 4f       	sbci	r17, 0xFF	; 255
    1d2a:	c8 01       	movw	r24, r16
    1d2c:	e3 db       	rcall	.-2106   	; 0x14f4 <_ZN10LCD_DriverC1Ev>
	LCDref = &LCD;
    1d2e:	00 93 ba 20 	sts	0x20BA, r16
    1d32:	10 93 bb 20 	sts	0x20BB, r17
	LCD.begin();
    1d36:	c8 01       	movw	r24, r16
    1d38:	39 dc       	rcall	.-1934   	; 0x15ac <_ZN10LCD_Driver5beginEv>
	LCD.fillScreen(0x0000);
    1d3a:	60 e0       	ldi	r22, 0x00	; 0
    1d3c:	70 e0       	ldi	r23, 0x00	; 0
    1d3e:	c8 01       	movw	r24, r16
    1d40:	83 de       	rcall	.-762    	; 0x1a48 <_ZN10LCD_Driver10fillScreenEj>
	LCD.setRotation(3);
    1d42:	63 e0       	ldi	r22, 0x03	; 3
    1d44:	c8 01       	movw	r24, r16
    1d46:	e9 dd       	rcall	.-1070   	; 0x191a <_ZN10LCD_Driver11setRotationEh>
	LCD.setCursor(0,0);
    1d48:	40 e0       	ldi	r20, 0x00	; 0
    1d4a:	50 e0       	ldi	r21, 0x00	; 0
    1d4c:	60 e0       	ldi	r22, 0x00	; 0
    1d4e:	70 e0       	ldi	r23, 0x00	; 0
    1d50:	c8 01       	movw	r24, r16
    1d52:	2a d8       	rcall	.-4012   	; 0xda8 <_ZN12Adafruit_GFX9setCursorEii>
	LCD.setTextColor(0xFFFF, 0x0000);
    1d54:	40 e0       	ldi	r20, 0x00	; 0
    1d56:	50 e0       	ldi	r21, 0x00	; 0
    1d58:	6f ef       	ldi	r22, 0xFF	; 255
    1d5a:	7f ef       	ldi	r23, 0xFF	; 255
    1d5c:	c8 01       	movw	r24, r16
    1d5e:	32 d8       	rcall	.-3996   	; 0xdc4 <_ZN12Adafruit_GFX12setTextColorEjj>
	LCD.setTextSize(2);
    1d60:	62 e0       	ldi	r22, 0x02	; 2
    1d62:	c8 01       	movw	r24, r16
    1d64:	29 d8       	rcall	.-4014   	; 0xdb8 <_ZN12Adafruit_GFX11setTextSizeEh>
	LCD.setTextWrap(true);
    1d66:	61 e0       	ldi	r22, 0x01	; 1
    1d68:	c8 01       	movw	r24, r16
    1d6a:	32 d8       	rcall	.-3996   	; 0xdd0 <_ZN12Adafruit_GFX11setTextWrapEb>
	//Touch toucj;
	//Touchref = &toucj;
	//_delay_ms(1000);
	
	// GPS setup
	GPS GPSModule;
    1d6c:	0d 56       	subi	r16, 0x6D	; 109
    1d6e:	11 09       	sbc	r17, r1
    1d70:	c8 01       	movw	r24, r16
    1d72:	1b d9       	rcall	.-3530   	; 0xfaa <_ZN3GPSC1Ev>
	GPSref = &GPSModule;
    1d74:	00 93 b8 20 	sts	0x20B8, r16
    1d78:	10 93 b9 20 	sts	0x20B9, r17

	// BT setup
	//BTOBD OBDModule;
	//OBDref = &OBDModule;

	PMIC.CTRL |= 0x07;
    1d7c:	e0 ea       	ldi	r30, 0xA0	; 160
    1d7e:	f0 e0       	ldi	r31, 0x00	; 0
    1d80:	82 81       	ldd	r24, Z+2	; 0x02
    1d82:	87 60       	ori	r24, 0x07	; 7
    1d84:	82 83       	std	Z+2, r24	; 0x02
	asm("sei");
    1d86:	78 94       	sei
		    //OBDModule.clearStatus();
		    //OBDModule.vomit(LCDref);
		}
	}*/

	GPSModule.init();
    1d88:	ce 01       	movw	r24, r28
    1d8a:	01 96       	adiw	r24, 0x01	; 1
    1d8c:	f9 d9       	rcall	.-3086   	; 0x1180 <_ZN3GPS4initEv>
	while (1) {
		GPSModule.updateRegisters();
    1d8e:	ce 01       	movw	r24, r28
    1d90:	01 96       	adiw	r24, 0x01	; 1
    1d92:	7e da       	rcall	.-2820   	; 0x1290 <_ZN3GPS15updateRegistersEv>
		GPSModule.vomit(LCDref);
    1d94:	60 91 ba 20 	lds	r22, 0x20BA
    1d98:	70 91 bb 20 	lds	r23, 0x20BB
    1d9c:	ce 01       	movw	r24, r28
    1d9e:	01 96       	adiw	r24, 0x01	; 1
    1da0:	17 db       	rcall	.-2514   	; 0x13d0 <_ZN3GPS5vomitEP10LCD_Driver>
    1da2:	f5 cf       	rjmp	.-22     	; 0x1d8e <main+0xa6>

00001da4 <_ZN6SDCardC1EP10SPI_struct>:
	return sdcard.write(buff, sector, count);
 }
 DRESULT disk_ioctl (BYTE pdrv, BYTE cmd, void* buff){
	if (!sdcard.IDMatch(pdrv)) return RES_PARERR;
	return sdcard.IOctl(cmd, buff);
 }
    1da4:	cf 93       	push	r28
    1da6:	df 93       	push	r29
    1da8:	ec 01       	movw	r28, r24
    1daa:	18 d0       	rcall	.+48     	; 0x1ddc <_ZN10SPI_DriverC1EP10SPI_struct>
    1dac:	81 e0       	ldi	r24, 0x01	; 1
    1dae:	8c 83       	std	Y+4, r24	; 0x04
    1db0:	e0 e8       	ldi	r30, 0x80	; 128
    1db2:	f6 e0       	ldi	r31, 0x06	; 6
    1db4:	80 81       	ld	r24, Z
    1db6:	83 7f       	andi	r24, 0xF3	; 243
    1db8:	80 83       	st	Z, r24
    1dba:	80 85       	ldd	r24, Z+8	; 0x08
    1dbc:	83 ff       	sbrs	r24, 3
    1dbe:	03 c0       	rjmp	.+6      	; 0x1dc6 <_ZN6SDCardC1EP10SPI_struct+0x22>
    1dc0:	8c 81       	ldd	r24, Y+4	; 0x04
    1dc2:	82 60       	ori	r24, 0x02	; 2
    1dc4:	8c 83       	std	Y+4, r24	; 0x04
    1dc6:	ce 01       	movw	r24, r28
    1dc8:	14 d0       	rcall	.+40     	; 0x1df2 <_ZN10SPI_Driver6enableEv>
    1dca:	df 91       	pop	r29
    1dcc:	cf 91       	pop	r28
    1dce:	08 95       	ret

00001dd0 <_GLOBAL__sub_I_sdcard>:
	DSTATUS getStatus();
	DRESULT read(BYTE* buff, DWORD sector, UINT count);
	DRESULT write(const BYTE* buff, DWORD sector, UINT count);
	DRESULT IOctl(BYTE ctrl, void* buff);
};
SDCard sdcard(&SPIE);
    1dd0:	60 ec       	ldi	r22, 0xC0	; 192
    1dd2:	7a e0       	ldi	r23, 0x0A	; 10
    1dd4:	8e eb       	ldi	r24, 0xBE	; 190
    1dd6:	90 e2       	ldi	r25, 0x20	; 32
    1dd8:	e5 cf       	rjmp	.-54     	; 0x1da4 <_ZN6SDCardC1EP10SPI_struct>
    1dda:	08 95       	ret

00001ddc <_ZN10SPI_DriverC1EP10SPI_struct>:
	//spi->INTCTRL = 0x03; // High level interrupt
	spi->INTCTRL = 0x00; // No interrupt, polling mode
 }
 void SPI_Driver::clockRate(char bit710) {
	spi->CTRL &= ~0x83;
	spi->CTRL |= bit710;
    1ddc:	dc 01       	movw	r26, r24
    1dde:	6d 93       	st	X+, r22
    1de0:	7c 93       	st	X, r23
    1de2:	11 97       	sbiw	r26, 0x01	; 1
    1de4:	23 e9       	ldi	r18, 0x93	; 147
    1de6:	fb 01       	movw	r30, r22
    1de8:	20 83       	st	Z, r18
    1dea:	ed 91       	ld	r30, X+
    1dec:	fc 91       	ld	r31, X
    1dee:	11 82       	std	Z+1, r1	; 0x01
    1df0:	08 95       	ret

00001df2 <_ZN10SPI_Driver6enableEv>:
 }
 void SPI_Driver::enable() {
	spi->CTRL |= 0x40;
    1df2:	dc 01       	movw	r26, r24
    1df4:	ed 91       	ld	r30, X+
    1df6:	fc 91       	ld	r31, X
    1df8:	80 81       	ld	r24, Z
    1dfa:	80 64       	ori	r24, 0x40	; 64
    1dfc:	80 83       	st	Z, r24
    1dfe:	08 95       	ret

00001e00 <_ZN5Touch8getCycleEv>:

void Touch::startY() {

	// Start ADC
	ADCA.CH0.MUXCTRL = 0x2F;
	ADCA.CH0.CTRL = 0x82;
    1e00:	fc 01       	movw	r30, r24
    1e02:	20 81       	ld	r18, Z
    1e04:	31 81       	ldd	r19, Z+1	; 0x01
    1e06:	2f 5f       	subi	r18, 0xFF	; 255
    1e08:	3f 4f       	sbci	r19, 0xFF	; 255
    1e0a:	24 30       	cpi	r18, 0x04	; 4
    1e0c:	31 05       	cpc	r19, r1
    1e0e:	19 f4       	brne	.+6      	; 0x1e16 <_ZN5Touch8getCycleEv+0x16>
    1e10:	80 e0       	ldi	r24, 0x00	; 0
    1e12:	90 e0       	ldi	r25, 0x00	; 0
    1e14:	02 c0       	rjmp	.+4      	; 0x1e1a <_ZN5Touch8getCycleEv+0x1a>
    1e16:	82 2f       	mov	r24, r18
    1e18:	93 2f       	mov	r25, r19
    1e1a:	80 83       	st	Z, r24
    1e1c:	91 83       	std	Z+1, r25	; 0x01
    1e1e:	08 95       	ret

00001e20 <_ZN5Touch6setupXEv>:

	//return ADCA.CH0.RES;
}

void Touch::setupX()
{
    1e20:	dc 01       	movw	r26, r24
    while(!(ADCA.CH0.INTFLAGS & 0x01));
    1e22:	e0 e0       	ldi	r30, 0x00	; 0
    1e24:	f2 e0       	ldi	r31, 0x02	; 2
    1e26:	83 a1       	ldd	r24, Z+35	; 0x23
    1e28:	80 ff       	sbrs	r24, 0
    1e2a:	fd cf       	rjmp	.-6      	; 0x1e26 <_ZN5Touch6setupXEv+0x6>
	xout = xin;
    1e2c:	16 96       	adiw	r26, 0x06	; 6
    1e2e:	8d 91       	ld	r24, X+
    1e30:	9c 91       	ld	r25, X
    1e32:	17 97       	sbiw	r26, 0x07	; 7
    1e34:	12 96       	adiw	r26, 0x02	; 2
    1e36:	8d 93       	st	X+, r24
    1e38:	9c 93       	st	X, r25
    1e3a:	13 97       	sbiw	r26, 0x03	; 3
	yout = ADCA.CH0.RES;
    1e3c:	e0 e0       	ldi	r30, 0x00	; 0
    1e3e:	f2 e0       	ldi	r31, 0x02	; 2
    1e40:	84 a1       	ldd	r24, Z+36	; 0x24
    1e42:	95 a1       	ldd	r25, Z+37	; 0x25
    1e44:	14 96       	adiw	r26, 0x04	; 4
    1e46:	8d 93       	st	X+, r24
    1e48:	9c 93       	st	X, r25
    1e4a:	15 97       	sbiw	r26, 0x05	; 5

    //// Set yp high, set xp input
	TFT_CTRL_PORT.DIRCLR = 0x50;
    1e4c:	e0 e0       	ldi	r30, 0x00	; 0
    1e4e:	f6 e0       	ldi	r31, 0x06	; 6
    1e50:	80 e5       	ldi	r24, 0x50	; 80
    1e52:	82 83       	std	Z+2, r24	; 0x02
	TFT_CTRL_PORT.DIRSET = 0xA0;
    1e54:	80 ea       	ldi	r24, 0xA0	; 160
    1e56:	81 83       	std	Z+1, r24	; 0x01
	TFT_Y_P_SET;
    1e58:	84 81       	ldd	r24, Z+4	; 0x04
    1e5a:	80 62       	ori	r24, 0x20	; 32
    1e5c:	84 83       	std	Z+4, r24	; 0x04
	TFT_Y_M_CLR;
    1e5e:	84 81       	ldd	r24, Z+4	; 0x04
    1e60:	8f 77       	andi	r24, 0x7F	; 127
    1e62:	84 83       	std	Z+4, r24	; 0x04
    1e64:	08 95       	ret

00001e66 <_ZN5Touch6setupYEv>:
}

void Touch::setupY()
{
    while(!(ADCA.CH0.INTFLAGS & 0x01));
    1e66:	e0 e0       	ldi	r30, 0x00	; 0
    1e68:	f2 e0       	ldi	r31, 0x02	; 2
    1e6a:	23 a1       	ldd	r18, Z+35	; 0x23
    1e6c:	20 ff       	sbrs	r18, 0
    1e6e:	fd cf       	rjmp	.-6      	; 0x1e6a <_ZN5Touch6setupYEv+0x4>
	xin = ADCA.CH0.RES;
    1e70:	e0 e0       	ldi	r30, 0x00	; 0
    1e72:	f2 e0       	ldi	r31, 0x02	; 2
    1e74:	24 a1       	ldd	r18, Z+36	; 0x24
    1e76:	35 a1       	ldd	r19, Z+37	; 0x25
    1e78:	fc 01       	movw	r30, r24
    1e7a:	26 83       	std	Z+6, r18	; 0x06
    1e7c:	37 83       	std	Z+7, r19	; 0x07

    // Set xp high, set yp input
	TFT_CTRL_PORT.DIRCLR = 0xA0;
    1e7e:	e0 e0       	ldi	r30, 0x00	; 0
    1e80:	f6 e0       	ldi	r31, 0x06	; 6
    1e82:	80 ea       	ldi	r24, 0xA0	; 160
    1e84:	82 83       	std	Z+2, r24	; 0x02
	TFT_CTRL_PORT.DIRSET = 0x50;
    1e86:	80 e5       	ldi	r24, 0x50	; 80
    1e88:	81 83       	std	Z+1, r24	; 0x01
	TFT_X_P_SET;
    1e8a:	84 81       	ldd	r24, Z+4	; 0x04
    1e8c:	80 61       	ori	r24, 0x10	; 16
    1e8e:	84 83       	std	Z+4, r24	; 0x04
	TFT_X_M_CLR;
    1e90:	84 81       	ldd	r24, Z+4	; 0x04
    1e92:	8f 7b       	andi	r24, 0xBF	; 191
    1e94:	84 83       	std	Z+4, r24	; 0x04
    1e96:	08 95       	ret

00001e98 <_ZN5Touch7processEv>:
}

void Touch::process()
{
    1e98:	cf 93       	push	r28
    1e9a:	df 93       	push	r29
    1e9c:	ec 01       	movw	r28, r24
    switch (this->getCycle())
    1e9e:	b0 df       	rcall	.-160    	; 0x1e00 <_ZN5Touch8getCycleEv>
    1ea0:	81 30       	cpi	r24, 0x01	; 1
    1ea2:	91 05       	cpc	r25, r1
    1ea4:	69 f0       	breq	.+26     	; 0x1ec0 <_ZN5Touch7processEv+0x28>
    1ea6:	1c f4       	brge	.+6      	; 0x1eae <_ZN5Touch7processEv+0x16>
    1ea8:	89 2b       	or	r24, r25
    1eaa:	39 f0       	breq	.+14     	; 0x1eba <_ZN5Touch7processEv+0x22>
    1eac:	1a c0       	rjmp	.+52     	; 0x1ee2 <_ZN5Touch7processEv+0x4a>
    1eae:	82 30       	cpi	r24, 0x02	; 2
    1eb0:	91 05       	cpc	r25, r1
    1eb2:	69 f0       	breq	.+26     	; 0x1ece <_ZN5Touch7processEv+0x36>
    1eb4:	03 97       	sbiw	r24, 0x03	; 3
    1eb6:	71 f0       	breq	.+28     	; 0x1ed4 <_ZN5Touch7processEv+0x3c>
    1eb8:	14 c0       	rjmp	.+40     	; 0x1ee2 <_ZN5Touch7processEv+0x4a>
	{
	    case 0: setupX(); break;
    1eba:	ce 01       	movw	r24, r28
    1ebc:	b1 df       	rcall	.-158    	; 0x1e20 <_ZN5Touch6setupXEv>
    1ebe:	12 c0       	rjmp	.+36     	; 0x1ee4 <_ZN5Touch7processEv+0x4c>
}

void Touch::startX() {

	// Start ADC
	ADCA.CH0.MUXCTRL = 0x27;
    1ec0:	e0 e0       	ldi	r30, 0x00	; 0
    1ec2:	f2 e0       	ldi	r31, 0x02	; 2
    1ec4:	87 e2       	ldi	r24, 0x27	; 39
    1ec6:	81 a3       	std	Z+33, r24	; 0x21
	ADCA.CH0.CTRL = 0x82;
    1ec8:	82 e8       	ldi	r24, 0x82	; 130
    1eca:	80 a3       	std	Z+32, r24	; 0x20
    1ecc:	0b c0       	rjmp	.+22     	; 0x1ee4 <_ZN5Touch7processEv+0x4c>
{
    switch (this->getCycle())
	{
	    case 0: setupX(); break;
		case 1: startX(); break;
		case 2: setupY(); break;
    1ece:	ce 01       	movw	r24, r28
    1ed0:	ca df       	rcall	.-108    	; 0x1e66 <_ZN5Touch6setupYEv>
    1ed2:	08 c0       	rjmp	.+16     	; 0x1ee4 <_ZN5Touch7processEv+0x4c>
}

void Touch::startY() {

	// Start ADC
	ADCA.CH0.MUXCTRL = 0x2F;
    1ed4:	e0 e0       	ldi	r30, 0x00	; 0
    1ed6:	f2 e0       	ldi	r31, 0x02	; 2
    1ed8:	8f e2       	ldi	r24, 0x2F	; 47
    1eda:	81 a3       	std	Z+33, r24	; 0x21
	ADCA.CH0.CTRL = 0x82;
    1edc:	82 e8       	ldi	r24, 0x82	; 130
    1ede:	80 a3       	std	Z+32, r24	; 0x20
    1ee0:	01 c0       	rjmp	.+2      	; 0x1ee4 <_ZN5Touch7processEv+0x4c>
	{
	    case 0: setupX(); break;
		case 1: startX(); break;
		case 2: setupY(); break;
		case 3: startY(); break;
		default: asm("nop");
    1ee2:	00 00       	nop
	}
}
    1ee4:	df 91       	pop	r29
    1ee6:	cf 91       	pop	r28
    1ee8:	08 95       	ret

00001eea <_ZN5Touch4getXEv>:

int Touch::getX()
{
    return this->xout;
}
    1eea:	fc 01       	movw	r30, r24
    1eec:	82 81       	ldd	r24, Z+2	; 0x02
    1eee:	93 81       	ldd	r25, Z+3	; 0x03
    1ef0:	08 95       	ret

00001ef2 <_ZN5Touch4getYEv>:

int Touch::getY()
{
    return this->yout;
    1ef2:	fc 01       	movw	r30, r24
    1ef4:	84 81       	ldd	r24, Z+4	; 0x04
    1ef6:	95 81       	ldd	r25, Z+5	; 0x05
    1ef8:	08 95       	ret

00001efa <_ZN10UartDriverC1Eii>:
char UartDriver::rxDequeue() {
	return rxQueue.dequeue();
}
bool UartDriver::rxIsEmpty() {
	return rxQueue.isEmpty();
}
    1efa:	0f 93       	push	r16
    1efc:	1f 93       	push	r17
    1efe:	cf 93       	push	r28
    1f00:	df 93       	push	r29
    1f02:	ec 01       	movw	r28, r24
    1f04:	8a 01       	movw	r16, r20
    1f06:	02 96       	adiw	r24, 0x02	; 2
    1f08:	0e 94 5c 07 	call	0xeb8	; 0xeb8 <_ZN9ByteQueueC1Ei>
    1f0c:	b8 01       	movw	r22, r16
    1f0e:	ce 01       	movw	r24, r28
    1f10:	0e 96       	adiw	r24, 0x0e	; 14
    1f12:	0e 94 5c 07 	call	0xeb8	; 0xeb8 <_ZN9ByteQueueC1Ei>
    1f16:	df 91       	pop	r29
    1f18:	cf 91       	pop	r28
    1f1a:	1f 91       	pop	r17
    1f1c:	0f 91       	pop	r16
    1f1e:	08 95       	ret

00001f20 <_ZN10UartDriver4initEP12USART_structN10ParityMode5PMODEEN8CharSize6CHSIZEEbcc>:
    1f20:	cf 92       	push	r12
    1f22:	ef 92       	push	r14
    1f24:	0f 93       	push	r16
    1f26:	fc 01       	movw	r30, r24
    1f28:	60 83       	st	Z, r22
    1f2a:	71 83       	std	Z+1, r23	; 0x01
    1f2c:	db 01       	movw	r26, r22
    1f2e:	15 96       	adiw	r26, 0x05	; 5
    1f30:	1c 92       	st	X, r1
    1f32:	a0 81       	ld	r26, Z
    1f34:	b1 81       	ldd	r27, Z+1	; 0x01
    1f36:	16 96       	adiw	r26, 0x06	; 6
    1f38:	ec 92       	st	X, r14
    1f3a:	a0 81       	ld	r26, Z
    1f3c:	b1 81       	ldd	r27, Z+1	; 0x01
    1f3e:	17 96       	adiw	r26, 0x07	; 7
    1f40:	cc 92       	st	X, r12
    1f42:	41 30       	cpi	r20, 0x01	; 1
    1f44:	49 f4       	brne	.+18     	; 0x1f58 <_ZN10UartDriver4initEP12USART_structN10ParityMode5PMODEEN8CharSize6CHSIZEEbcc+0x38>
    1f46:	a0 81       	ld	r26, Z
    1f48:	b1 81       	ldd	r27, Z+1	; 0x01
    1f4a:	15 96       	adiw	r26, 0x05	; 5
    1f4c:	8c 91       	ld	r24, X
    1f4e:	15 97       	sbiw	r26, 0x05	; 5
    1f50:	80 62       	ori	r24, 0x20	; 32
    1f52:	15 96       	adiw	r26, 0x05	; 5
    1f54:	8c 93       	st	X, r24
    1f56:	0a c0       	rjmp	.+20     	; 0x1f6c <_ZN10UartDriver4initEP12USART_structN10ParityMode5PMODEEN8CharSize6CHSIZEEbcc+0x4c>
    1f58:	42 30       	cpi	r20, 0x02	; 2
    1f5a:	41 f4       	brne	.+16     	; 0x1f6c <_ZN10UartDriver4initEP12USART_structN10ParityMode5PMODEEN8CharSize6CHSIZEEbcc+0x4c>
    1f5c:	a0 81       	ld	r26, Z
    1f5e:	b1 81       	ldd	r27, Z+1	; 0x01
    1f60:	15 96       	adiw	r26, 0x05	; 5
    1f62:	8c 91       	ld	r24, X
    1f64:	15 97       	sbiw	r26, 0x05	; 5
    1f66:	80 63       	ori	r24, 0x30	; 48
    1f68:	15 96       	adiw	r26, 0x05	; 5
    1f6a:	8c 93       	st	X, r24
    1f6c:	21 30       	cpi	r18, 0x01	; 1
    1f6e:	49 f4       	brne	.+18     	; 0x1f82 <_ZN10UartDriver4initEP12USART_structN10ParityMode5PMODEEN8CharSize6CHSIZEEbcc+0x62>
    1f70:	a0 81       	ld	r26, Z
    1f72:	b1 81       	ldd	r27, Z+1	; 0x01
    1f74:	15 96       	adiw	r26, 0x05	; 5
    1f76:	8c 91       	ld	r24, X
    1f78:	15 97       	sbiw	r26, 0x05	; 5
    1f7a:	81 60       	ori	r24, 0x01	; 1
    1f7c:	15 96       	adiw	r26, 0x05	; 5
    1f7e:	8c 93       	st	X, r24
    1f80:	20 c0       	rjmp	.+64     	; 0x1fc2 <_ZN10UartDriver4initEP12USART_structN10ParityMode5PMODEEN8CharSize6CHSIZEEbcc+0xa2>
    1f82:	22 30       	cpi	r18, 0x02	; 2
    1f84:	49 f4       	brne	.+18     	; 0x1f98 <_ZN10UartDriver4initEP12USART_structN10ParityMode5PMODEEN8CharSize6CHSIZEEbcc+0x78>
    1f86:	a0 81       	ld	r26, Z
    1f88:	b1 81       	ldd	r27, Z+1	; 0x01
    1f8a:	15 96       	adiw	r26, 0x05	; 5
    1f8c:	8c 91       	ld	r24, X
    1f8e:	15 97       	sbiw	r26, 0x05	; 5
    1f90:	82 60       	ori	r24, 0x02	; 2
    1f92:	15 96       	adiw	r26, 0x05	; 5
    1f94:	8c 93       	st	X, r24
    1f96:	15 c0       	rjmp	.+42     	; 0x1fc2 <_ZN10UartDriver4initEP12USART_structN10ParityMode5PMODEEN8CharSize6CHSIZEEbcc+0xa2>
    1f98:	23 30       	cpi	r18, 0x03	; 3
    1f9a:	49 f4       	brne	.+18     	; 0x1fae <_ZN10UartDriver4initEP12USART_structN10ParityMode5PMODEEN8CharSize6CHSIZEEbcc+0x8e>
    1f9c:	a0 81       	ld	r26, Z
    1f9e:	b1 81       	ldd	r27, Z+1	; 0x01
    1fa0:	15 96       	adiw	r26, 0x05	; 5
    1fa2:	8c 91       	ld	r24, X
    1fa4:	15 97       	sbiw	r26, 0x05	; 5
    1fa6:	83 60       	ori	r24, 0x03	; 3
    1fa8:	15 96       	adiw	r26, 0x05	; 5
    1faa:	8c 93       	st	X, r24
    1fac:	0a c0       	rjmp	.+20     	; 0x1fc2 <_ZN10UartDriver4initEP12USART_structN10ParityMode5PMODEEN8CharSize6CHSIZEEbcc+0xa2>
    1fae:	24 30       	cpi	r18, 0x04	; 4
    1fb0:	41 f4       	brne	.+16     	; 0x1fc2 <_ZN10UartDriver4initEP12USART_structN10ParityMode5PMODEEN8CharSize6CHSIZEEbcc+0xa2>
    1fb2:	a0 81       	ld	r26, Z
    1fb4:	b1 81       	ldd	r27, Z+1	; 0x01
    1fb6:	15 96       	adiw	r26, 0x05	; 5
    1fb8:	8c 91       	ld	r24, X
    1fba:	15 97       	sbiw	r26, 0x05	; 5
    1fbc:	87 60       	ori	r24, 0x07	; 7
    1fbe:	15 96       	adiw	r26, 0x05	; 5
    1fc0:	8c 93       	st	X, r24
    1fc2:	00 23       	and	r16, r16
    1fc4:	41 f0       	breq	.+16     	; 0x1fd6 <_ZN10UartDriver4initEP12USART_structN10ParityMode5PMODEEN8CharSize6CHSIZEEbcc+0xb6>
    1fc6:	a0 81       	ld	r26, Z
    1fc8:	b1 81       	ldd	r27, Z+1	; 0x01
    1fca:	15 96       	adiw	r26, 0x05	; 5
    1fcc:	8c 91       	ld	r24, X
    1fce:	15 97       	sbiw	r26, 0x05	; 5
    1fd0:	88 60       	ori	r24, 0x08	; 8
    1fd2:	15 96       	adiw	r26, 0x05	; 5
    1fd4:	8c 93       	st	X, r24
    1fd6:	a0 81       	ld	r26, Z
    1fd8:	b1 81       	ldd	r27, Z+1	; 0x01
    1fda:	8f e3       	ldi	r24, 0x3F	; 63
    1fdc:	13 96       	adiw	r26, 0x03	; 3
    1fde:	8c 93       	st	X, r24
    1fe0:	01 90       	ld	r0, Z+
    1fe2:	f0 81       	ld	r31, Z
    1fe4:	e0 2d       	mov	r30, r0
    1fe6:	88 e1       	ldi	r24, 0x18	; 24
    1fe8:	84 83       	std	Z+4, r24	; 0x04
    1fea:	0f 91       	pop	r16
    1fec:	ef 90       	pop	r14
    1fee:	cf 90       	pop	r12
    1ff0:	08 95       	ret

00001ff2 <_ZN10UartDriver8sendByteEc>:
    1ff2:	cf 93       	push	r28
    1ff4:	df 93       	push	r29
    1ff6:	ec 01       	movw	r28, r24
    1ff8:	e8 81       	ld	r30, Y
    1ffa:	f9 81       	ldd	r31, Y+1	; 0x01
    1ffc:	81 81       	ldd	r24, Z+1	; 0x01
    1ffe:	85 ff       	sbrs	r24, 5
    2000:	02 c0       	rjmp	.+4      	; 0x2006 <_ZN10UartDriver8sendByteEc+0x14>
    2002:	60 83       	st	Z, r22
    2004:	04 c0       	rjmp	.+8      	; 0x200e <_ZN10UartDriver8sendByteEc+0x1c>
    2006:	ce 01       	movw	r24, r28
    2008:	0e 96       	adiw	r24, 0x0e	; 14
    200a:	0e 94 71 07 	call	0xee2	; 0xee2 <_ZN9ByteQueue7enqueueEc>
    200e:	e8 81       	ld	r30, Y
    2010:	f9 81       	ldd	r31, Y+1	; 0x01
    2012:	83 81       	ldd	r24, Z+3	; 0x03
    2014:	83 60       	ori	r24, 0x03	; 3
    2016:	83 83       	std	Z+3, r24	; 0x03
    2018:	df 91       	pop	r29
    201a:	cf 91       	pop	r28
    201c:	08 95       	ret

0000201e <_ZN10UartDriver7rcvByteEc>:
    201e:	02 96       	adiw	r24, 0x02	; 2
    2020:	0c 94 71 07 	jmp	0xee2	; 0xee2 <_ZN9ByteQueue7enqueueEc>
    2024:	08 95       	ret

00002026 <_ZN10UartDriver9rxDequeueEv>:
    2026:	02 96       	adiw	r24, 0x02	; 2
    2028:	0c 94 9a 07 	jmp	0xf34	; 0xf34 <_ZN9ByteQueue7dequeueEv>
    202c:	08 95       	ret

0000202e <_ZN10UartDriver9txIsEmptyEv>:
bool UartDriver::txIsEmpty() {
	return txQueue.isEmpty();
    202e:	0e 96       	adiw	r24, 0x0e	; 14
    2030:	0c 94 cd 07 	jmp	0xf9a	; 0xf9a <_ZN9ByteQueue7isEmptyEv>
}
    2034:	08 95       	ret

00002036 <_ZN10UartDriver9txDequeueEv>:
char UartDriver::txDequeue() {
	return txQueue.dequeue();
    2036:	0e 96       	adiw	r24, 0x0e	; 14
    2038:	0c 94 9a 07 	jmp	0xf34	; 0xf34 <_ZN9ByteQueue7dequeueEv>
}
    203c:	08 95       	ret

0000203e <_ZN10UartDriver11getUARTPortEv>:
USART_t * UartDriver::getUARTPort() {
	return uval;
}
    203e:	fc 01       	movw	r30, r24
    2040:	80 81       	ld	r24, Z
    2042:	91 81       	ldd	r25, Z+1	; 0x01
    2044:	08 95       	ret

00002046 <_ZN10UartDriver10sendStringEPKcih>:

BYTE UartDriver::sendString(const char * str, int numchars, BYTE checksum) {
    2046:	af 92       	push	r10
    2048:	bf 92       	push	r11
    204a:	cf 92       	push	r12
    204c:	df 92       	push	r13
    204e:	ef 92       	push	r14
    2050:	ff 92       	push	r15
    2052:	0f 93       	push	r16
    2054:	1f 93       	push	r17
    2056:	cf 93       	push	r28
    2058:	df 93       	push	r29
    205a:	00 d0       	rcall	.+0      	; 0x205c <_ZN10UartDriver10sendStringEPKcih+0x16>
    205c:	cd b7       	in	r28, 0x3d	; 61
    205e:	de b7       	in	r29, 0x3e	; 62
    2060:	5c 01       	movw	r10, r24
    2062:	7b 01       	movw	r14, r22
    2064:	6a 01       	movw	r12, r20
    2066:	2b 83       	std	Y+3, r18	; 0x03
	 for (volatile int i = 0; i < numchars; i++) {
    2068:	19 82       	std	Y+1, r1	; 0x01
    206a:	1a 82       	std	Y+2, r1	; 0x02
    206c:	89 81       	ldd	r24, Y+1	; 0x01
    206e:	9a 81       	ldd	r25, Y+2	; 0x02
    2070:	84 17       	cp	r24, r20
    2072:	95 07       	cpc	r25, r21
    2074:	b4 f5       	brge	.+108    	; 0x20e2 <_ZN10UartDriver10sendStringEPKcih+0x9c>
		if (str[i] == '\0') break;
    2076:	e9 81       	ldd	r30, Y+1	; 0x01
    2078:	fa 81       	ldd	r31, Y+2	; 0x02
    207a:	e6 0f       	add	r30, r22
    207c:	f7 1f       	adc	r31, r23
    207e:	80 81       	ld	r24, Z
    2080:	88 23       	and	r24, r24
    2082:	79 f1       	breq	.+94     	; 0x20e2 <_ZN10UartDriver10sendStringEPKcih+0x9c>
		if (str[i] != '$' && str[i] != '*') checksum ^= str[i];
		while (txQueue.isFull()) {}
    2084:	85 01       	movw	r16, r10
    2086:	02 5f       	subi	r16, 0xF2	; 242
    2088:	1f 4f       	sbci	r17, 0xFF	; 255
    208a:	07 c0       	rjmp	.+14     	; 0x209a <_ZN10UartDriver10sendStringEPKcih+0x54>
	return uval;
}

BYTE UartDriver::sendString(const char * str, int numchars, BYTE checksum) {
	 for (volatile int i = 0; i < numchars; i++) {
		if (str[i] == '\0') break;
    208c:	e9 81       	ldd	r30, Y+1	; 0x01
    208e:	fa 81       	ldd	r31, Y+2	; 0x02
    2090:	ee 0d       	add	r30, r14
    2092:	ff 1d       	adc	r31, r15
    2094:	80 81       	ld	r24, Z
    2096:	88 23       	and	r24, r24
    2098:	21 f1       	breq	.+72     	; 0x20e2 <_ZN10UartDriver10sendStringEPKcih+0x9c>
		if (str[i] != '$' && str[i] != '*') checksum ^= str[i];
    209a:	e9 81       	ldd	r30, Y+1	; 0x01
    209c:	fa 81       	ldd	r31, Y+2	; 0x02
    209e:	ee 0d       	add	r30, r14
    20a0:	ff 1d       	adc	r31, r15
    20a2:	80 81       	ld	r24, Z
    20a4:	84 32       	cpi	r24, 0x24	; 36
    20a6:	39 f0       	breq	.+14     	; 0x20b6 <_ZN10UartDriver10sendStringEPKcih+0x70>
    20a8:	e9 81       	ldd	r30, Y+1	; 0x01
    20aa:	fa 81       	ldd	r31, Y+2	; 0x02
    20ac:	ee 0d       	add	r30, r14
    20ae:	ff 1d       	adc	r31, r15
    20b0:	80 81       	ld	r24, Z
    20b2:	8a 32       	cpi	r24, 0x2A	; 42
    20b4:	c1 f4       	brne	.+48     	; 0x20e6 <_ZN10UartDriver10sendStringEPKcih+0xa0>
		while (txQueue.isFull()) {}
    20b6:	c8 01       	movw	r24, r16
    20b8:	0e 94 c2 07 	call	0xf84	; 0xf84 <_ZN9ByteQueue6isFullEv>
    20bc:	81 11       	cpse	r24, r1
    20be:	fb cf       	rjmp	.-10     	; 0x20b6 <_ZN10UartDriver10sendStringEPKcih+0x70>
		this->sendByte(str[i]);
    20c0:	e9 81       	ldd	r30, Y+1	; 0x01
    20c2:	fa 81       	ldd	r31, Y+2	; 0x02
    20c4:	ee 0d       	add	r30, r14
    20c6:	ff 1d       	adc	r31, r15
    20c8:	60 81       	ld	r22, Z
    20ca:	c5 01       	movw	r24, r10
    20cc:	92 df       	rcall	.-220    	; 0x1ff2 <_ZN10UartDriver8sendByteEc>
USART_t * UartDriver::getUARTPort() {
	return uval;
}

BYTE UartDriver::sendString(const char * str, int numchars, BYTE checksum) {
	 for (volatile int i = 0; i < numchars; i++) {
    20ce:	89 81       	ldd	r24, Y+1	; 0x01
    20d0:	9a 81       	ldd	r25, Y+2	; 0x02
    20d2:	01 96       	adiw	r24, 0x01	; 1
    20d4:	89 83       	std	Y+1, r24	; 0x01
    20d6:	9a 83       	std	Y+2, r25	; 0x02
    20d8:	29 81       	ldd	r18, Y+1	; 0x01
    20da:	3a 81       	ldd	r19, Y+2	; 0x02
    20dc:	2c 15       	cp	r18, r12
    20de:	3d 05       	cpc	r19, r13
    20e0:	ac f2       	brlt	.-86     	; 0x208c <_ZN10UartDriver10sendStringEPKcih+0x46>
		if (str[i] != '$' && str[i] != '*') checksum ^= str[i];
		while (txQueue.isFull()) {}
		this->sendByte(str[i]);
	 }

	 return checksum;
    20e2:	8b 81       	ldd	r24, Y+3	; 0x03
    20e4:	09 c0       	rjmp	.+18     	; 0x20f8 <_ZN10UartDriver10sendStringEPKcih+0xb2>
}

BYTE UartDriver::sendString(const char * str, int numchars, BYTE checksum) {
	 for (volatile int i = 0; i < numchars; i++) {
		if (str[i] == '\0') break;
		if (str[i] != '$' && str[i] != '*') checksum ^= str[i];
    20e6:	e9 81       	ldd	r30, Y+1	; 0x01
    20e8:	fa 81       	ldd	r31, Y+2	; 0x02
    20ea:	9b 81       	ldd	r25, Y+3	; 0x03
    20ec:	ee 0d       	add	r30, r14
    20ee:	ff 1d       	adc	r31, r15
    20f0:	80 81       	ld	r24, Z
    20f2:	89 27       	eor	r24, r25
    20f4:	8b 83       	std	Y+3, r24	; 0x03
    20f6:	df cf       	rjmp	.-66     	; 0x20b6 <_ZN10UartDriver10sendStringEPKcih+0x70>
		while (txQueue.isFull()) {}
		this->sendByte(str[i]);
	 }

	 return checksum;
    20f8:	23 96       	adiw	r28, 0x03	; 3
    20fa:	cd bf       	out	0x3d, r28	; 61
    20fc:	de bf       	out	0x3e, r29	; 62
    20fe:	df 91       	pop	r29
    2100:	cf 91       	pop	r28
    2102:	1f 91       	pop	r17
    2104:	0f 91       	pop	r16
    2106:	ff 90       	pop	r15
    2108:	ef 90       	pop	r14
    210a:	df 90       	pop	r13
    210c:	cf 90       	pop	r12
    210e:	bf 90       	pop	r11
    2110:	af 90       	pop	r10
    2112:	08 95       	ret

00002114 <__fixsfsi>:
    2114:	04 d0       	rcall	.+8      	; 0x211e <__fixunssfsi>
    2116:	68 94       	set
    2118:	b1 11       	cpse	r27, r1
    211a:	8d c0       	rjmp	.+282    	; 0x2236 <__fp_szero>
    211c:	08 95       	ret

0000211e <__fixunssfsi>:
    211e:	70 d0       	rcall	.+224    	; 0x2200 <__fp_splitA>
    2120:	88 f0       	brcs	.+34     	; 0x2144 <__fixunssfsi+0x26>
    2122:	9f 57       	subi	r25, 0x7F	; 127
    2124:	90 f0       	brcs	.+36     	; 0x214a <__fixunssfsi+0x2c>
    2126:	b9 2f       	mov	r27, r25
    2128:	99 27       	eor	r25, r25
    212a:	b7 51       	subi	r27, 0x17	; 23
    212c:	a0 f0       	brcs	.+40     	; 0x2156 <__fixunssfsi+0x38>
    212e:	d1 f0       	breq	.+52     	; 0x2164 <__fixunssfsi+0x46>
    2130:	66 0f       	add	r22, r22
    2132:	77 1f       	adc	r23, r23
    2134:	88 1f       	adc	r24, r24
    2136:	99 1f       	adc	r25, r25
    2138:	1a f0       	brmi	.+6      	; 0x2140 <__fixunssfsi+0x22>
    213a:	ba 95       	dec	r27
    213c:	c9 f7       	brne	.-14     	; 0x2130 <__fixunssfsi+0x12>
    213e:	12 c0       	rjmp	.+36     	; 0x2164 <__fixunssfsi+0x46>
    2140:	b1 30       	cpi	r27, 0x01	; 1
    2142:	81 f0       	breq	.+32     	; 0x2164 <__fixunssfsi+0x46>
    2144:	77 d0       	rcall	.+238    	; 0x2234 <__fp_zero>
    2146:	b1 e0       	ldi	r27, 0x01	; 1
    2148:	08 95       	ret
    214a:	74 c0       	rjmp	.+232    	; 0x2234 <__fp_zero>
    214c:	67 2f       	mov	r22, r23
    214e:	78 2f       	mov	r23, r24
    2150:	88 27       	eor	r24, r24
    2152:	b8 5f       	subi	r27, 0xF8	; 248
    2154:	39 f0       	breq	.+14     	; 0x2164 <__fixunssfsi+0x46>
    2156:	b9 3f       	cpi	r27, 0xF9	; 249
    2158:	cc f3       	brlt	.-14     	; 0x214c <__fixunssfsi+0x2e>
    215a:	86 95       	lsr	r24
    215c:	77 95       	ror	r23
    215e:	67 95       	ror	r22
    2160:	b3 95       	inc	r27
    2162:	d9 f7       	brne	.-10     	; 0x215a <__fixunssfsi+0x3c>
    2164:	3e f4       	brtc	.+14     	; 0x2174 <__fixunssfsi+0x56>
    2166:	90 95       	com	r25
    2168:	80 95       	com	r24
    216a:	70 95       	com	r23
    216c:	61 95       	neg	r22
    216e:	7f 4f       	sbci	r23, 0xFF	; 255
    2170:	8f 4f       	sbci	r24, 0xFF	; 255
    2172:	9f 4f       	sbci	r25, 0xFF	; 255
    2174:	08 95       	ret

00002176 <__floatunsisf>:
    2176:	e8 94       	clt
    2178:	09 c0       	rjmp	.+18     	; 0x218c <__floatsisf+0x12>

0000217a <__floatsisf>:
    217a:	97 fb       	bst	r25, 7
    217c:	3e f4       	brtc	.+14     	; 0x218c <__floatsisf+0x12>
    217e:	90 95       	com	r25
    2180:	80 95       	com	r24
    2182:	70 95       	com	r23
    2184:	61 95       	neg	r22
    2186:	7f 4f       	sbci	r23, 0xFF	; 255
    2188:	8f 4f       	sbci	r24, 0xFF	; 255
    218a:	9f 4f       	sbci	r25, 0xFF	; 255
    218c:	99 23       	and	r25, r25
    218e:	a9 f0       	breq	.+42     	; 0x21ba <__floatsisf+0x40>
    2190:	f9 2f       	mov	r31, r25
    2192:	96 e9       	ldi	r25, 0x96	; 150
    2194:	bb 27       	eor	r27, r27
    2196:	93 95       	inc	r25
    2198:	f6 95       	lsr	r31
    219a:	87 95       	ror	r24
    219c:	77 95       	ror	r23
    219e:	67 95       	ror	r22
    21a0:	b7 95       	ror	r27
    21a2:	f1 11       	cpse	r31, r1
    21a4:	f8 cf       	rjmp	.-16     	; 0x2196 <__floatsisf+0x1c>
    21a6:	fa f4       	brpl	.+62     	; 0x21e6 <__floatsisf+0x6c>
    21a8:	bb 0f       	add	r27, r27
    21aa:	11 f4       	brne	.+4      	; 0x21b0 <__floatsisf+0x36>
    21ac:	60 ff       	sbrs	r22, 0
    21ae:	1b c0       	rjmp	.+54     	; 0x21e6 <__floatsisf+0x6c>
    21b0:	6f 5f       	subi	r22, 0xFF	; 255
    21b2:	7f 4f       	sbci	r23, 0xFF	; 255
    21b4:	8f 4f       	sbci	r24, 0xFF	; 255
    21b6:	9f 4f       	sbci	r25, 0xFF	; 255
    21b8:	16 c0       	rjmp	.+44     	; 0x21e6 <__floatsisf+0x6c>
    21ba:	88 23       	and	r24, r24
    21bc:	11 f0       	breq	.+4      	; 0x21c2 <__floatsisf+0x48>
    21be:	96 e9       	ldi	r25, 0x96	; 150
    21c0:	11 c0       	rjmp	.+34     	; 0x21e4 <__floatsisf+0x6a>
    21c2:	77 23       	and	r23, r23
    21c4:	21 f0       	breq	.+8      	; 0x21ce <__floatsisf+0x54>
    21c6:	9e e8       	ldi	r25, 0x8E	; 142
    21c8:	87 2f       	mov	r24, r23
    21ca:	76 2f       	mov	r23, r22
    21cc:	05 c0       	rjmp	.+10     	; 0x21d8 <__floatsisf+0x5e>
    21ce:	66 23       	and	r22, r22
    21d0:	71 f0       	breq	.+28     	; 0x21ee <__floatsisf+0x74>
    21d2:	96 e8       	ldi	r25, 0x86	; 134
    21d4:	86 2f       	mov	r24, r22
    21d6:	70 e0       	ldi	r23, 0x00	; 0
    21d8:	60 e0       	ldi	r22, 0x00	; 0
    21da:	2a f0       	brmi	.+10     	; 0x21e6 <__floatsisf+0x6c>
    21dc:	9a 95       	dec	r25
    21de:	66 0f       	add	r22, r22
    21e0:	77 1f       	adc	r23, r23
    21e2:	88 1f       	adc	r24, r24
    21e4:	da f7       	brpl	.-10     	; 0x21dc <__floatsisf+0x62>
    21e6:	88 0f       	add	r24, r24
    21e8:	96 95       	lsr	r25
    21ea:	87 95       	ror	r24
    21ec:	97 f9       	bld	r25, 7
    21ee:	08 95       	ret

000021f0 <__fp_split3>:
    21f0:	57 fd       	sbrc	r21, 7
    21f2:	90 58       	subi	r25, 0x80	; 128
    21f4:	44 0f       	add	r20, r20
    21f6:	55 1f       	adc	r21, r21
    21f8:	59 f0       	breq	.+22     	; 0x2210 <__fp_splitA+0x10>
    21fa:	5f 3f       	cpi	r21, 0xFF	; 255
    21fc:	71 f0       	breq	.+28     	; 0x221a <__fp_splitA+0x1a>
    21fe:	47 95       	ror	r20

00002200 <__fp_splitA>:
    2200:	88 0f       	add	r24, r24
    2202:	97 fb       	bst	r25, 7
    2204:	99 1f       	adc	r25, r25
    2206:	61 f0       	breq	.+24     	; 0x2220 <__fp_splitA+0x20>
    2208:	9f 3f       	cpi	r25, 0xFF	; 255
    220a:	79 f0       	breq	.+30     	; 0x222a <__fp_splitA+0x2a>
    220c:	87 95       	ror	r24
    220e:	08 95       	ret
    2210:	12 16       	cp	r1, r18
    2212:	13 06       	cpc	r1, r19
    2214:	14 06       	cpc	r1, r20
    2216:	55 1f       	adc	r21, r21
    2218:	f2 cf       	rjmp	.-28     	; 0x21fe <__fp_split3+0xe>
    221a:	46 95       	lsr	r20
    221c:	f1 df       	rcall	.-30     	; 0x2200 <__fp_splitA>
    221e:	08 c0       	rjmp	.+16     	; 0x2230 <__fp_splitA+0x30>
    2220:	16 16       	cp	r1, r22
    2222:	17 06       	cpc	r1, r23
    2224:	18 06       	cpc	r1, r24
    2226:	99 1f       	adc	r25, r25
    2228:	f1 cf       	rjmp	.-30     	; 0x220c <__fp_splitA+0xc>
    222a:	86 95       	lsr	r24
    222c:	71 05       	cpc	r23, r1
    222e:	61 05       	cpc	r22, r1
    2230:	08 94       	sec
    2232:	08 95       	ret

00002234 <__fp_zero>:
    2234:	e8 94       	clt

00002236 <__fp_szero>:
    2236:	bb 27       	eor	r27, r27
    2238:	66 27       	eor	r22, r22
    223a:	77 27       	eor	r23, r23
    223c:	cb 01       	movw	r24, r22
    223e:	97 f9       	bld	r25, 7
    2240:	08 95       	ret

00002242 <__gesf2>:
    2242:	03 d0       	rcall	.+6      	; 0x224a <__fp_cmp>
    2244:	08 f4       	brcc	.+2      	; 0x2248 <__gesf2+0x6>
    2246:	8f ef       	ldi	r24, 0xFF	; 255
    2248:	08 95       	ret

0000224a <__fp_cmp>:
    224a:	99 0f       	add	r25, r25
    224c:	00 08       	sbc	r0, r0
    224e:	55 0f       	add	r21, r21
    2250:	aa 0b       	sbc	r26, r26
    2252:	e0 e8       	ldi	r30, 0x80	; 128
    2254:	fe ef       	ldi	r31, 0xFE	; 254
    2256:	16 16       	cp	r1, r22
    2258:	17 06       	cpc	r1, r23
    225a:	e8 07       	cpc	r30, r24
    225c:	f9 07       	cpc	r31, r25
    225e:	c0 f0       	brcs	.+48     	; 0x2290 <__fp_cmp+0x46>
    2260:	12 16       	cp	r1, r18
    2262:	13 06       	cpc	r1, r19
    2264:	e4 07       	cpc	r30, r20
    2266:	f5 07       	cpc	r31, r21
    2268:	98 f0       	brcs	.+38     	; 0x2290 <__fp_cmp+0x46>
    226a:	62 1b       	sub	r22, r18
    226c:	73 0b       	sbc	r23, r19
    226e:	84 0b       	sbc	r24, r20
    2270:	95 0b       	sbc	r25, r21
    2272:	39 f4       	brne	.+14     	; 0x2282 <__fp_cmp+0x38>
    2274:	0a 26       	eor	r0, r26
    2276:	61 f0       	breq	.+24     	; 0x2290 <__fp_cmp+0x46>
    2278:	23 2b       	or	r18, r19
    227a:	24 2b       	or	r18, r20
    227c:	25 2b       	or	r18, r21
    227e:	21 f4       	brne	.+8      	; 0x2288 <__fp_cmp+0x3e>
    2280:	08 95       	ret
    2282:	0a 26       	eor	r0, r26
    2284:	09 f4       	brne	.+2      	; 0x2288 <__fp_cmp+0x3e>
    2286:	a1 40       	sbci	r26, 0x01	; 1
    2288:	a6 95       	lsr	r26
    228a:	8f ef       	ldi	r24, 0xFF	; 255
    228c:	81 1d       	adc	r24, r1
    228e:	81 1d       	adc	r24, r1
    2290:	08 95       	ret

00002292 <__tablejump2__>:
    2292:	ee 0f       	add	r30, r30
    2294:	ff 1f       	adc	r31, r31

00002296 <__tablejump__>:
    2296:	05 90       	lpm	r0, Z+
    2298:	f4 91       	lpm	r31, Z
    229a:	e0 2d       	mov	r30, r0
    229c:	19 94       	eijmp

0000229e <__tablejump_elpm__>:
    229e:	07 90       	elpm	r0, Z+
    22a0:	f6 91       	elpm	r31, Z
    22a2:	e0 2d       	mov	r30, r0
    22a4:	19 94       	eijmp

000022a6 <malloc>:
    22a6:	cf 93       	push	r28
    22a8:	df 93       	push	r29
    22aa:	82 30       	cpi	r24, 0x02	; 2
    22ac:	91 05       	cpc	r25, r1
    22ae:	10 f4       	brcc	.+4      	; 0x22b4 <malloc+0xe>
    22b0:	82 e0       	ldi	r24, 0x02	; 2
    22b2:	90 e0       	ldi	r25, 0x00	; 0
    22b4:	e0 91 c5 20 	lds	r30, 0x20C5
    22b8:	f0 91 c6 20 	lds	r31, 0x20C6
    22bc:	20 e0       	ldi	r18, 0x00	; 0
    22be:	30 e0       	ldi	r19, 0x00	; 0
    22c0:	a0 e0       	ldi	r26, 0x00	; 0
    22c2:	b0 e0       	ldi	r27, 0x00	; 0
    22c4:	30 97       	sbiw	r30, 0x00	; 0
    22c6:	39 f1       	breq	.+78     	; 0x2316 <malloc+0x70>
    22c8:	40 81       	ld	r20, Z
    22ca:	51 81       	ldd	r21, Z+1	; 0x01
    22cc:	48 17       	cp	r20, r24
    22ce:	59 07       	cpc	r21, r25
    22d0:	b8 f0       	brcs	.+46     	; 0x2300 <malloc+0x5a>
    22d2:	48 17       	cp	r20, r24
    22d4:	59 07       	cpc	r21, r25
    22d6:	71 f4       	brne	.+28     	; 0x22f4 <malloc+0x4e>
    22d8:	82 81       	ldd	r24, Z+2	; 0x02
    22da:	93 81       	ldd	r25, Z+3	; 0x03
    22dc:	10 97       	sbiw	r26, 0x00	; 0
    22de:	29 f0       	breq	.+10     	; 0x22ea <malloc+0x44>
    22e0:	12 96       	adiw	r26, 0x02	; 2
    22e2:	8d 93       	st	X+, r24
    22e4:	9c 93       	st	X, r25
    22e6:	13 97       	sbiw	r26, 0x03	; 3
    22e8:	2c c0       	rjmp	.+88     	; 0x2342 <malloc+0x9c>
    22ea:	80 93 c5 20 	sts	0x20C5, r24
    22ee:	90 93 c6 20 	sts	0x20C6, r25
    22f2:	27 c0       	rjmp	.+78     	; 0x2342 <malloc+0x9c>
    22f4:	21 15       	cp	r18, r1
    22f6:	31 05       	cpc	r19, r1
    22f8:	31 f0       	breq	.+12     	; 0x2306 <malloc+0x60>
    22fa:	42 17       	cp	r20, r18
    22fc:	53 07       	cpc	r21, r19
    22fe:	18 f0       	brcs	.+6      	; 0x2306 <malloc+0x60>
    2300:	a9 01       	movw	r20, r18
    2302:	db 01       	movw	r26, r22
    2304:	01 c0       	rjmp	.+2      	; 0x2308 <malloc+0x62>
    2306:	ef 01       	movw	r28, r30
    2308:	9a 01       	movw	r18, r20
    230a:	bd 01       	movw	r22, r26
    230c:	df 01       	movw	r26, r30
    230e:	02 80       	ldd	r0, Z+2	; 0x02
    2310:	f3 81       	ldd	r31, Z+3	; 0x03
    2312:	e0 2d       	mov	r30, r0
    2314:	d7 cf       	rjmp	.-82     	; 0x22c4 <malloc+0x1e>
    2316:	21 15       	cp	r18, r1
    2318:	31 05       	cpc	r19, r1
    231a:	f9 f0       	breq	.+62     	; 0x235a <malloc+0xb4>
    231c:	28 1b       	sub	r18, r24
    231e:	39 0b       	sbc	r19, r25
    2320:	24 30       	cpi	r18, 0x04	; 4
    2322:	31 05       	cpc	r19, r1
    2324:	80 f4       	brcc	.+32     	; 0x2346 <malloc+0xa0>
    2326:	8a 81       	ldd	r24, Y+2	; 0x02
    2328:	9b 81       	ldd	r25, Y+3	; 0x03
    232a:	61 15       	cp	r22, r1
    232c:	71 05       	cpc	r23, r1
    232e:	21 f0       	breq	.+8      	; 0x2338 <malloc+0x92>
    2330:	fb 01       	movw	r30, r22
    2332:	82 83       	std	Z+2, r24	; 0x02
    2334:	93 83       	std	Z+3, r25	; 0x03
    2336:	04 c0       	rjmp	.+8      	; 0x2340 <malloc+0x9a>
    2338:	80 93 c5 20 	sts	0x20C5, r24
    233c:	90 93 c6 20 	sts	0x20C6, r25
    2340:	fe 01       	movw	r30, r28
    2342:	32 96       	adiw	r30, 0x02	; 2
    2344:	44 c0       	rjmp	.+136    	; 0x23ce <malloc+0x128>
    2346:	fe 01       	movw	r30, r28
    2348:	e2 0f       	add	r30, r18
    234a:	f3 1f       	adc	r31, r19
    234c:	81 93       	st	Z+, r24
    234e:	91 93       	st	Z+, r25
    2350:	22 50       	subi	r18, 0x02	; 2
    2352:	31 09       	sbc	r19, r1
    2354:	28 83       	st	Y, r18
    2356:	39 83       	std	Y+1, r19	; 0x01
    2358:	3a c0       	rjmp	.+116    	; 0x23ce <malloc+0x128>
    235a:	20 91 c3 20 	lds	r18, 0x20C3
    235e:	30 91 c4 20 	lds	r19, 0x20C4
    2362:	23 2b       	or	r18, r19
    2364:	41 f4       	brne	.+16     	; 0x2376 <malloc+0xd0>
    2366:	20 91 02 20 	lds	r18, 0x2002
    236a:	30 91 03 20 	lds	r19, 0x2003
    236e:	20 93 c3 20 	sts	0x20C3, r18
    2372:	30 93 c4 20 	sts	0x20C4, r19
    2376:	20 91 00 20 	lds	r18, 0x2000
    237a:	30 91 01 20 	lds	r19, 0x2001
    237e:	21 15       	cp	r18, r1
    2380:	31 05       	cpc	r19, r1
    2382:	41 f4       	brne	.+16     	; 0x2394 <malloc+0xee>
    2384:	2d b7       	in	r18, 0x3d	; 61
    2386:	3e b7       	in	r19, 0x3e	; 62
    2388:	40 91 04 20 	lds	r20, 0x2004
    238c:	50 91 05 20 	lds	r21, 0x2005
    2390:	24 1b       	sub	r18, r20
    2392:	35 0b       	sbc	r19, r21
    2394:	e0 91 c3 20 	lds	r30, 0x20C3
    2398:	f0 91 c4 20 	lds	r31, 0x20C4
    239c:	e2 17       	cp	r30, r18
    239e:	f3 07       	cpc	r31, r19
    23a0:	a0 f4       	brcc	.+40     	; 0x23ca <malloc+0x124>
    23a2:	2e 1b       	sub	r18, r30
    23a4:	3f 0b       	sbc	r19, r31
    23a6:	28 17       	cp	r18, r24
    23a8:	39 07       	cpc	r19, r25
    23aa:	78 f0       	brcs	.+30     	; 0x23ca <malloc+0x124>
    23ac:	ac 01       	movw	r20, r24
    23ae:	4e 5f       	subi	r20, 0xFE	; 254
    23b0:	5f 4f       	sbci	r21, 0xFF	; 255
    23b2:	24 17       	cp	r18, r20
    23b4:	35 07       	cpc	r19, r21
    23b6:	48 f0       	brcs	.+18     	; 0x23ca <malloc+0x124>
    23b8:	4e 0f       	add	r20, r30
    23ba:	5f 1f       	adc	r21, r31
    23bc:	40 93 c3 20 	sts	0x20C3, r20
    23c0:	50 93 c4 20 	sts	0x20C4, r21
    23c4:	81 93       	st	Z+, r24
    23c6:	91 93       	st	Z+, r25
    23c8:	02 c0       	rjmp	.+4      	; 0x23ce <malloc+0x128>
    23ca:	e0 e0       	ldi	r30, 0x00	; 0
    23cc:	f0 e0       	ldi	r31, 0x00	; 0
    23ce:	cf 01       	movw	r24, r30
    23d0:	df 91       	pop	r29
    23d2:	cf 91       	pop	r28
    23d4:	08 95       	ret

000023d6 <free>:
    23d6:	cf 93       	push	r28
    23d8:	df 93       	push	r29
    23da:	00 97       	sbiw	r24, 0x00	; 0
    23dc:	09 f4       	brne	.+2      	; 0x23e0 <free+0xa>
    23de:	87 c0       	rjmp	.+270    	; 0x24ee <free+0x118>
    23e0:	fc 01       	movw	r30, r24
    23e2:	32 97       	sbiw	r30, 0x02	; 2
    23e4:	12 82       	std	Z+2, r1	; 0x02
    23e6:	13 82       	std	Z+3, r1	; 0x03
    23e8:	c0 91 c5 20 	lds	r28, 0x20C5
    23ec:	d0 91 c6 20 	lds	r29, 0x20C6
    23f0:	20 97       	sbiw	r28, 0x00	; 0
    23f2:	81 f4       	brne	.+32     	; 0x2414 <free+0x3e>
    23f4:	20 81       	ld	r18, Z
    23f6:	31 81       	ldd	r19, Z+1	; 0x01
    23f8:	28 0f       	add	r18, r24
    23fa:	39 1f       	adc	r19, r25
    23fc:	80 91 c3 20 	lds	r24, 0x20C3
    2400:	90 91 c4 20 	lds	r25, 0x20C4
    2404:	82 17       	cp	r24, r18
    2406:	93 07       	cpc	r25, r19
    2408:	79 f5       	brne	.+94     	; 0x2468 <free+0x92>
    240a:	e0 93 c3 20 	sts	0x20C3, r30
    240e:	f0 93 c4 20 	sts	0x20C4, r31
    2412:	6d c0       	rjmp	.+218    	; 0x24ee <free+0x118>
    2414:	de 01       	movw	r26, r28
    2416:	20 e0       	ldi	r18, 0x00	; 0
    2418:	30 e0       	ldi	r19, 0x00	; 0
    241a:	ae 17       	cp	r26, r30
    241c:	bf 07       	cpc	r27, r31
    241e:	50 f4       	brcc	.+20     	; 0x2434 <free+0x5e>
    2420:	12 96       	adiw	r26, 0x02	; 2
    2422:	4d 91       	ld	r20, X+
    2424:	5c 91       	ld	r21, X
    2426:	13 97       	sbiw	r26, 0x03	; 3
    2428:	9d 01       	movw	r18, r26
    242a:	41 15       	cp	r20, r1
    242c:	51 05       	cpc	r21, r1
    242e:	09 f1       	breq	.+66     	; 0x2472 <free+0x9c>
    2430:	da 01       	movw	r26, r20
    2432:	f3 cf       	rjmp	.-26     	; 0x241a <free+0x44>
    2434:	a2 83       	std	Z+2, r26	; 0x02
    2436:	b3 83       	std	Z+3, r27	; 0x03
    2438:	40 81       	ld	r20, Z
    243a:	51 81       	ldd	r21, Z+1	; 0x01
    243c:	84 0f       	add	r24, r20
    243e:	95 1f       	adc	r25, r21
    2440:	8a 17       	cp	r24, r26
    2442:	9b 07       	cpc	r25, r27
    2444:	71 f4       	brne	.+28     	; 0x2462 <free+0x8c>
    2446:	8d 91       	ld	r24, X+
    2448:	9c 91       	ld	r25, X
    244a:	11 97       	sbiw	r26, 0x01	; 1
    244c:	84 0f       	add	r24, r20
    244e:	95 1f       	adc	r25, r21
    2450:	02 96       	adiw	r24, 0x02	; 2
    2452:	80 83       	st	Z, r24
    2454:	91 83       	std	Z+1, r25	; 0x01
    2456:	12 96       	adiw	r26, 0x02	; 2
    2458:	8d 91       	ld	r24, X+
    245a:	9c 91       	ld	r25, X
    245c:	13 97       	sbiw	r26, 0x03	; 3
    245e:	82 83       	std	Z+2, r24	; 0x02
    2460:	93 83       	std	Z+3, r25	; 0x03
    2462:	21 15       	cp	r18, r1
    2464:	31 05       	cpc	r19, r1
    2466:	29 f4       	brne	.+10     	; 0x2472 <free+0x9c>
    2468:	e0 93 c5 20 	sts	0x20C5, r30
    246c:	f0 93 c6 20 	sts	0x20C6, r31
    2470:	3e c0       	rjmp	.+124    	; 0x24ee <free+0x118>
    2472:	d9 01       	movw	r26, r18
    2474:	12 96       	adiw	r26, 0x02	; 2
    2476:	ed 93       	st	X+, r30
    2478:	fc 93       	st	X, r31
    247a:	13 97       	sbiw	r26, 0x03	; 3
    247c:	4d 91       	ld	r20, X+
    247e:	5d 91       	ld	r21, X+
    2480:	a4 0f       	add	r26, r20
    2482:	b5 1f       	adc	r27, r21
    2484:	ea 17       	cp	r30, r26
    2486:	fb 07       	cpc	r31, r27
    2488:	79 f4       	brne	.+30     	; 0x24a8 <free+0xd2>
    248a:	80 81       	ld	r24, Z
    248c:	91 81       	ldd	r25, Z+1	; 0x01
    248e:	84 0f       	add	r24, r20
    2490:	95 1f       	adc	r25, r21
    2492:	02 96       	adiw	r24, 0x02	; 2
    2494:	d9 01       	movw	r26, r18
    2496:	8d 93       	st	X+, r24
    2498:	9c 93       	st	X, r25
    249a:	11 97       	sbiw	r26, 0x01	; 1
    249c:	82 81       	ldd	r24, Z+2	; 0x02
    249e:	93 81       	ldd	r25, Z+3	; 0x03
    24a0:	12 96       	adiw	r26, 0x02	; 2
    24a2:	8d 93       	st	X+, r24
    24a4:	9c 93       	st	X, r25
    24a6:	13 97       	sbiw	r26, 0x03	; 3
    24a8:	e0 e0       	ldi	r30, 0x00	; 0
    24aa:	f0 e0       	ldi	r31, 0x00	; 0
    24ac:	8a 81       	ldd	r24, Y+2	; 0x02
    24ae:	9b 81       	ldd	r25, Y+3	; 0x03
    24b0:	00 97       	sbiw	r24, 0x00	; 0
    24b2:	19 f0       	breq	.+6      	; 0x24ba <free+0xe4>
    24b4:	fe 01       	movw	r30, r28
    24b6:	ec 01       	movw	r28, r24
    24b8:	f9 cf       	rjmp	.-14     	; 0x24ac <free+0xd6>
    24ba:	ce 01       	movw	r24, r28
    24bc:	02 96       	adiw	r24, 0x02	; 2
    24be:	28 81       	ld	r18, Y
    24c0:	39 81       	ldd	r19, Y+1	; 0x01
    24c2:	82 0f       	add	r24, r18
    24c4:	93 1f       	adc	r25, r19
    24c6:	20 91 c3 20 	lds	r18, 0x20C3
    24ca:	30 91 c4 20 	lds	r19, 0x20C4
    24ce:	28 17       	cp	r18, r24
    24d0:	39 07       	cpc	r19, r25
    24d2:	69 f4       	brne	.+26     	; 0x24ee <free+0x118>
    24d4:	30 97       	sbiw	r30, 0x00	; 0
    24d6:	29 f4       	brne	.+10     	; 0x24e2 <free+0x10c>
    24d8:	10 92 c5 20 	sts	0x20C5, r1
    24dc:	10 92 c6 20 	sts	0x20C6, r1
    24e0:	02 c0       	rjmp	.+4      	; 0x24e6 <free+0x110>
    24e2:	12 82       	std	Z+2, r1	; 0x02
    24e4:	13 82       	std	Z+3, r1	; 0x03
    24e6:	c0 93 c3 20 	sts	0x20C3, r28
    24ea:	d0 93 c4 20 	sts	0x20C4, r29
    24ee:	df 91       	pop	r29
    24f0:	cf 91       	pop	r28
    24f2:	08 95       	ret

000024f4 <__itoa_ncheck>:
    24f4:	bb 27       	eor	r27, r27
    24f6:	4a 30       	cpi	r20, 0x0A	; 10
    24f8:	31 f4       	brne	.+12     	; 0x2506 <__itoa_ncheck+0x12>
    24fa:	99 23       	and	r25, r25
    24fc:	22 f4       	brpl	.+8      	; 0x2506 <__itoa_ncheck+0x12>
    24fe:	bd e2       	ldi	r27, 0x2D	; 45
    2500:	90 95       	com	r25
    2502:	81 95       	neg	r24
    2504:	9f 4f       	sbci	r25, 0xFF	; 255
    2506:	01 c0       	rjmp	.+2      	; 0x250a <__utoa_common>

00002508 <__utoa_ncheck>:
    2508:	bb 27       	eor	r27, r27

0000250a <__utoa_common>:
    250a:	fb 01       	movw	r30, r22
    250c:	55 27       	eor	r21, r21
    250e:	aa 27       	eor	r26, r26
    2510:	88 0f       	add	r24, r24
    2512:	99 1f       	adc	r25, r25
    2514:	aa 1f       	adc	r26, r26
    2516:	a4 17       	cp	r26, r20
    2518:	10 f0       	brcs	.+4      	; 0x251e <__utoa_common+0x14>
    251a:	a4 1b       	sub	r26, r20
    251c:	83 95       	inc	r24
    251e:	50 51       	subi	r21, 0x10	; 16
    2520:	b9 f7       	brne	.-18     	; 0x2510 <__utoa_common+0x6>
    2522:	a0 5d       	subi	r26, 0xD0	; 208
    2524:	aa 33       	cpi	r26, 0x3A	; 58
    2526:	08 f0       	brcs	.+2      	; 0x252a <__utoa_common+0x20>
    2528:	a9 5d       	subi	r26, 0xD9	; 217
    252a:	a1 93       	st	Z+, r26
    252c:	00 97       	sbiw	r24, 0x00	; 0
    252e:	79 f7       	brne	.-34     	; 0x250e <__utoa_common+0x4>
    2530:	b1 11       	cpse	r27, r1
    2532:	b1 93       	st	Z+, r27
    2534:	11 92       	st	Z+, r1
    2536:	cb 01       	movw	r24, r22
    2538:	26 c2       	rjmp	.+1100   	; 0x2986 <strrev>

0000253a <sprintf>:
    253a:	0f 93       	push	r16
    253c:	1f 93       	push	r17
    253e:	cf 93       	push	r28
    2540:	df 93       	push	r29
    2542:	cd b7       	in	r28, 0x3d	; 61
    2544:	de b7       	in	r29, 0x3e	; 62
    2546:	2e 97       	sbiw	r28, 0x0e	; 14
    2548:	cd bf       	out	0x3d, r28	; 61
    254a:	de bf       	out	0x3e, r29	; 62
    254c:	0e 89       	ldd	r16, Y+22	; 0x16
    254e:	1f 89       	ldd	r17, Y+23	; 0x17
    2550:	86 e0       	ldi	r24, 0x06	; 6
    2552:	8c 83       	std	Y+4, r24	; 0x04
    2554:	09 83       	std	Y+1, r16	; 0x01
    2556:	1a 83       	std	Y+2, r17	; 0x02
    2558:	8f ef       	ldi	r24, 0xFF	; 255
    255a:	9f e7       	ldi	r25, 0x7F	; 127
    255c:	8d 83       	std	Y+5, r24	; 0x05
    255e:	9e 83       	std	Y+6, r25	; 0x06
    2560:	ae 01       	movw	r20, r28
    2562:	46 5e       	subi	r20, 0xE6	; 230
    2564:	5f 4f       	sbci	r21, 0xFF	; 255
    2566:	68 8d       	ldd	r22, Y+24	; 0x18
    2568:	79 8d       	ldd	r23, Y+25	; 0x19
    256a:	ce 01       	movw	r24, r28
    256c:	01 96       	adiw	r24, 0x01	; 1
    256e:	0d d0       	rcall	.+26     	; 0x258a <vfprintf>
    2570:	ef 81       	ldd	r30, Y+7	; 0x07
    2572:	f8 85       	ldd	r31, Y+8	; 0x08
    2574:	e0 0f       	add	r30, r16
    2576:	f1 1f       	adc	r31, r17
    2578:	10 82       	st	Z, r1
    257a:	2e 96       	adiw	r28, 0x0e	; 14
    257c:	cd bf       	out	0x3d, r28	; 61
    257e:	de bf       	out	0x3e, r29	; 62
    2580:	df 91       	pop	r29
    2582:	cf 91       	pop	r28
    2584:	1f 91       	pop	r17
    2586:	0f 91       	pop	r16
    2588:	08 95       	ret

0000258a <vfprintf>:
    258a:	2f 92       	push	r2
    258c:	3f 92       	push	r3
    258e:	4f 92       	push	r4
    2590:	5f 92       	push	r5
    2592:	6f 92       	push	r6
    2594:	7f 92       	push	r7
    2596:	8f 92       	push	r8
    2598:	9f 92       	push	r9
    259a:	af 92       	push	r10
    259c:	bf 92       	push	r11
    259e:	cf 92       	push	r12
    25a0:	df 92       	push	r13
    25a2:	ef 92       	push	r14
    25a4:	ff 92       	push	r15
    25a6:	0f 93       	push	r16
    25a8:	1f 93       	push	r17
    25aa:	cf 93       	push	r28
    25ac:	df 93       	push	r29
    25ae:	cd b7       	in	r28, 0x3d	; 61
    25b0:	de b7       	in	r29, 0x3e	; 62
    25b2:	2c 97       	sbiw	r28, 0x0c	; 12
    25b4:	cd bf       	out	0x3d, r28	; 61
    25b6:	de bf       	out	0x3e, r29	; 62
    25b8:	7c 01       	movw	r14, r24
    25ba:	6b 01       	movw	r12, r22
    25bc:	8a 01       	movw	r16, r20
    25be:	fc 01       	movw	r30, r24
    25c0:	16 82       	std	Z+6, r1	; 0x06
    25c2:	17 82       	std	Z+7, r1	; 0x07
    25c4:	83 81       	ldd	r24, Z+3	; 0x03
    25c6:	81 ff       	sbrs	r24, 1
    25c8:	b0 c1       	rjmp	.+864    	; 0x292a <vfprintf+0x3a0>
    25ca:	ce 01       	movw	r24, r28
    25cc:	01 96       	adiw	r24, 0x01	; 1
    25ce:	4c 01       	movw	r8, r24
    25d0:	f7 01       	movw	r30, r14
    25d2:	93 81       	ldd	r25, Z+3	; 0x03
    25d4:	f6 01       	movw	r30, r12
    25d6:	93 fd       	sbrc	r25, 3
    25d8:	85 91       	lpm	r24, Z+
    25da:	93 ff       	sbrs	r25, 3
    25dc:	81 91       	ld	r24, Z+
    25de:	6f 01       	movw	r12, r30
    25e0:	88 23       	and	r24, r24
    25e2:	09 f4       	brne	.+2      	; 0x25e6 <vfprintf+0x5c>
    25e4:	9e c1       	rjmp	.+828    	; 0x2922 <vfprintf+0x398>
    25e6:	85 32       	cpi	r24, 0x25	; 37
    25e8:	39 f4       	brne	.+14     	; 0x25f8 <vfprintf+0x6e>
    25ea:	93 fd       	sbrc	r25, 3
    25ec:	85 91       	lpm	r24, Z+
    25ee:	93 ff       	sbrs	r25, 3
    25f0:	81 91       	ld	r24, Z+
    25f2:	6f 01       	movw	r12, r30
    25f4:	85 32       	cpi	r24, 0x25	; 37
    25f6:	21 f4       	brne	.+8      	; 0x2600 <vfprintf+0x76>
    25f8:	b7 01       	movw	r22, r14
    25fa:	90 e0       	ldi	r25, 0x00	; 0
    25fc:	d4 d1       	rcall	.+936    	; 0x29a6 <fputc>
    25fe:	e8 cf       	rjmp	.-48     	; 0x25d0 <vfprintf+0x46>
    2600:	51 2c       	mov	r5, r1
    2602:	31 2c       	mov	r3, r1
    2604:	20 e0       	ldi	r18, 0x00	; 0
    2606:	20 32       	cpi	r18, 0x20	; 32
    2608:	a0 f4       	brcc	.+40     	; 0x2632 <vfprintf+0xa8>
    260a:	8b 32       	cpi	r24, 0x2B	; 43
    260c:	69 f0       	breq	.+26     	; 0x2628 <vfprintf+0x9e>
    260e:	30 f4       	brcc	.+12     	; 0x261c <vfprintf+0x92>
    2610:	80 32       	cpi	r24, 0x20	; 32
    2612:	59 f0       	breq	.+22     	; 0x262a <vfprintf+0xa0>
    2614:	83 32       	cpi	r24, 0x23	; 35
    2616:	69 f4       	brne	.+26     	; 0x2632 <vfprintf+0xa8>
    2618:	20 61       	ori	r18, 0x10	; 16
    261a:	2c c0       	rjmp	.+88     	; 0x2674 <vfprintf+0xea>
    261c:	8d 32       	cpi	r24, 0x2D	; 45
    261e:	39 f0       	breq	.+14     	; 0x262e <vfprintf+0xa4>
    2620:	80 33       	cpi	r24, 0x30	; 48
    2622:	39 f4       	brne	.+14     	; 0x2632 <vfprintf+0xa8>
    2624:	21 60       	ori	r18, 0x01	; 1
    2626:	26 c0       	rjmp	.+76     	; 0x2674 <vfprintf+0xea>
    2628:	22 60       	ori	r18, 0x02	; 2
    262a:	24 60       	ori	r18, 0x04	; 4
    262c:	23 c0       	rjmp	.+70     	; 0x2674 <vfprintf+0xea>
    262e:	28 60       	ori	r18, 0x08	; 8
    2630:	21 c0       	rjmp	.+66     	; 0x2674 <vfprintf+0xea>
    2632:	27 fd       	sbrc	r18, 7
    2634:	27 c0       	rjmp	.+78     	; 0x2684 <vfprintf+0xfa>
    2636:	30 ed       	ldi	r19, 0xD0	; 208
    2638:	38 0f       	add	r19, r24
    263a:	3a 30       	cpi	r19, 0x0A	; 10
    263c:	78 f4       	brcc	.+30     	; 0x265c <vfprintf+0xd2>
    263e:	26 ff       	sbrs	r18, 6
    2640:	06 c0       	rjmp	.+12     	; 0x264e <vfprintf+0xc4>
    2642:	fa e0       	ldi	r31, 0x0A	; 10
    2644:	5f 9e       	mul	r5, r31
    2646:	30 0d       	add	r19, r0
    2648:	11 24       	eor	r1, r1
    264a:	53 2e       	mov	r5, r19
    264c:	13 c0       	rjmp	.+38     	; 0x2674 <vfprintf+0xea>
    264e:	8a e0       	ldi	r24, 0x0A	; 10
    2650:	38 9e       	mul	r3, r24
    2652:	30 0d       	add	r19, r0
    2654:	11 24       	eor	r1, r1
    2656:	33 2e       	mov	r3, r19
    2658:	20 62       	ori	r18, 0x20	; 32
    265a:	0c c0       	rjmp	.+24     	; 0x2674 <vfprintf+0xea>
    265c:	8e 32       	cpi	r24, 0x2E	; 46
    265e:	21 f4       	brne	.+8      	; 0x2668 <vfprintf+0xde>
    2660:	26 fd       	sbrc	r18, 6
    2662:	5f c1       	rjmp	.+702    	; 0x2922 <vfprintf+0x398>
    2664:	20 64       	ori	r18, 0x40	; 64
    2666:	06 c0       	rjmp	.+12     	; 0x2674 <vfprintf+0xea>
    2668:	8c 36       	cpi	r24, 0x6C	; 108
    266a:	11 f4       	brne	.+4      	; 0x2670 <vfprintf+0xe6>
    266c:	20 68       	ori	r18, 0x80	; 128
    266e:	02 c0       	rjmp	.+4      	; 0x2674 <vfprintf+0xea>
    2670:	88 36       	cpi	r24, 0x68	; 104
    2672:	41 f4       	brne	.+16     	; 0x2684 <vfprintf+0xfa>
    2674:	f6 01       	movw	r30, r12
    2676:	93 fd       	sbrc	r25, 3
    2678:	85 91       	lpm	r24, Z+
    267a:	93 ff       	sbrs	r25, 3
    267c:	81 91       	ld	r24, Z+
    267e:	6f 01       	movw	r12, r30
    2680:	81 11       	cpse	r24, r1
    2682:	c1 cf       	rjmp	.-126    	; 0x2606 <vfprintf+0x7c>
    2684:	98 2f       	mov	r25, r24
    2686:	9f 7d       	andi	r25, 0xDF	; 223
    2688:	95 54       	subi	r25, 0x45	; 69
    268a:	93 30       	cpi	r25, 0x03	; 3
    268c:	28 f4       	brcc	.+10     	; 0x2698 <vfprintf+0x10e>
    268e:	0c 5f       	subi	r16, 0xFC	; 252
    2690:	1f 4f       	sbci	r17, 0xFF	; 255
    2692:	ff e3       	ldi	r31, 0x3F	; 63
    2694:	f9 83       	std	Y+1, r31	; 0x01
    2696:	0d c0       	rjmp	.+26     	; 0x26b2 <vfprintf+0x128>
    2698:	83 36       	cpi	r24, 0x63	; 99
    269a:	31 f0       	breq	.+12     	; 0x26a8 <vfprintf+0x11e>
    269c:	83 37       	cpi	r24, 0x73	; 115
    269e:	71 f0       	breq	.+28     	; 0x26bc <vfprintf+0x132>
    26a0:	83 35       	cpi	r24, 0x53	; 83
    26a2:	09 f0       	breq	.+2      	; 0x26a6 <vfprintf+0x11c>
    26a4:	57 c0       	rjmp	.+174    	; 0x2754 <vfprintf+0x1ca>
    26a6:	21 c0       	rjmp	.+66     	; 0x26ea <vfprintf+0x160>
    26a8:	f8 01       	movw	r30, r16
    26aa:	80 81       	ld	r24, Z
    26ac:	89 83       	std	Y+1, r24	; 0x01
    26ae:	0e 5f       	subi	r16, 0xFE	; 254
    26b0:	1f 4f       	sbci	r17, 0xFF	; 255
    26b2:	44 24       	eor	r4, r4
    26b4:	43 94       	inc	r4
    26b6:	51 2c       	mov	r5, r1
    26b8:	54 01       	movw	r10, r8
    26ba:	14 c0       	rjmp	.+40     	; 0x26e4 <vfprintf+0x15a>
    26bc:	38 01       	movw	r6, r16
    26be:	f2 e0       	ldi	r31, 0x02	; 2
    26c0:	6f 0e       	add	r6, r31
    26c2:	71 1c       	adc	r7, r1
    26c4:	f8 01       	movw	r30, r16
    26c6:	a0 80       	ld	r10, Z
    26c8:	b1 80       	ldd	r11, Z+1	; 0x01
    26ca:	26 ff       	sbrs	r18, 6
    26cc:	03 c0       	rjmp	.+6      	; 0x26d4 <vfprintf+0x14a>
    26ce:	65 2d       	mov	r22, r5
    26d0:	70 e0       	ldi	r23, 0x00	; 0
    26d2:	02 c0       	rjmp	.+4      	; 0x26d8 <vfprintf+0x14e>
    26d4:	6f ef       	ldi	r22, 0xFF	; 255
    26d6:	7f ef       	ldi	r23, 0xFF	; 255
    26d8:	c5 01       	movw	r24, r10
    26da:	2c 87       	std	Y+12, r18	; 0x0c
    26dc:	49 d1       	rcall	.+658    	; 0x2970 <strnlen>
    26de:	2c 01       	movw	r4, r24
    26e0:	83 01       	movw	r16, r6
    26e2:	2c 85       	ldd	r18, Y+12	; 0x0c
    26e4:	2f 77       	andi	r18, 0x7F	; 127
    26e6:	22 2e       	mov	r2, r18
    26e8:	16 c0       	rjmp	.+44     	; 0x2716 <vfprintf+0x18c>
    26ea:	38 01       	movw	r6, r16
    26ec:	f2 e0       	ldi	r31, 0x02	; 2
    26ee:	6f 0e       	add	r6, r31
    26f0:	71 1c       	adc	r7, r1
    26f2:	f8 01       	movw	r30, r16
    26f4:	a0 80       	ld	r10, Z
    26f6:	b1 80       	ldd	r11, Z+1	; 0x01
    26f8:	26 ff       	sbrs	r18, 6
    26fa:	03 c0       	rjmp	.+6      	; 0x2702 <vfprintf+0x178>
    26fc:	65 2d       	mov	r22, r5
    26fe:	70 e0       	ldi	r23, 0x00	; 0
    2700:	02 c0       	rjmp	.+4      	; 0x2706 <vfprintf+0x17c>
    2702:	6f ef       	ldi	r22, 0xFF	; 255
    2704:	7f ef       	ldi	r23, 0xFF	; 255
    2706:	c5 01       	movw	r24, r10
    2708:	2c 87       	std	Y+12, r18	; 0x0c
    270a:	27 d1       	rcall	.+590    	; 0x295a <strnlen_P>
    270c:	2c 01       	movw	r4, r24
    270e:	2c 85       	ldd	r18, Y+12	; 0x0c
    2710:	20 68       	ori	r18, 0x80	; 128
    2712:	22 2e       	mov	r2, r18
    2714:	83 01       	movw	r16, r6
    2716:	23 fc       	sbrc	r2, 3
    2718:	19 c0       	rjmp	.+50     	; 0x274c <vfprintf+0x1c2>
    271a:	83 2d       	mov	r24, r3
    271c:	90 e0       	ldi	r25, 0x00	; 0
    271e:	48 16       	cp	r4, r24
    2720:	59 06       	cpc	r5, r25
    2722:	a0 f4       	brcc	.+40     	; 0x274c <vfprintf+0x1c2>
    2724:	b7 01       	movw	r22, r14
    2726:	80 e2       	ldi	r24, 0x20	; 32
    2728:	90 e0       	ldi	r25, 0x00	; 0
    272a:	3d d1       	rcall	.+634    	; 0x29a6 <fputc>
    272c:	3a 94       	dec	r3
    272e:	f5 cf       	rjmp	.-22     	; 0x271a <vfprintf+0x190>
    2730:	f5 01       	movw	r30, r10
    2732:	27 fc       	sbrc	r2, 7
    2734:	85 91       	lpm	r24, Z+
    2736:	27 fe       	sbrs	r2, 7
    2738:	81 91       	ld	r24, Z+
    273a:	5f 01       	movw	r10, r30
    273c:	b7 01       	movw	r22, r14
    273e:	90 e0       	ldi	r25, 0x00	; 0
    2740:	32 d1       	rcall	.+612    	; 0x29a6 <fputc>
    2742:	31 10       	cpse	r3, r1
    2744:	3a 94       	dec	r3
    2746:	f1 e0       	ldi	r31, 0x01	; 1
    2748:	4f 1a       	sub	r4, r31
    274a:	51 08       	sbc	r5, r1
    274c:	41 14       	cp	r4, r1
    274e:	51 04       	cpc	r5, r1
    2750:	79 f7       	brne	.-34     	; 0x2730 <vfprintf+0x1a6>
    2752:	de c0       	rjmp	.+444    	; 0x2910 <vfprintf+0x386>
    2754:	84 36       	cpi	r24, 0x64	; 100
    2756:	11 f0       	breq	.+4      	; 0x275c <vfprintf+0x1d2>
    2758:	89 36       	cpi	r24, 0x69	; 105
    275a:	31 f5       	brne	.+76     	; 0x27a8 <vfprintf+0x21e>
    275c:	f8 01       	movw	r30, r16
    275e:	27 ff       	sbrs	r18, 7
    2760:	07 c0       	rjmp	.+14     	; 0x2770 <vfprintf+0x1e6>
    2762:	60 81       	ld	r22, Z
    2764:	71 81       	ldd	r23, Z+1	; 0x01
    2766:	82 81       	ldd	r24, Z+2	; 0x02
    2768:	93 81       	ldd	r25, Z+3	; 0x03
    276a:	0c 5f       	subi	r16, 0xFC	; 252
    276c:	1f 4f       	sbci	r17, 0xFF	; 255
    276e:	08 c0       	rjmp	.+16     	; 0x2780 <vfprintf+0x1f6>
    2770:	60 81       	ld	r22, Z
    2772:	71 81       	ldd	r23, Z+1	; 0x01
    2774:	88 27       	eor	r24, r24
    2776:	77 fd       	sbrc	r23, 7
    2778:	80 95       	com	r24
    277a:	98 2f       	mov	r25, r24
    277c:	0e 5f       	subi	r16, 0xFE	; 254
    277e:	1f 4f       	sbci	r17, 0xFF	; 255
    2780:	2f 76       	andi	r18, 0x6F	; 111
    2782:	b2 2e       	mov	r11, r18
    2784:	97 ff       	sbrs	r25, 7
    2786:	09 c0       	rjmp	.+18     	; 0x279a <vfprintf+0x210>
    2788:	90 95       	com	r25
    278a:	80 95       	com	r24
    278c:	70 95       	com	r23
    278e:	61 95       	neg	r22
    2790:	7f 4f       	sbci	r23, 0xFF	; 255
    2792:	8f 4f       	sbci	r24, 0xFF	; 255
    2794:	9f 4f       	sbci	r25, 0xFF	; 255
    2796:	20 68       	ori	r18, 0x80	; 128
    2798:	b2 2e       	mov	r11, r18
    279a:	2a e0       	ldi	r18, 0x0A	; 10
    279c:	30 e0       	ldi	r19, 0x00	; 0
    279e:	a4 01       	movw	r20, r8
    27a0:	34 d1       	rcall	.+616    	; 0x2a0a <__ultoa_invert>
    27a2:	a8 2e       	mov	r10, r24
    27a4:	a8 18       	sub	r10, r8
    27a6:	43 c0       	rjmp	.+134    	; 0x282e <vfprintf+0x2a4>
    27a8:	85 37       	cpi	r24, 0x75	; 117
    27aa:	29 f4       	brne	.+10     	; 0x27b6 <vfprintf+0x22c>
    27ac:	2f 7e       	andi	r18, 0xEF	; 239
    27ae:	b2 2e       	mov	r11, r18
    27b0:	2a e0       	ldi	r18, 0x0A	; 10
    27b2:	30 e0       	ldi	r19, 0x00	; 0
    27b4:	25 c0       	rjmp	.+74     	; 0x2800 <vfprintf+0x276>
    27b6:	f2 2f       	mov	r31, r18
    27b8:	f9 7f       	andi	r31, 0xF9	; 249
    27ba:	bf 2e       	mov	r11, r31
    27bc:	8f 36       	cpi	r24, 0x6F	; 111
    27be:	c1 f0       	breq	.+48     	; 0x27f0 <vfprintf+0x266>
    27c0:	18 f4       	brcc	.+6      	; 0x27c8 <vfprintf+0x23e>
    27c2:	88 35       	cpi	r24, 0x58	; 88
    27c4:	79 f0       	breq	.+30     	; 0x27e4 <vfprintf+0x25a>
    27c6:	ad c0       	rjmp	.+346    	; 0x2922 <vfprintf+0x398>
    27c8:	80 37       	cpi	r24, 0x70	; 112
    27ca:	19 f0       	breq	.+6      	; 0x27d2 <vfprintf+0x248>
    27cc:	88 37       	cpi	r24, 0x78	; 120
    27ce:	21 f0       	breq	.+8      	; 0x27d8 <vfprintf+0x24e>
    27d0:	a8 c0       	rjmp	.+336    	; 0x2922 <vfprintf+0x398>
    27d2:	2f 2f       	mov	r18, r31
    27d4:	20 61       	ori	r18, 0x10	; 16
    27d6:	b2 2e       	mov	r11, r18
    27d8:	b4 fe       	sbrs	r11, 4
    27da:	0d c0       	rjmp	.+26     	; 0x27f6 <vfprintf+0x26c>
    27dc:	8b 2d       	mov	r24, r11
    27de:	84 60       	ori	r24, 0x04	; 4
    27e0:	b8 2e       	mov	r11, r24
    27e2:	09 c0       	rjmp	.+18     	; 0x27f6 <vfprintf+0x26c>
    27e4:	24 ff       	sbrs	r18, 4
    27e6:	0a c0       	rjmp	.+20     	; 0x27fc <vfprintf+0x272>
    27e8:	9f 2f       	mov	r25, r31
    27ea:	96 60       	ori	r25, 0x06	; 6
    27ec:	b9 2e       	mov	r11, r25
    27ee:	06 c0       	rjmp	.+12     	; 0x27fc <vfprintf+0x272>
    27f0:	28 e0       	ldi	r18, 0x08	; 8
    27f2:	30 e0       	ldi	r19, 0x00	; 0
    27f4:	05 c0       	rjmp	.+10     	; 0x2800 <vfprintf+0x276>
    27f6:	20 e1       	ldi	r18, 0x10	; 16
    27f8:	30 e0       	ldi	r19, 0x00	; 0
    27fa:	02 c0       	rjmp	.+4      	; 0x2800 <vfprintf+0x276>
    27fc:	20 e1       	ldi	r18, 0x10	; 16
    27fe:	32 e0       	ldi	r19, 0x02	; 2
    2800:	f8 01       	movw	r30, r16
    2802:	b7 fe       	sbrs	r11, 7
    2804:	07 c0       	rjmp	.+14     	; 0x2814 <vfprintf+0x28a>
    2806:	60 81       	ld	r22, Z
    2808:	71 81       	ldd	r23, Z+1	; 0x01
    280a:	82 81       	ldd	r24, Z+2	; 0x02
    280c:	93 81       	ldd	r25, Z+3	; 0x03
    280e:	0c 5f       	subi	r16, 0xFC	; 252
    2810:	1f 4f       	sbci	r17, 0xFF	; 255
    2812:	06 c0       	rjmp	.+12     	; 0x2820 <vfprintf+0x296>
    2814:	60 81       	ld	r22, Z
    2816:	71 81       	ldd	r23, Z+1	; 0x01
    2818:	80 e0       	ldi	r24, 0x00	; 0
    281a:	90 e0       	ldi	r25, 0x00	; 0
    281c:	0e 5f       	subi	r16, 0xFE	; 254
    281e:	1f 4f       	sbci	r17, 0xFF	; 255
    2820:	a4 01       	movw	r20, r8
    2822:	f3 d0       	rcall	.+486    	; 0x2a0a <__ultoa_invert>
    2824:	a8 2e       	mov	r10, r24
    2826:	a8 18       	sub	r10, r8
    2828:	fb 2d       	mov	r31, r11
    282a:	ff 77       	andi	r31, 0x7F	; 127
    282c:	bf 2e       	mov	r11, r31
    282e:	b6 fe       	sbrs	r11, 6
    2830:	0b c0       	rjmp	.+22     	; 0x2848 <vfprintf+0x2be>
    2832:	2b 2d       	mov	r18, r11
    2834:	2e 7f       	andi	r18, 0xFE	; 254
    2836:	a5 14       	cp	r10, r5
    2838:	50 f4       	brcc	.+20     	; 0x284e <vfprintf+0x2c4>
    283a:	b4 fe       	sbrs	r11, 4
    283c:	0a c0       	rjmp	.+20     	; 0x2852 <vfprintf+0x2c8>
    283e:	b2 fc       	sbrc	r11, 2
    2840:	08 c0       	rjmp	.+16     	; 0x2852 <vfprintf+0x2c8>
    2842:	2b 2d       	mov	r18, r11
    2844:	2e 7e       	andi	r18, 0xEE	; 238
    2846:	05 c0       	rjmp	.+10     	; 0x2852 <vfprintf+0x2c8>
    2848:	7a 2c       	mov	r7, r10
    284a:	2b 2d       	mov	r18, r11
    284c:	03 c0       	rjmp	.+6      	; 0x2854 <vfprintf+0x2ca>
    284e:	7a 2c       	mov	r7, r10
    2850:	01 c0       	rjmp	.+2      	; 0x2854 <vfprintf+0x2ca>
    2852:	75 2c       	mov	r7, r5
    2854:	24 ff       	sbrs	r18, 4
    2856:	0d c0       	rjmp	.+26     	; 0x2872 <vfprintf+0x2e8>
    2858:	fe 01       	movw	r30, r28
    285a:	ea 0d       	add	r30, r10
    285c:	f1 1d       	adc	r31, r1
    285e:	80 81       	ld	r24, Z
    2860:	80 33       	cpi	r24, 0x30	; 48
    2862:	11 f4       	brne	.+4      	; 0x2868 <vfprintf+0x2de>
    2864:	29 7e       	andi	r18, 0xE9	; 233
    2866:	09 c0       	rjmp	.+18     	; 0x287a <vfprintf+0x2f0>
    2868:	22 ff       	sbrs	r18, 2
    286a:	06 c0       	rjmp	.+12     	; 0x2878 <vfprintf+0x2ee>
    286c:	73 94       	inc	r7
    286e:	73 94       	inc	r7
    2870:	04 c0       	rjmp	.+8      	; 0x287a <vfprintf+0x2f0>
    2872:	82 2f       	mov	r24, r18
    2874:	86 78       	andi	r24, 0x86	; 134
    2876:	09 f0       	breq	.+2      	; 0x287a <vfprintf+0x2f0>
    2878:	73 94       	inc	r7
    287a:	23 fd       	sbrc	r18, 3
    287c:	12 c0       	rjmp	.+36     	; 0x28a2 <vfprintf+0x318>
    287e:	20 ff       	sbrs	r18, 0
    2880:	06 c0       	rjmp	.+12     	; 0x288e <vfprintf+0x304>
    2882:	5a 2c       	mov	r5, r10
    2884:	73 14       	cp	r7, r3
    2886:	18 f4       	brcc	.+6      	; 0x288e <vfprintf+0x304>
    2888:	53 0c       	add	r5, r3
    288a:	57 18       	sub	r5, r7
    288c:	73 2c       	mov	r7, r3
    288e:	73 14       	cp	r7, r3
    2890:	60 f4       	brcc	.+24     	; 0x28aa <vfprintf+0x320>
    2892:	b7 01       	movw	r22, r14
    2894:	80 e2       	ldi	r24, 0x20	; 32
    2896:	90 e0       	ldi	r25, 0x00	; 0
    2898:	2c 87       	std	Y+12, r18	; 0x0c
    289a:	85 d0       	rcall	.+266    	; 0x29a6 <fputc>
    289c:	73 94       	inc	r7
    289e:	2c 85       	ldd	r18, Y+12	; 0x0c
    28a0:	f6 cf       	rjmp	.-20     	; 0x288e <vfprintf+0x304>
    28a2:	73 14       	cp	r7, r3
    28a4:	10 f4       	brcc	.+4      	; 0x28aa <vfprintf+0x320>
    28a6:	37 18       	sub	r3, r7
    28a8:	01 c0       	rjmp	.+2      	; 0x28ac <vfprintf+0x322>
    28aa:	31 2c       	mov	r3, r1
    28ac:	24 ff       	sbrs	r18, 4
    28ae:	11 c0       	rjmp	.+34     	; 0x28d2 <vfprintf+0x348>
    28b0:	b7 01       	movw	r22, r14
    28b2:	80 e3       	ldi	r24, 0x30	; 48
    28b4:	90 e0       	ldi	r25, 0x00	; 0
    28b6:	2c 87       	std	Y+12, r18	; 0x0c
    28b8:	76 d0       	rcall	.+236    	; 0x29a6 <fputc>
    28ba:	2c 85       	ldd	r18, Y+12	; 0x0c
    28bc:	22 ff       	sbrs	r18, 2
    28be:	16 c0       	rjmp	.+44     	; 0x28ec <vfprintf+0x362>
    28c0:	21 ff       	sbrs	r18, 1
    28c2:	03 c0       	rjmp	.+6      	; 0x28ca <vfprintf+0x340>
    28c4:	88 e5       	ldi	r24, 0x58	; 88
    28c6:	90 e0       	ldi	r25, 0x00	; 0
    28c8:	02 c0       	rjmp	.+4      	; 0x28ce <vfprintf+0x344>
    28ca:	88 e7       	ldi	r24, 0x78	; 120
    28cc:	90 e0       	ldi	r25, 0x00	; 0
    28ce:	b7 01       	movw	r22, r14
    28d0:	0c c0       	rjmp	.+24     	; 0x28ea <vfprintf+0x360>
    28d2:	82 2f       	mov	r24, r18
    28d4:	86 78       	andi	r24, 0x86	; 134
    28d6:	51 f0       	breq	.+20     	; 0x28ec <vfprintf+0x362>
    28d8:	21 fd       	sbrc	r18, 1
    28da:	02 c0       	rjmp	.+4      	; 0x28e0 <vfprintf+0x356>
    28dc:	80 e2       	ldi	r24, 0x20	; 32
    28de:	01 c0       	rjmp	.+2      	; 0x28e2 <vfprintf+0x358>
    28e0:	8b e2       	ldi	r24, 0x2B	; 43
    28e2:	27 fd       	sbrc	r18, 7
    28e4:	8d e2       	ldi	r24, 0x2D	; 45
    28e6:	b7 01       	movw	r22, r14
    28e8:	90 e0       	ldi	r25, 0x00	; 0
    28ea:	5d d0       	rcall	.+186    	; 0x29a6 <fputc>
    28ec:	a5 14       	cp	r10, r5
    28ee:	30 f4       	brcc	.+12     	; 0x28fc <vfprintf+0x372>
    28f0:	b7 01       	movw	r22, r14
    28f2:	80 e3       	ldi	r24, 0x30	; 48
    28f4:	90 e0       	ldi	r25, 0x00	; 0
    28f6:	57 d0       	rcall	.+174    	; 0x29a6 <fputc>
    28f8:	5a 94       	dec	r5
    28fa:	f8 cf       	rjmp	.-16     	; 0x28ec <vfprintf+0x362>
    28fc:	aa 94       	dec	r10
    28fe:	f4 01       	movw	r30, r8
    2900:	ea 0d       	add	r30, r10
    2902:	f1 1d       	adc	r31, r1
    2904:	80 81       	ld	r24, Z
    2906:	b7 01       	movw	r22, r14
    2908:	90 e0       	ldi	r25, 0x00	; 0
    290a:	4d d0       	rcall	.+154    	; 0x29a6 <fputc>
    290c:	a1 10       	cpse	r10, r1
    290e:	f6 cf       	rjmp	.-20     	; 0x28fc <vfprintf+0x372>
    2910:	33 20       	and	r3, r3
    2912:	09 f4       	brne	.+2      	; 0x2916 <vfprintf+0x38c>
    2914:	5d ce       	rjmp	.-838    	; 0x25d0 <vfprintf+0x46>
    2916:	b7 01       	movw	r22, r14
    2918:	80 e2       	ldi	r24, 0x20	; 32
    291a:	90 e0       	ldi	r25, 0x00	; 0
    291c:	44 d0       	rcall	.+136    	; 0x29a6 <fputc>
    291e:	3a 94       	dec	r3
    2920:	f7 cf       	rjmp	.-18     	; 0x2910 <vfprintf+0x386>
    2922:	f7 01       	movw	r30, r14
    2924:	86 81       	ldd	r24, Z+6	; 0x06
    2926:	97 81       	ldd	r25, Z+7	; 0x07
    2928:	02 c0       	rjmp	.+4      	; 0x292e <vfprintf+0x3a4>
    292a:	8f ef       	ldi	r24, 0xFF	; 255
    292c:	9f ef       	ldi	r25, 0xFF	; 255
    292e:	2c 96       	adiw	r28, 0x0c	; 12
    2930:	cd bf       	out	0x3d, r28	; 61
    2932:	de bf       	out	0x3e, r29	; 62
    2934:	df 91       	pop	r29
    2936:	cf 91       	pop	r28
    2938:	1f 91       	pop	r17
    293a:	0f 91       	pop	r16
    293c:	ff 90       	pop	r15
    293e:	ef 90       	pop	r14
    2940:	df 90       	pop	r13
    2942:	cf 90       	pop	r12
    2944:	bf 90       	pop	r11
    2946:	af 90       	pop	r10
    2948:	9f 90       	pop	r9
    294a:	8f 90       	pop	r8
    294c:	7f 90       	pop	r7
    294e:	6f 90       	pop	r6
    2950:	5f 90       	pop	r5
    2952:	4f 90       	pop	r4
    2954:	3f 90       	pop	r3
    2956:	2f 90       	pop	r2
    2958:	08 95       	ret

0000295a <strnlen_P>:
    295a:	fc 01       	movw	r30, r24
    295c:	05 90       	lpm	r0, Z+
    295e:	61 50       	subi	r22, 0x01	; 1
    2960:	70 40       	sbci	r23, 0x00	; 0
    2962:	01 10       	cpse	r0, r1
    2964:	d8 f7       	brcc	.-10     	; 0x295c <strnlen_P+0x2>
    2966:	80 95       	com	r24
    2968:	90 95       	com	r25
    296a:	8e 0f       	add	r24, r30
    296c:	9f 1f       	adc	r25, r31
    296e:	08 95       	ret

00002970 <strnlen>:
    2970:	fc 01       	movw	r30, r24
    2972:	61 50       	subi	r22, 0x01	; 1
    2974:	70 40       	sbci	r23, 0x00	; 0
    2976:	01 90       	ld	r0, Z+
    2978:	01 10       	cpse	r0, r1
    297a:	d8 f7       	brcc	.-10     	; 0x2972 <strnlen+0x2>
    297c:	80 95       	com	r24
    297e:	90 95       	com	r25
    2980:	8e 0f       	add	r24, r30
    2982:	9f 1f       	adc	r25, r31
    2984:	08 95       	ret

00002986 <strrev>:
    2986:	dc 01       	movw	r26, r24
    2988:	fc 01       	movw	r30, r24
    298a:	67 2f       	mov	r22, r23
    298c:	71 91       	ld	r23, Z+
    298e:	77 23       	and	r23, r23
    2990:	e1 f7       	brne	.-8      	; 0x298a <strrev+0x4>
    2992:	32 97       	sbiw	r30, 0x02	; 2
    2994:	04 c0       	rjmp	.+8      	; 0x299e <strrev+0x18>
    2996:	7c 91       	ld	r23, X
    2998:	6d 93       	st	X+, r22
    299a:	70 83       	st	Z, r23
    299c:	62 91       	ld	r22, -Z
    299e:	ae 17       	cp	r26, r30
    29a0:	bf 07       	cpc	r27, r31
    29a2:	c8 f3       	brcs	.-14     	; 0x2996 <strrev+0x10>
    29a4:	08 95       	ret

000029a6 <fputc>:
    29a6:	0f 93       	push	r16
    29a8:	1f 93       	push	r17
    29aa:	cf 93       	push	r28
    29ac:	df 93       	push	r29
    29ae:	18 2f       	mov	r17, r24
    29b0:	09 2f       	mov	r16, r25
    29b2:	eb 01       	movw	r28, r22
    29b4:	8b 81       	ldd	r24, Y+3	; 0x03
    29b6:	81 fd       	sbrc	r24, 1
    29b8:	03 c0       	rjmp	.+6      	; 0x29c0 <fputc+0x1a>
    29ba:	8f ef       	ldi	r24, 0xFF	; 255
    29bc:	9f ef       	ldi	r25, 0xFF	; 255
    29be:	20 c0       	rjmp	.+64     	; 0x2a00 <fputc+0x5a>
    29c0:	82 ff       	sbrs	r24, 2
    29c2:	10 c0       	rjmp	.+32     	; 0x29e4 <fputc+0x3e>
    29c4:	4e 81       	ldd	r20, Y+6	; 0x06
    29c6:	5f 81       	ldd	r21, Y+7	; 0x07
    29c8:	2c 81       	ldd	r18, Y+4	; 0x04
    29ca:	3d 81       	ldd	r19, Y+5	; 0x05
    29cc:	42 17       	cp	r20, r18
    29ce:	53 07       	cpc	r21, r19
    29d0:	7c f4       	brge	.+30     	; 0x29f0 <fputc+0x4a>
    29d2:	e8 81       	ld	r30, Y
    29d4:	f9 81       	ldd	r31, Y+1	; 0x01
    29d6:	9f 01       	movw	r18, r30
    29d8:	2f 5f       	subi	r18, 0xFF	; 255
    29da:	3f 4f       	sbci	r19, 0xFF	; 255
    29dc:	28 83       	st	Y, r18
    29de:	39 83       	std	Y+1, r19	; 0x01
    29e0:	10 83       	st	Z, r17
    29e2:	06 c0       	rjmp	.+12     	; 0x29f0 <fputc+0x4a>
    29e4:	e8 85       	ldd	r30, Y+8	; 0x08
    29e6:	f9 85       	ldd	r31, Y+9	; 0x09
    29e8:	81 2f       	mov	r24, r17
    29ea:	19 95       	eicall
    29ec:	89 2b       	or	r24, r25
    29ee:	29 f7       	brne	.-54     	; 0x29ba <fputc+0x14>
    29f0:	2e 81       	ldd	r18, Y+6	; 0x06
    29f2:	3f 81       	ldd	r19, Y+7	; 0x07
    29f4:	2f 5f       	subi	r18, 0xFF	; 255
    29f6:	3f 4f       	sbci	r19, 0xFF	; 255
    29f8:	2e 83       	std	Y+6, r18	; 0x06
    29fa:	3f 83       	std	Y+7, r19	; 0x07
    29fc:	81 2f       	mov	r24, r17
    29fe:	90 2f       	mov	r25, r16
    2a00:	df 91       	pop	r29
    2a02:	cf 91       	pop	r28
    2a04:	1f 91       	pop	r17
    2a06:	0f 91       	pop	r16
    2a08:	08 95       	ret

00002a0a <__ultoa_invert>:
    2a0a:	fa 01       	movw	r30, r20
    2a0c:	aa 27       	eor	r26, r26
    2a0e:	28 30       	cpi	r18, 0x08	; 8
    2a10:	51 f1       	breq	.+84     	; 0x2a66 <__ultoa_invert+0x5c>
    2a12:	20 31       	cpi	r18, 0x10	; 16
    2a14:	81 f1       	breq	.+96     	; 0x2a76 <__ultoa_invert+0x6c>
    2a16:	e8 94       	clt
    2a18:	6f 93       	push	r22
    2a1a:	6e 7f       	andi	r22, 0xFE	; 254
    2a1c:	6e 5f       	subi	r22, 0xFE	; 254
    2a1e:	7f 4f       	sbci	r23, 0xFF	; 255
    2a20:	8f 4f       	sbci	r24, 0xFF	; 255
    2a22:	9f 4f       	sbci	r25, 0xFF	; 255
    2a24:	af 4f       	sbci	r26, 0xFF	; 255
    2a26:	b1 e0       	ldi	r27, 0x01	; 1
    2a28:	3e d0       	rcall	.+124    	; 0x2aa6 <__ultoa_invert+0x9c>
    2a2a:	b4 e0       	ldi	r27, 0x04	; 4
    2a2c:	3c d0       	rcall	.+120    	; 0x2aa6 <__ultoa_invert+0x9c>
    2a2e:	67 0f       	add	r22, r23
    2a30:	78 1f       	adc	r23, r24
    2a32:	89 1f       	adc	r24, r25
    2a34:	9a 1f       	adc	r25, r26
    2a36:	a1 1d       	adc	r26, r1
    2a38:	68 0f       	add	r22, r24
    2a3a:	79 1f       	adc	r23, r25
    2a3c:	8a 1f       	adc	r24, r26
    2a3e:	91 1d       	adc	r25, r1
    2a40:	a1 1d       	adc	r26, r1
    2a42:	6a 0f       	add	r22, r26
    2a44:	71 1d       	adc	r23, r1
    2a46:	81 1d       	adc	r24, r1
    2a48:	91 1d       	adc	r25, r1
    2a4a:	a1 1d       	adc	r26, r1
    2a4c:	20 d0       	rcall	.+64     	; 0x2a8e <__ultoa_invert+0x84>
    2a4e:	09 f4       	brne	.+2      	; 0x2a52 <__ultoa_invert+0x48>
    2a50:	68 94       	set
    2a52:	3f 91       	pop	r19
    2a54:	2a e0       	ldi	r18, 0x0A	; 10
    2a56:	26 9f       	mul	r18, r22
    2a58:	11 24       	eor	r1, r1
    2a5a:	30 19       	sub	r19, r0
    2a5c:	30 5d       	subi	r19, 0xD0	; 208
    2a5e:	31 93       	st	Z+, r19
    2a60:	de f6       	brtc	.-74     	; 0x2a18 <__ultoa_invert+0xe>
    2a62:	cf 01       	movw	r24, r30
    2a64:	08 95       	ret
    2a66:	46 2f       	mov	r20, r22
    2a68:	47 70       	andi	r20, 0x07	; 7
    2a6a:	40 5d       	subi	r20, 0xD0	; 208
    2a6c:	41 93       	st	Z+, r20
    2a6e:	b3 e0       	ldi	r27, 0x03	; 3
    2a70:	0f d0       	rcall	.+30     	; 0x2a90 <__ultoa_invert+0x86>
    2a72:	c9 f7       	brne	.-14     	; 0x2a66 <__ultoa_invert+0x5c>
    2a74:	f6 cf       	rjmp	.-20     	; 0x2a62 <__ultoa_invert+0x58>
    2a76:	46 2f       	mov	r20, r22
    2a78:	4f 70       	andi	r20, 0x0F	; 15
    2a7a:	40 5d       	subi	r20, 0xD0	; 208
    2a7c:	4a 33       	cpi	r20, 0x3A	; 58
    2a7e:	18 f0       	brcs	.+6      	; 0x2a86 <__ultoa_invert+0x7c>
    2a80:	49 5d       	subi	r20, 0xD9	; 217
    2a82:	31 fd       	sbrc	r19, 1
    2a84:	40 52       	subi	r20, 0x20	; 32
    2a86:	41 93       	st	Z+, r20
    2a88:	02 d0       	rcall	.+4      	; 0x2a8e <__ultoa_invert+0x84>
    2a8a:	a9 f7       	brne	.-22     	; 0x2a76 <__ultoa_invert+0x6c>
    2a8c:	ea cf       	rjmp	.-44     	; 0x2a62 <__ultoa_invert+0x58>
    2a8e:	b4 e0       	ldi	r27, 0x04	; 4
    2a90:	a6 95       	lsr	r26
    2a92:	97 95       	ror	r25
    2a94:	87 95       	ror	r24
    2a96:	77 95       	ror	r23
    2a98:	67 95       	ror	r22
    2a9a:	ba 95       	dec	r27
    2a9c:	c9 f7       	brne	.-14     	; 0x2a90 <__ultoa_invert+0x86>
    2a9e:	00 97       	sbiw	r24, 0x00	; 0
    2aa0:	61 05       	cpc	r22, r1
    2aa2:	71 05       	cpc	r23, r1
    2aa4:	08 95       	ret
    2aa6:	9b 01       	movw	r18, r22
    2aa8:	ac 01       	movw	r20, r24
    2aaa:	0a 2e       	mov	r0, r26
    2aac:	06 94       	lsr	r0
    2aae:	57 95       	ror	r21
    2ab0:	47 95       	ror	r20
    2ab2:	37 95       	ror	r19
    2ab4:	27 95       	ror	r18
    2ab6:	ba 95       	dec	r27
    2ab8:	c9 f7       	brne	.-14     	; 0x2aac <__ultoa_invert+0xa2>
    2aba:	62 0f       	add	r22, r18
    2abc:	73 1f       	adc	r23, r19
    2abe:	84 1f       	adc	r24, r20
    2ac0:	95 1f       	adc	r25, r21
    2ac2:	a0 1d       	adc	r26, r0
    2ac4:	08 95       	ret

00002ac6 <_exit>:
    2ac6:	f8 94       	cli

00002ac8 <__stop_program>:
    2ac8:	ff cf       	rjmp	.-2      	; 0x2ac8 <__stop_program>
